; Listing generated by Microsoft (R) Optimizing Compiler Version 19.23.28107.0 

	TITLE	C:\Program Files (x86)\Steam\steamapps\common\Bully Scholarship Edition\_derpy_script_loader\src\client\client.c
	.686P
	.XMM
	include listing.inc
	.model	flat

INCLUDELIB LIBCMT
INCLUDELIB OLDNAMES

PUBLIC	___local_stdio_printf_options
PUBLIC	__vsnprintf_l
PUBLIC	__vsprintf_l
PUBLIC	_sprintf
PUBLIC	_setupNetworking
PUBLIC	_cleanupNetworking
PUBLIC	_updateNetworking
PUBLIC	_updateNetworking2
PUBLIC	_shouldNetworkDisableKeys
PUBLIC	_isNetworkPlayingOnServer
PUBLIC	_getNetworkSendBufferBytes
PUBLIC	_updateNetworkPrompt
PUBLIC	_requestNetworkListing
PUBLIC	_promptNetworkServer
PUBLIC	_disconnectFromPlaying
PUBLIC	_preparedNetworkScripts
PUBLIC	_sendNetworkServerEvent
PUBLIC	??_C@_0CG@PDGCLHEA@_derpy_script_loader?1cache?1serv@ ; `string'
PUBLIC	??_C@_0M@JMBIONAO@server_icon@			; `string'
PUBLIC	??_C@_0CH@EMLNOIE@failed?5to?5create?5cache?5for?5serv@ ; `string'
PUBLIC	??_C@_02GMLFBBN@wb@				; `string'
PUBLIC	??_C@_0CL@BBKGFAME@failed?5to?5create?5server?5icon?5fi@ ; `string'
PUBLIC	??_C@_0CB@DIMMDOBO@failed?5to?5write?5server?5icon?5fil@ ; `string'
PUBLIC	??_C@_0BK@FGOEOOHP@an?5unknown?5error?5occurred@ ; `string'
PUBLIC	??_C@_0CK@NFFCDECD@failed?5to?5create?5server?5icon?5te@ ; `string'
PUBLIC	??_C@_0BM@EHPHPBCH@oversized?5string?5in?5message@ ; `string'
PUBLIC	??_C@_0BM@CNFDKKBF@corrupted?5string?5in?5message@ ; `string'
PUBLIC	??_C@_0BF@MOFIPCJH@invalid?5message?5size@	; `string'
PUBLIC	??_C@_0N@EFGNBANH@ServerKicked@			; `string'
PUBLIC	??_C@_0BO@NHBJACHI@?$HL?$CFs?$HN?5kicked?5from?5server?3?5?$CF?4?$CKs@ ; `string'
PUBLIC	??_C@_0BI@GEKFNGMD@?$HL?$CFs?$HN?5kicked?5from?5server@ ; `string'
PUBLIC	??_C@_08ODGEKKOL@username@			; `string'
PUBLIC	??_C@_06BALNJMNP@player@			; `string'
PUBLIC	??_C@_0P@EBDHILEP@server?5listing@		; `string'
PUBLIC	??_C@_0CB@POMNIGMM@failed?5to?5allocate?5memory?5for?5?$CF@ ; `string'
PUBLIC	??_C@_04MEMAJGDJ@name@				; `string'
PUBLIC	??_C@_04NIDJFNBE@info@				; `string'
PUBLIC	??_C@_04GMGOKAFF@mode@				; `string'
PUBLIC	??_C@_04DMJJIPAH@icon@				; `string'
PUBLIC	??_C@_07BCGOFIOM@players@			; `string'
PUBLIC	??_C@_0M@GDELCODP@max_players@			; `string'
PUBLIC	??_C@_0O@JOKMOGLI@ServerListing@		; `string'
PUBLIC	??_C@_0BN@FHLJLGIA@file?5download?5was?5unexpected@ ; `string'
PUBLIC	??_C@_0BC@MELHMHGK@ServerDownloading@		; `string'
PUBLIC	??_C@_0BO@FCKNCPCM@?$HL?$CFs?$HN?5downloading?5client?5files@ ; `string'
PUBLIC	??_C@_0BP@LIEGNMJP@path?5of?5client?5file?5is?5too?5big@ ; `string'
PUBLIC	??_C@_0CD@IPEELMJM@_derpy_script_loader?1cache?1serv@ ; `string'
PUBLIC	??_C@_0CH@KJHPDAIL@attempted?5to?5download?5unsafe?5fi@ ; `string'
PUBLIC	??_C@_0CG@KDLKFPME@failed?5to?5create?5server?5cache?5f@ ; `string'
PUBLIC	??_C@_0CG@KNBLPPEN@failed?5to?5create?5server?5file?5?$CI?$CF@ ; `string'
PUBLIC	??_C@_0BL@CFJJLLAK@file?5append?5was?5unexpected@ ; `string'
PUBLIC	??_C@_0CG@HKPJECGJ@failed?5to?5write?5file?5being?5down@ ; `string'
PUBLIC	??_C@_0BL@OAGLBGMJ@file?5finish?5was?5unexpected@ ; `string'
PUBLIC	??_C@_0BP@LJHBCCFG@restart?5message?5was?5unexpected@ ; `string'
PUBLIC	??_C@_0CI@NKMDLAJI@network?5script?5collection?5limit@ ; `string'
PUBLIC	??_C@_0BM@PNOGAJLG@play?5message?5was?5unexpected@ ; `string'
PUBLIC	??_C@_0BF@DPEDIJIA@network?5scripts?5info@	; `string'
PUBLIC	??_C@_0BN@GOFJFOEC@unfinished?5string?5in?5message@ ; `string'
PUBLIC	??_C@_0BH@DCHKPKAN@active?5network?5scripts@	; `string'
PUBLIC	??_C@_0BM@PEAAIBA@?$HL?$CFs?$HN?5stopping?5local?5scripts@ ; `string'
PUBLIC	??_C@_0CA@HAMHADLB@unexpected?5network?5script?5event@ ; `string'
PUBLIC	??_C@_0CI@CLFGGBLN@unexpected?5network?5script?5event@ ; `string'
PUBLIC	??_C@_0CH@KPMAIPIB@corrupted?5network?5script?5event?5@ ; `string'
PUBLIC	??_C@_01EFFIKLCJ@n@				; `string'
PUBLIC	??_C@_0BM@HKPGLEKG@failed?5to?5run?5network?5event@ ; `string'
PUBLIC	??_C@_0BN@OEPGCGAI@unexpected?5heartbeat?5message@ ; `string'
PUBLIC	??_C@_0CC@LBOKKMBF@unexpected?5network?5script?5event@ ; `string'
PUBLIC	??_C@_0CK@LOODLIPM@unexpected?5network?5script?5event@ ; `string'
PUBLIC	??_C@_0CJ@IKKCIKOK@corrupted?5network?5script?5event?5@ ; `string'
PUBLIC	??_C@_0CK@FCKOLKB@undersized?5network?5script?5event@ ; `string'
PUBLIC	??_C@_0BO@MOELFNAE@unknown?5server?5message?5?$CI?$CFhhu?$CJ@ ; `string'
PUBLIC	??_C@_0CD@BGCLCIOP@?$HL?$CFs?$HN?5failed?5to?5process?5message?3@ ; `string'
PUBLIC	??_C@_0BO@BOOGHOOO@?$HL?$CFs?$HN?5starting?5network?5scripts@ ; `string'
PUBLIC	??_C@_0BA@EBAHGDPP@ServerConnected@		; `string'
PUBLIC	??_C@_0BD@LIILCIND@ServerDisconnected@		; `string'
PUBLIC	??_C@_0BO@EPNLKACD@?$HL?$CFs?$HN?5disconnected?5from?5server@ ; `string'
PUBLIC	??_C@_0CF@KLFCHNLK@?$HL?$CFs?3?$CFs?$HN?5bad?5server?5address?5?$CIwsa@ ; `string'
PUBLIC	??_C@_0CF@ECGFGBGD@?$HL?$CFs?3?$CFs?$HN?5no?5acceptable?5server?5ad@ ; `string'
PUBLIC	??_C@_0CM@DLJBEELL@?$HL?$CFs?3?$CFs?$HN?5failed?5to?5get?5server?5ad@ ; `string'
PUBLIC	??_C@_0CB@FKMFJFJI@?$HL?$CFs?$HN?5already?5connected?5to?5serve@ ; `string'
PUBLIC	??_C@_0BD@DKEJJKDL@connection?5address@		; `string'
PUBLIC	??_C@_0CG@CPOKKCGI@?$HL?$CFs?$HN?5failed?5to?5allocate?5memory?5@ ; `string'
PUBLIC	??_C@_0CO@KBMEAICP@?$HL?$CFs?$HN?5failed?5to?5create?5server?5so@ ; `string'
PUBLIC	??_C@_0DD@EHFKGIL@?$HL?$CFs?$HN?5failed?5to?5setup?5non?9blocki@ ; `string'
PUBLIC	??_C@_0DE@NHKOJNMJ@?$HL?$CFs?$HN?5failed?5to?5start?5connecting@ ; `string'
PUBLIC	??_C@_0CL@EECDKICG@?$HL?$CFs?3?$CFs?$HN?5failed?5to?5setup?5winsock@ ; `string'
PUBLIC	??_C@_0CM@JJLELEJN@?$HL?$CFs?3?$CFs?$HN?5bad?5winsock?5version?5?$CI2?5@ ; `string'
PUBLIC	??_C@_0BN@OFJKJMGI@?$HL?$CFs?3?$CFs?$HN?5server?5limit?5reached@ ; `string'
PUBLIC	??_C@_0BB@EALOCPOA@ServerConnecting@		; `string'
PUBLIC	??_C@_0CF@CFHGCEHM@?$HL?$CFs?$HN?5connected?5to?5server?5immedi@ ; `string'
PUBLIC	??_C@_0BK@NBHGOMHC@?$HL?$CFs?$HN?5connecting?5to?5server@ ; `string'
PUBLIC	??_C@_0CM@PDIFEKIP@?$HL?$CFs?3?$CFs?$HN?5already?5connected?5to?5an@ ; `string'
PUBLIC	??_C@_05NHJPDJPA@17017@				; `string'
PUBLIC	??_C@_01JLIPDDHJ@?3@				; `string'
PUBLIC	??_C@_0M@KFDGPHID@list_server@			; `string'
PUBLIC	??_C@_0CG@EEGJAODC@invalid?5server?5address?5or?5port?5@ ; `string'
PUBLIC	??_C@_0BL@GJDCMOGN@already?5connected?5to?5?$CFs?3?$CFs@ ; `string'
PUBLIC	??_C@_0BM@GLBGJJIJ@already?5connecting?5to?5?$CFs?3?$CFs@ ; `string'
PUBLIC	??_C@_0BI@BIOLCBOA@expected?5server?5address@	; `string'
PUBLIC	??_C@_0CE@DPBICNEM@cannot?5connect?5while?5game?5is?5pa@ ; `string'
PUBLIC	??_C@_0BF@JFINOPEK@CONNECTING?5TO?5SERVER@	; `string'
PUBLIC	??_C@_0BO@PLBOIBD@Loading?5server?5information?4?4?4@ ; `string'
PUBLIC	??_C@_0P@JEBEFBAP@Unknown?5Server@		; `string'
PUBLIC	??_C@_0DE@HPNLNDNB@An?5error?5occurred?5while?5getting@ ; `string'
PUBLIC	??_C@_0BA@CHAIAONA@Unlisted?5Server@		; `string'
PUBLIC	??_C@_0CO@OOBBEHPP@This?5server?5is?5not?5listed?5in?5yo@ ; `string'
PUBLIC	??_C@_07FJPHLACI@Connect@			; `string'
PUBLIC	??_C@_05CCMOGDN@?$CFs?3?$CFs@			; `string'
PUBLIC	??_C@_06FMBNCPDL@Cancel@			; `string'
PUBLIC	??_C@_02JJNJIDOO@F2@				; `string'
PUBLIC	??_C@_02LCPENACN@F1@				; `string'
PUBLIC	??_C@_0N@NNBMJJDO@Gamemode?3?5?$CFs@		; `string'
PUBLIC	??_C@_0BB@JLNCCENH@Players?3?5?$CFu?5?1?5?$CFu@	; `string'
PUBLIC	??_C@_0CE@GHMPKMMB@failed?5to?5render?5network?5prompt@ ; `string'
PUBLIC	??_C@_0BM@FPOLMKDF@not?5connected?5to?5any?5server@ ; `string'
PUBLIC	??_C@_0CL@FAAJKDJP@?$HL?$CFs?$HN?5failed?5to?5connect?5to?5serve@ ; `string'
PUBLIC	??_C@_0BJ@BDFKLDEL@?$HL?$CFs?$HN?5connected?5to?5server@ ; `string'
PUBLIC	??_C@_0BG@HEBCPLBE@?$HL?$CFs?$HN?5server?5timed?5out@ ; `string'
PUBLIC	??_C@_0CF@BCJHNBBE@?$HL?$CFs?$HN?5send?5buffer?5space?5was?5exha@ ; `string'
PUBLIC	??_C@_07IHKKODPD@Georgia@			; `string'
PUBLIC	??_C@_05MPFIAJAP@Arial@				; `string'
PUBLIC	??_C@_0DN@FNKHMOED@Usage?3?5connect?5?$DMip?$DO?$FL?3port?$FN?6Conn@ ; `string'
PUBLIC	??_C@_07KAIBNCHO@connect@			; `string'
PUBLIC	??_C@_0EF@GDLHBPOK@Usage?3?5disconnect?6Disconnect?5fr@ ; `string'
PUBLIC	??_C@_0L@KKPFIJOL@disconnect@			; `string'
PUBLIC	__real@3ae56042
PUBLIC	__real@3b656042
PUBLIC	__real@3ba3d70a
PUBLIC	__real@3bac0832
PUBLIC	__real@3bdd2f1a
PUBLIC	__real@3be56042
PUBLIC	__real@3c23d70a
PUBLIC	__real@3e28f5c3
PUBLIC	__real@3e800000
PUBLIC	__real@3e99999a
PUBLIC	__real@3eb33333
PUBLIC	__real@3f000000
PUBLIC	__real@3f333333
PUBLIC	__real@3ffafafb
PUBLIC	__xmm@41f00000000000000000000000000000
EXTRN	_fclose:PROC
EXTRN	_fopen:PROC
EXTRN	_fwrite:PROC
EXTRN	___stdio_common_vsprintf:PROC
EXTRN	_free:PROC
EXTRN	_malloc:PROC
EXTRN	__errno:PROC
EXTRN	_strerror:PROC
EXTRN	_strncat:PROC
EXTRN	_strncpy:PROC
EXTRN	__imp__closesocket@4:PROC
EXTRN	__imp__connect@12:PROC
EXTRN	__imp__ioctlsocket@12:PROC
EXTRN	__imp__socket@12:PROC
EXTRN	__imp__WSAStartup@8:PROC
EXTRN	__imp__WSACleanup@0:PROC
EXTRN	__imp__WSAGetLastError@0:PROC
EXTRN	__imp__WSAAddressToStringA@20:PROC
EXTRN	_lua_settop:PROC
EXTRN	_lua_remove:PROC
EXTRN	_lua_checkstack:PROC
EXTRN	_lua_isnumber:PROC
EXTRN	_lua_tonumber:PROC
EXTRN	_lua_tostring:PROC
EXTRN	_lua_touserdata:PROC
EXTRN	_lua_pushnumber:PROC
EXTRN	_lua_pushlstring:PROC
EXTRN	_lua_pushstring:PROC
EXTRN	_lua_pushcclosure:PROC
EXTRN	_lua_pushlightuserdata:PROC
EXTRN	_lua_rawget:PROC
EXTRN	_lua_rawgeti:PROC
EXTRN	_lua_newtable:PROC
EXTRN	_lua_rawset:PROC
EXTRN	_lua_pcall:PROC
EXTRN	_luaL_ref:PROC
EXTRN	_luaL_unref:PROC
EXTRN	_luaL_getn:PROC
EXTRN	_getRenderErrorString:PROC
EXTRN	_getRenderAspect:PROC
EXTRN	_drawRenderRectangle:PROC
EXTRN	_drawRenderTextureUV:PROC
EXTRN	_drawRenderString:PROC
EXTRN	_createRenderFont:PROC
EXTRN	_destroyRenderFont:PROC
EXTRN	_isDslFileSafe:PROC
EXTRN	_checkDslPathExists:PROC
EXTRN	_createLuaTexture2:PROC
EXTRN	_unpackLuaTable:PROC
EXTRN	_getConfigStringArray:PROC
EXTRN	_checkNetworkExtension:PROC
EXTRN	_sendNetworkMessages:PROC
EXTRN	_recvNetworkMessages:PROC
EXTRN	_prepareScriptLoaderForServer:PROC
EXTRN	_refreshScriptLoaderServerScripts:PROC
EXTRN	_ensureScriptLoaderServerScripts:PROC
EXTRN	_restartScriptLoaderServerScript:PROC
EXTRN	_killScriptLoaderServerScripts:PROC
EXTRN	_addScriptEventCallback:PROC
EXTRN	_runLuaScriptEvent:PROC
EXTRN	_setScriptCommandEx:PROC
EXTRN	_printConsoleRaw:PROC
EXTRN	_printConsoleFormatted:PROC
EXTRN	__imp__getaddrinfo@16:PROC
EXTRN	__imp__freeaddrinfo@4:PROC
EXTRN	@__security_check_cookie@4:PROC
EXTRN	__ftoui3:PROC
EXTRN	_memcpy:PROC
EXTRN	_memset:PROC
EXTRN	___security_cookie:DWORD
EXTRN	__fltused:DWORD
_DATA	SEGMENT
COMM	?_OptionsStorage@?1??__local_stdio_printf_options@@9@9:QWORD							; `__local_stdio_printf_options'::`2'::_OptionsStorage
_DATA	ENDS
;	COMDAT __xmm@41f00000000000000000000000000000
CONST	SEGMENT
__xmm@41f00000000000000000000000000000 DB 00H, 00H, 00H, 00H, 00H, 00H, 00H
	DB	00H, 00H, 00H, 00H, 00H, 00H, 00H, 0f0H, 'A'
CONST	ENDS
;	COMDAT __real@3ffafafb
CONST	SEGMENT
__real@3ffafafb DD 03ffafafbr			; 1.96078
CONST	ENDS
;	COMDAT __real@3f333333
CONST	SEGMENT
__real@3f333333 DD 03f333333r			; 0.7
CONST	ENDS
;	COMDAT __real@3f000000
CONST	SEGMENT
__real@3f000000 DD 03f000000r			; 0.5
CONST	ENDS
;	COMDAT __real@3eb33333
CONST	SEGMENT
__real@3eb33333 DD 03eb33333r			; 0.35
CONST	ENDS
;	COMDAT __real@3e99999a
CONST	SEGMENT
__real@3e99999a DD 03e99999ar			; 0.3
CONST	ENDS
;	COMDAT __real@3e800000
CONST	SEGMENT
__real@3e800000 DD 03e800000r			; 0.25
CONST	ENDS
;	COMDAT __real@3e28f5c3
CONST	SEGMENT
__real@3e28f5c3 DD 03e28f5c3r			; 0.165
CONST	ENDS
;	COMDAT __real@3c23d70a
CONST	SEGMENT
__real@3c23d70a DD 03c23d70ar			; 0.01
CONST	ENDS
;	COMDAT __real@3be56042
CONST	SEGMENT
__real@3be56042 DD 03be56042r			; 0.007
CONST	ENDS
;	COMDAT __real@3bdd2f1a
CONST	SEGMENT
__real@3bdd2f1a DD 03bdd2f1ar			; 0.00675
CONST	ENDS
;	COMDAT __real@3bac0832
CONST	SEGMENT
__real@3bac0832 DD 03bac0832r			; 0.00525
CONST	ENDS
;	COMDAT __real@3ba3d70a
CONST	SEGMENT
__real@3ba3d70a DD 03ba3d70ar			; 0.005
CONST	ENDS
;	COMDAT __real@3b656042
CONST	SEGMENT
__real@3b656042 DD 03b656042r			; 0.0035
CONST	ENDS
;	COMDAT __real@3ae56042
CONST	SEGMENT
__real@3ae56042 DD 03ae56042r			; 0.00175
CONST	ENDS
;	COMDAT ??_C@_0L@KKPFIJOL@disconnect@
CONST	SEGMENT
??_C@_0L@KKPFIJOL@disconnect@ DB 'disconnect', 00H	; `string'
CONST	ENDS
;	COMDAT ??_C@_0EF@GDLHBPOK@Usage?3?5disconnect?6Disconnect?5fr@
CONST	SEGMENT
??_C@_0EF@GDLHBPOK@Usage?3?5disconnect?6Disconnect?5fr@ DB 'Usage: discon'
	DB	'nect', 0aH, 'Disconnect from the connected derpy_script_serve'
	DB	'r.', 00H					; `string'
CONST	ENDS
;	COMDAT ??_C@_07KAIBNCHO@connect@
CONST	SEGMENT
??_C@_07KAIBNCHO@connect@ DB 'connect', 00H		; `string'
CONST	ENDS
;	COMDAT ??_C@_0DN@FNKHMOED@Usage?3?5connect?5?$DMip?$DO?$FL?3port?$FN?6Conn@
CONST	SEGMENT
??_C@_0DN@FNKHMOED@Usage?3?5connect?5?$DMip?$DO?$FL?3port?$FN?6Conn@ DB 'U'
	DB	'sage: connect <ip>[:port]', 0aH, 'Connect to a derpy_script_s'
	DB	'erver.', 00H				; `string'
CONST	ENDS
;	COMDAT ??_C@_05MPFIAJAP@Arial@
CONST	SEGMENT
??_C@_05MPFIAJAP@Arial@ DB 'Arial', 00H			; `string'
CONST	ENDS
;	COMDAT ??_C@_07IHKKODPD@Georgia@
CONST	SEGMENT
??_C@_07IHKKODPD@Georgia@ DB 'Georgia', 00H		; `string'
CONST	ENDS
;	COMDAT ??_C@_0CF@BCJHNBBE@?$HL?$CFs?$HN?5send?5buffer?5space?5was?5exha@
CONST	SEGMENT
??_C@_0CF@BCJHNBBE@?$HL?$CFs?$HN?5send?5buffer?5space?5was?5exha@ DB '{%s'
	DB	'} send buffer space was exhausted', 00H	; `string'
CONST	ENDS
;	COMDAT ??_C@_0BG@HEBCPLBE@?$HL?$CFs?$HN?5server?5timed?5out@
CONST	SEGMENT
??_C@_0BG@HEBCPLBE@?$HL?$CFs?$HN?5server?5timed?5out@ DB '{%s} server tim'
	DB	'ed out', 00H				; `string'
CONST	ENDS
;	COMDAT ??_C@_0BJ@BDFKLDEL@?$HL?$CFs?$HN?5connected?5to?5server@
CONST	SEGMENT
??_C@_0BJ@BDFKLDEL@?$HL?$CFs?$HN?5connected?5to?5server@ DB '{%s} connect'
	DB	'ed to server', 00H				; `string'
CONST	ENDS
;	COMDAT ??_C@_0CL@FAAJKDJP@?$HL?$CFs?$HN?5failed?5to?5connect?5to?5serve@
CONST	SEGMENT
??_C@_0CL@FAAJKDJP@?$HL?$CFs?$HN?5failed?5to?5connect?5to?5serve@ DB '{%s'
	DB	'} failed to connect to server (wsa: %d)', 00H ; `string'
CONST	ENDS
;	COMDAT ??_C@_0BM@FPOLMKDF@not?5connected?5to?5any?5server@
CONST	SEGMENT
??_C@_0BM@FPOLMKDF@not?5connected?5to?5any?5server@ DB 'not connected to '
	DB	'any server', 00H				; `string'
CONST	ENDS
;	COMDAT ??_C@_0CE@GHMPKMMB@failed?5to?5render?5network?5prompt@
CONST	SEGMENT
??_C@_0CE@GHMPKMMB@failed?5to?5render?5network?5prompt@ DB 'failed to ren'
	DB	'der network prompt: %s', 00H		; `string'
CONST	ENDS
;	COMDAT ??_C@_0BB@JLNCCENH@Players?3?5?$CFu?5?1?5?$CFu@
CONST	SEGMENT
??_C@_0BB@JLNCCENH@Players?3?5?$CFu?5?1?5?$CFu@ DB 'Players: %u / %u', 00H ; `string'
CONST	ENDS
;	COMDAT ??_C@_0N@NNBMJJDO@Gamemode?3?5?$CFs@
CONST	SEGMENT
??_C@_0N@NNBMJJDO@Gamemode?3?5?$CFs@ DB 'Gamemode: %s', 00H ; `string'
CONST	ENDS
;	COMDAT ??_C@_02LCPENACN@F1@
CONST	SEGMENT
??_C@_02LCPENACN@F1@ DB 'F1', 00H			; `string'
CONST	ENDS
;	COMDAT ??_C@_02JJNJIDOO@F2@
CONST	SEGMENT
??_C@_02JJNJIDOO@F2@ DB 'F2', 00H			; `string'
CONST	ENDS
;	COMDAT ??_C@_06FMBNCPDL@Cancel@
CONST	SEGMENT
??_C@_06FMBNCPDL@Cancel@ DB 'Cancel', 00H		; `string'
CONST	ENDS
;	COMDAT ??_C@_05CCMOGDN@?$CFs?3?$CFs@
CONST	SEGMENT
??_C@_05CCMOGDN@?$CFs?3?$CFs@ DB '%s:%s', 00H		; `string'
CONST	ENDS
;	COMDAT ??_C@_07FJPHLACI@Connect@
CONST	SEGMENT
??_C@_07FJPHLACI@Connect@ DB 'Connect', 00H		; `string'
CONST	ENDS
;	COMDAT ??_C@_0CO@OOBBEHPP@This?5server?5is?5not?5listed?5in?5yo@
CONST	SEGMENT
??_C@_0CO@OOBBEHPP@This?5server?5is?5not?5listed?5in?5yo@ DB 'This server'
	DB	' is not listed in your DSL config.', 00H	; `string'
CONST	ENDS
;	COMDAT ??_C@_0BA@CHAIAONA@Unlisted?5Server@
CONST	SEGMENT
??_C@_0BA@CHAIAONA@Unlisted?5Server@ DB 'Unlisted Server', 00H ; `string'
CONST	ENDS
;	COMDAT ??_C@_0DE@HPNLNDNB@An?5error?5occurred?5while?5getting@
CONST	SEGMENT
??_C@_0DE@HPNLNDNB@An?5error?5occurred?5while?5getting@ DB 'An error occu'
	DB	'rred while getting server information.', 00H ; `string'
CONST	ENDS
;	COMDAT ??_C@_0P@JEBEFBAP@Unknown?5Server@
CONST	SEGMENT
??_C@_0P@JEBEFBAP@Unknown?5Server@ DB 'Unknown Server', 00H ; `string'
CONST	ENDS
;	COMDAT ??_C@_0BO@PLBOIBD@Loading?5server?5information?4?4?4@
CONST	SEGMENT
??_C@_0BO@PLBOIBD@Loading?5server?5information?4?4?4@ DB 'Loading server '
	DB	'information...', 00H			; `string'
CONST	ENDS
;	COMDAT ??_C@_0BF@JFINOPEK@CONNECTING?5TO?5SERVER@
CONST	SEGMENT
??_C@_0BF@JFINOPEK@CONNECTING?5TO?5SERVER@ DB 'CONNECTING TO SERVER', 00H ; `string'
CONST	ENDS
;	COMDAT ??_C@_0CE@DPBICNEM@cannot?5connect?5while?5game?5is?5pa@
CONST	SEGMENT
??_C@_0CE@DPBICNEM@cannot?5connect?5while?5game?5is?5pa@ DB 'cannot conne'
	DB	'ct while game is paused', 00H		; `string'
CONST	ENDS
;	COMDAT ??_C@_0BI@BIOLCBOA@expected?5server?5address@
CONST	SEGMENT
??_C@_0BI@BIOLCBOA@expected?5server?5address@ DB 'expected server address'
	DB	00H						; `string'
CONST	ENDS
;	COMDAT ??_C@_0BM@GLBGJJIJ@already?5connecting?5to?5?$CFs?3?$CFs@
CONST	SEGMENT
??_C@_0BM@GLBGJJIJ@already?5connecting?5to?5?$CFs?3?$CFs@ DB 'already con'
	DB	'necting to %s:%s', 00H			; `string'
CONST	ENDS
;	COMDAT ??_C@_0BL@GJDCMOGN@already?5connected?5to?5?$CFs?3?$CFs@
CONST	SEGMENT
??_C@_0BL@GJDCMOGN@already?5connected?5to?5?$CFs?3?$CFs@ DB 'already conn'
	DB	'ected to %s:%s', 00H			; `string'
CONST	ENDS
;	COMDAT ??_C@_0CG@EEGJAODC@invalid?5server?5address?5or?5port?5@
CONST	SEGMENT
??_C@_0CG@EEGJAODC@invalid?5server?5address?5or?5port?5@ DB 'invalid serv'
	DB	'er address or port number', 00H		; `string'
CONST	ENDS
;	COMDAT ??_C@_0M@KFDGPHID@list_server@
CONST	SEGMENT
??_C@_0M@KFDGPHID@list_server@ DB 'list_server', 00H	; `string'
CONST	ENDS
;	COMDAT ??_C@_01JLIPDDHJ@?3@
CONST	SEGMENT
??_C@_01JLIPDDHJ@?3@ DB ':', 00H			; `string'
CONST	ENDS
;	COMDAT ??_C@_05NHJPDJPA@17017@
CONST	SEGMENT
??_C@_05NHJPDJPA@17017@ DB '17017', 00H			; `string'
CONST	ENDS
;	COMDAT ??_C@_0CM@PDIFEKIP@?$HL?$CFs?3?$CFs?$HN?5already?5connected?5to?5an@
CONST	SEGMENT
??_C@_0CM@PDIFEKIP@?$HL?$CFs?3?$CFs?$HN?5already?5connected?5to?5an@ DB '{'
	DB	'%s:%s} already connected to another server', 00H ; `string'
CONST	ENDS
;	COMDAT ??_C@_0BK@NBHGOMHC@?$HL?$CFs?$HN?5connecting?5to?5server@
CONST	SEGMENT
??_C@_0BK@NBHGOMHC@?$HL?$CFs?$HN?5connecting?5to?5server@ DB '{%s} connec'
	DB	'ting to server', 00H			; `string'
CONST	ENDS
;	COMDAT ??_C@_0CF@CFHGCEHM@?$HL?$CFs?$HN?5connected?5to?5server?5immedi@
CONST	SEGMENT
??_C@_0CF@CFHGCEHM@?$HL?$CFs?$HN?5connected?5to?5server?5immedi@ DB '{%s}'
	DB	' connected to server immediately', 00H	; `string'
CONST	ENDS
;	COMDAT ??_C@_0BB@EALOCPOA@ServerConnecting@
CONST	SEGMENT
??_C@_0BB@EALOCPOA@ServerConnecting@ DB 'ServerConnecting', 00H ; `string'
CONST	ENDS
;	COMDAT ??_C@_0BN@OFJKJMGI@?$HL?$CFs?3?$CFs?$HN?5server?5limit?5reached@
CONST	SEGMENT
??_C@_0BN@OFJKJMGI@?$HL?$CFs?3?$CFs?$HN?5server?5limit?5reached@ DB '{%s:'
	DB	'%s} server limit reached', 00H		; `string'
CONST	ENDS
;	COMDAT ??_C@_0CM@JJLELEJN@?$HL?$CFs?3?$CFs?$HN?5bad?5winsock?5version?5?$CI2?5@
CONST	SEGMENT
??_C@_0CM@JJLELEJN@?$HL?$CFs?3?$CFs?$HN?5bad?5winsock?5version?5?$CI2?5@ DB '{'
	DB	'%s:%s} bad winsock version (2 is required)', 00H ; `string'
CONST	ENDS
;	COMDAT ??_C@_0CL@EECDKICG@?$HL?$CFs?3?$CFs?$HN?5failed?5to?5setup?5winsock@
CONST	SEGMENT
??_C@_0CL@EECDKICG@?$HL?$CFs?3?$CFs?$HN?5failed?5to?5setup?5winsock@ DB '{'
	DB	'%s:%s} failed to setup winsock2 (wsa: %d)', 00H ; `string'
CONST	ENDS
;	COMDAT ??_C@_0DE@NHKOJNMJ@?$HL?$CFs?$HN?5failed?5to?5start?5connecting@
CONST	SEGMENT
??_C@_0DE@NHKOJNMJ@?$HL?$CFs?$HN?5failed?5to?5start?5connecting@ DB '{%s}'
	DB	' failed to start connecting to server (wsa: %d)', 00H ; `string'
CONST	ENDS
;	COMDAT ??_C@_0DD@EHFKGIL@?$HL?$CFs?$HN?5failed?5to?5setup?5non?9blocki@
CONST	SEGMENT
??_C@_0DD@EHFKGIL@?$HL?$CFs?$HN?5failed?5to?5setup?5non?9blocki@ DB '{%s}'
	DB	' failed to setup non-blocking socket (wsa: %d)', 00H ; `string'
CONST	ENDS
;	COMDAT ??_C@_0CO@KBMEAICP@?$HL?$CFs?$HN?5failed?5to?5create?5server?5so@
CONST	SEGMENT
??_C@_0CO@KBMEAICP@?$HL?$CFs?$HN?5failed?5to?5create?5server?5so@ DB '{%s'
	DB	'} failed to create server socket (wsa: %d)', 00H ; `string'
CONST	ENDS
;	COMDAT ??_C@_0CG@CPOKKCGI@?$HL?$CFs?$HN?5failed?5to?5allocate?5memory?5@
CONST	SEGMENT
??_C@_0CG@CPOKKCGI@?$HL?$CFs?$HN?5failed?5to?5allocate?5memory?5@ DB '{%s'
	DB	'} failed to allocate memory for %s', 00H	; `string'
CONST	ENDS
;	COMDAT ??_C@_0BD@DKEJJKDL@connection?5address@
CONST	SEGMENT
??_C@_0BD@DKEJJKDL@connection?5address@ DB 'connection address', 00H ; `string'
CONST	ENDS
;	COMDAT ??_C@_0CB@FKMFJFJI@?$HL?$CFs?$HN?5already?5connected?5to?5serve@
CONST	SEGMENT
??_C@_0CB@FKMFJFJI@?$HL?$CFs?$HN?5already?5connected?5to?5serve@ DB '{%s}'
	DB	' already connected to server', 00H		; `string'
CONST	ENDS
;	COMDAT ??_C@_0CM@DLJBEELL@?$HL?$CFs?3?$CFs?$HN?5failed?5to?5get?5server?5ad@
CONST	SEGMENT
??_C@_0CM@DLJBEELL@?$HL?$CFs?3?$CFs?$HN?5failed?5to?5get?5server?5ad@ DB '{'
	DB	'%s:%s} failed to get server address string', 00H ; `string'
CONST	ENDS
;	COMDAT ??_C@_0CF@ECGFGBGD@?$HL?$CFs?3?$CFs?$HN?5no?5acceptable?5server?5ad@
CONST	SEGMENT
??_C@_0CF@ECGFGBGD@?$HL?$CFs?3?$CFs?$HN?5no?5acceptable?5server?5ad@ DB '{'
	DB	'%s:%s} no acceptable server address', 00H	; `string'
CONST	ENDS
;	COMDAT ??_C@_0CF@KLFCHNLK@?$HL?$CFs?3?$CFs?$HN?5bad?5server?5address?5?$CIwsa@
CONST	SEGMENT
??_C@_0CF@KLFCHNLK@?$HL?$CFs?3?$CFs?$HN?5bad?5server?5address?5?$CIwsa@ DB '{'
	DB	'%s:%s} bad server address (wsa: %d)', 00H	; `string'
CONST	ENDS
;	COMDAT ??_C@_0BO@EPNLKACD@?$HL?$CFs?$HN?5disconnected?5from?5server@
CONST	SEGMENT
??_C@_0BO@EPNLKACD@?$HL?$CFs?$HN?5disconnected?5from?5server@ DB '{%s} di'
	DB	'sconnected from server', 00H		; `string'
CONST	ENDS
;	COMDAT ??_C@_0BD@LIILCIND@ServerDisconnected@
CONST	SEGMENT
??_C@_0BD@LIILCIND@ServerDisconnected@ DB 'ServerDisconnected', 00H ; `string'
CONST	ENDS
;	COMDAT ??_C@_0BA@EBAHGDPP@ServerConnected@
CONST	SEGMENT
??_C@_0BA@EBAHGDPP@ServerConnected@ DB 'ServerConnected', 00H ; `string'
CONST	ENDS
;	COMDAT ??_C@_0BO@BOOGHOOO@?$HL?$CFs?$HN?5starting?5network?5scripts@
CONST	SEGMENT
??_C@_0BO@BOOGHOOO@?$HL?$CFs?$HN?5starting?5network?5scripts@ DB '{%s} st'
	DB	'arting network scripts', 00H		; `string'
CONST	ENDS
;	COMDAT ??_C@_0CD@BGCLCIOP@?$HL?$CFs?$HN?5failed?5to?5process?5message?3@
CONST	SEGMENT
??_C@_0CD@BGCLCIOP@?$HL?$CFs?$HN?5failed?5to?5process?5message?3@ DB '{%s'
	DB	'} failed to process message: %s', 00H	; `string'
CONST	ENDS
;	COMDAT ??_C@_0BO@MOELFNAE@unknown?5server?5message?5?$CI?$CFhhu?$CJ@
CONST	SEGMENT
??_C@_0BO@MOELFNAE@unknown?5server?5message?5?$CI?$CFhhu?$CJ@ DB 'unknown'
	DB	' server message (%hhu)', 00H		; `string'
CONST	ENDS
;	COMDAT ??_C@_0CK@FCKOLKB@undersized?5network?5script?5event@
CONST	SEGMENT
??_C@_0CK@FCKOLKB@undersized?5network?5script?5event@ DB 'undersized netw'
	DB	'ork script event message 2', 00H		; `string'
CONST	ENDS
;	COMDAT ??_C@_0CJ@IKKCIKOK@corrupted?5network?5script?5event?5@
CONST	SEGMENT
??_C@_0CJ@IKKCIKOK@corrupted?5network?5script?5event?5@ DB 'corrupted net'
	DB	'work script event message 2', 00H		; `string'
CONST	ENDS
;	COMDAT ??_C@_0CK@LOODLIPM@unexpected?5network?5script?5event@
CONST	SEGMENT
??_C@_0CK@LOODLIPM@unexpected?5network?5script?5event@ DB 'unexpected net'
	DB	'work script event message 2', 00H		; `string'
CONST	ENDS
;	COMDAT ??_C@_0CC@LBOKKMBF@unexpected?5network?5script?5event@
CONST	SEGMENT
??_C@_0CC@LBOKKMBF@unexpected?5network?5script?5event@ DB 'unexpected net'
	DB	'work script event 2', 00H			; `string'
CONST	ENDS
;	COMDAT ??_C@_0BN@OEPGCGAI@unexpected?5heartbeat?5message@
CONST	SEGMENT
??_C@_0BN@OEPGCGAI@unexpected?5heartbeat?5message@ DB 'unexpected heartbe'
	DB	'at message', 00H				; `string'
CONST	ENDS
;	COMDAT ??_C@_0BM@HKPGLEKG@failed?5to?5run?5network?5event@
CONST	SEGMENT
??_C@_0BM@HKPGLEKG@failed?5to?5run?5network?5event@ DB 'failed to run net'
	DB	'work event', 00H				; `string'
CONST	ENDS
;	COMDAT ??_C@_01EFFIKLCJ@n@
CONST	SEGMENT
??_C@_01EFFIKLCJ@n@ DB 'n', 00H				; `string'
CONST	ENDS
;	COMDAT ??_C@_0CH@KPMAIPIB@corrupted?5network?5script?5event?5@
CONST	SEGMENT
??_C@_0CH@KPMAIPIB@corrupted?5network?5script?5event?5@ DB 'corrupted net'
	DB	'work script event message', 00H		; `string'
CONST	ENDS
;	COMDAT ??_C@_0CI@CLFGGBLN@unexpected?5network?5script?5event@
CONST	SEGMENT
??_C@_0CI@CLFGGBLN@unexpected?5network?5script?5event@ DB 'unexpected net'
	DB	'work script event message', 00H		; `string'
CONST	ENDS
;	COMDAT ??_C@_0CA@HAMHADLB@unexpected?5network?5script?5event@
CONST	SEGMENT
??_C@_0CA@HAMHADLB@unexpected?5network?5script?5event@ DB 'unexpected net'
	DB	'work script event', 00H			; `string'
CONST	ENDS
;	COMDAT ??_C@_0BM@PEAAIBA@?$HL?$CFs?$HN?5stopping?5local?5scripts@
CONST	SEGMENT
??_C@_0BM@PEAAIBA@?$HL?$CFs?$HN?5stopping?5local?5scripts@ DB '{%s} stopp'
	DB	'ing local scripts', 00H			; `string'
CONST	ENDS
;	COMDAT ??_C@_0BH@DCHKPKAN@active?5network?5scripts@
CONST	SEGMENT
??_C@_0BH@DCHKPKAN@active?5network?5scripts@ DB 'active network scripts', 00H ; `string'
CONST	ENDS
;	COMDAT ??_C@_0BN@GOFJFOEC@unfinished?5string?5in?5message@
CONST	SEGMENT
??_C@_0BN@GOFJFOEC@unfinished?5string?5in?5message@ DB 'unfinished string'
	DB	' in message', 00H				; `string'
CONST	ENDS
;	COMDAT ??_C@_0BF@DPEDIJIA@network?5scripts?5info@
CONST	SEGMENT
??_C@_0BF@DPEDIJIA@network?5scripts?5info@ DB 'network scripts info', 00H ; `string'
CONST	ENDS
;	COMDAT ??_C@_0BM@PNOGAJLG@play?5message?5was?5unexpected@
CONST	SEGMENT
??_C@_0BM@PNOGAJLG@play?5message?5was?5unexpected@ DB 'play message was u'
	DB	'nexpected', 00H				; `string'
CONST	ENDS
;	COMDAT ??_C@_0CI@NKMDLAJI@network?5script?5collection?5limit@
CONST	SEGMENT
??_C@_0CI@NKMDLAJI@network?5script?5collection?5limit@ DB 'network script'
	DB	' collection limit reached', 00H		; `string'
CONST	ENDS
;	COMDAT ??_C@_0BP@LJHBCCFG@restart?5message?5was?5unexpected@
CONST	SEGMENT
??_C@_0BP@LJHBCCFG@restart?5message?5was?5unexpected@ DB 'restart message'
	DB	' was unexpected', 00H			; `string'
CONST	ENDS
;	COMDAT ??_C@_0BL@OAGLBGMJ@file?5finish?5was?5unexpected@
CONST	SEGMENT
??_C@_0BL@OAGLBGMJ@file?5finish?5was?5unexpected@ DB 'file finish was une'
	DB	'xpected', 00H				; `string'
CONST	ENDS
;	COMDAT ??_C@_0CG@HKPJECGJ@failed?5to?5write?5file?5being?5down@
CONST	SEGMENT
??_C@_0CG@HKPJECGJ@failed?5to?5write?5file?5being?5down@ DB 'failed to wr'
	DB	'ite file being downloaded', 00H		; `string'
CONST	ENDS
;	COMDAT ??_C@_0BL@CFJJLLAK@file?5append?5was?5unexpected@
CONST	SEGMENT
??_C@_0BL@CFJJLLAK@file?5append?5was?5unexpected@ DB 'file append was une'
	DB	'xpected', 00H				; `string'
CONST	ENDS
;	COMDAT ??_C@_0CG@KNBLPPEN@failed?5to?5create?5server?5file?5?$CI?$CF@
CONST	SEGMENT
??_C@_0CG@KNBLPPEN@failed?5to?5create?5server?5file?5?$CI?$CF@ DB 'failed'
	DB	' to create server file (%s: %s)', 00H	; `string'
CONST	ENDS
;	COMDAT ??_C@_0CG@KDLKFPME@failed?5to?5create?5server?5cache?5f@
CONST	SEGMENT
??_C@_0CG@KDLKFPME@failed?5to?5create?5server?5cache?5f@ DB 'failed to cr'
	DB	'eate server cache folders', 00H		; `string'
CONST	ENDS
;	COMDAT ??_C@_0CH@KJHPDAIL@attempted?5to?5download?5unsafe?5fi@
CONST	SEGMENT
??_C@_0CH@KJHPDAIL@attempted?5to?5download?5unsafe?5fi@ DB 'attempted to '
	DB	'download unsafe file (%s)', 00H		; `string'
CONST	ENDS
;	COMDAT ??_C@_0CD@IPEELMJM@_derpy_script_loader?1cache?1serv@
CONST	SEGMENT
??_C@_0CD@IPEELMJM@_derpy_script_loader?1cache?1serv@ DB '_derpy_script_l'
	DB	'oader/cache/server/', 00H			; `string'
CONST	ENDS
;	COMDAT ??_C@_0BP@LIEGNMJP@path?5of?5client?5file?5is?5too?5big@
CONST	SEGMENT
??_C@_0BP@LIEGNMJP@path?5of?5client?5file?5is?5too?5big@ DB 'path of clie'
	DB	'nt file is too big', 00H			; `string'
CONST	ENDS
;	COMDAT ??_C@_0BO@FCKNCPCM@?$HL?$CFs?$HN?5downloading?5client?5files@
CONST	SEGMENT
??_C@_0BO@FCKNCPCM@?$HL?$CFs?$HN?5downloading?5client?5files@ DB '{%s} do'
	DB	'wnloading client files', 00H		; `string'
CONST	ENDS
;	COMDAT ??_C@_0BC@MELHMHGK@ServerDownloading@
CONST	SEGMENT
??_C@_0BC@MELHMHGK@ServerDownloading@ DB 'ServerDownloading', 00H ; `string'
CONST	ENDS
;	COMDAT ??_C@_0BN@FHLJLGIA@file?5download?5was?5unexpected@
CONST	SEGMENT
??_C@_0BN@FHLJLGIA@file?5download?5was?5unexpected@ DB 'file download was'
	DB	' unexpected', 00H				; `string'
CONST	ENDS
;	COMDAT ??_C@_0O@JOKMOGLI@ServerListing@
CONST	SEGMENT
??_C@_0O@JOKMOGLI@ServerListing@ DB 'ServerListing', 00H ; `string'
CONST	ENDS
;	COMDAT ??_C@_0M@GDELCODP@max_players@
CONST	SEGMENT
??_C@_0M@GDELCODP@max_players@ DB 'max_players', 00H	; `string'
CONST	ENDS
;	COMDAT ??_C@_07BCGOFIOM@players@
CONST	SEGMENT
??_C@_07BCGOFIOM@players@ DB 'players', 00H		; `string'
CONST	ENDS
;	COMDAT ??_C@_04DMJJIPAH@icon@
CONST	SEGMENT
??_C@_04DMJJIPAH@icon@ DB 'icon', 00H			; `string'
CONST	ENDS
;	COMDAT ??_C@_04GMGOKAFF@mode@
CONST	SEGMENT
??_C@_04GMGOKAFF@mode@ DB 'mode', 00H			; `string'
CONST	ENDS
;	COMDAT ??_C@_04NIDJFNBE@info@
CONST	SEGMENT
??_C@_04NIDJFNBE@info@ DB 'info', 00H			; `string'
CONST	ENDS
;	COMDAT ??_C@_04MEMAJGDJ@name@
CONST	SEGMENT
??_C@_04MEMAJGDJ@name@ DB 'name', 00H			; `string'
CONST	ENDS
;	COMDAT ??_C@_0CB@POMNIGMM@failed?5to?5allocate?5memory?5for?5?$CF@
CONST	SEGMENT
??_C@_0CB@POMNIGMM@failed?5to?5allocate?5memory?5for?5?$CF@ DB 'failed to'
	DB	' allocate memory for %s', 00H		; `string'
CONST	ENDS
;	COMDAT ??_C@_0P@EBDHILEP@server?5listing@
CONST	SEGMENT
??_C@_0P@EBDHILEP@server?5listing@ DB 'server listing', 00H ; `string'
CONST	ENDS
;	COMDAT ??_C@_06BALNJMNP@player@
CONST	SEGMENT
??_C@_06BALNJMNP@player@ DB 'player', 00H		; `string'
CONST	ENDS
;	COMDAT ??_C@_08ODGEKKOL@username@
CONST	SEGMENT
??_C@_08ODGEKKOL@username@ DB 'username', 00H		; `string'
CONST	ENDS
;	COMDAT ??_C@_0BI@GEKFNGMD@?$HL?$CFs?$HN?5kicked?5from?5server@
CONST	SEGMENT
??_C@_0BI@GEKFNGMD@?$HL?$CFs?$HN?5kicked?5from?5server@ DB '{%s} kicked f'
	DB	'rom server', 00H				; `string'
CONST	ENDS
;	COMDAT ??_C@_0BO@NHBJACHI@?$HL?$CFs?$HN?5kicked?5from?5server?3?5?$CF?4?$CKs@
CONST	SEGMENT
??_C@_0BO@NHBJACHI@?$HL?$CFs?$HN?5kicked?5from?5server?3?5?$CF?4?$CKs@ DB '{'
	DB	'%s} kicked from server: %.*s', 00H		; `string'
CONST	ENDS
;	COMDAT ??_C@_0N@EFGNBANH@ServerKicked@
CONST	SEGMENT
??_C@_0N@EFGNBANH@ServerKicked@ DB 'ServerKicked', 00H	; `string'
CONST	ENDS
;	COMDAT ??_C@_0BF@MOFIPCJH@invalid?5message?5size@
CONST	SEGMENT
??_C@_0BF@MOFIPCJH@invalid?5message?5size@ DB 'invalid message size', 00H ; `string'
CONST	ENDS
;	COMDAT ??_C@_0BM@CNFDKKBF@corrupted?5string?5in?5message@
CONST	SEGMENT
??_C@_0BM@CNFDKKBF@corrupted?5string?5in?5message@ DB 'corrupted string i'
	DB	'n message', 00H				; `string'
CONST	ENDS
;	COMDAT ??_C@_0BM@EHPHPBCH@oversized?5string?5in?5message@
CONST	SEGMENT
??_C@_0BM@EHPHPBCH@oversized?5string?5in?5message@ DB 'oversized string i'
	DB	'n message', 00H				; `string'
CONST	ENDS
;	COMDAT ??_C@_0CK@NFFCDECD@failed?5to?5create?5server?5icon?5te@
CONST	SEGMENT
??_C@_0CK@NFFCDECD@failed?5to?5create?5server?5icon?5te@ DB 'failed to cr'
	DB	'eate server icon texture (%s)', 00H		; `string'
CONST	ENDS
;	COMDAT ??_C@_0BK@FGOEOOHP@an?5unknown?5error?5occurred@
CONST	SEGMENT
??_C@_0BK@FGOEOOHP@an?5unknown?5error?5occurred@ DB 'an unknown error occ'
	DB	'urred', 00H					; `string'
CONST	ENDS
;	COMDAT ??_C@_0CB@DIMMDOBO@failed?5to?5write?5server?5icon?5fil@
CONST	SEGMENT
??_C@_0CB@DIMMDOBO@failed?5to?5write?5server?5icon?5fil@ DB 'failed to wr'
	DB	'ite server icon file', 00H			; `string'
CONST	ENDS
;	COMDAT ??_C@_0CL@BBKGFAME@failed?5to?5create?5server?5icon?5fi@
CONST	SEGMENT
??_C@_0CL@BBKGFAME@failed?5to?5create?5server?5icon?5fi@ DB 'failed to cr'
	DB	'eate server icon file (%s: %s)', 00H	; `string'
CONST	ENDS
;	COMDAT ??_C@_02GMLFBBN@wb@
CONST	SEGMENT
??_C@_02GMLFBBN@wb@ DB 'wb', 00H			; `string'
CONST	ENDS
;	COMDAT ??_C@_0CH@EMLNOIE@failed?5to?5create?5cache?5for?5serv@
CONST	SEGMENT
??_C@_0CH@EMLNOIE@failed?5to?5create?5cache?5for?5serv@ DB 'failed to cre'
	DB	'ate cache for server icon', 00H		; `string'
CONST	ENDS
;	COMDAT ??_C@_0M@JMBIONAO@server_icon@
CONST	SEGMENT
??_C@_0M@JMBIONAO@server_icon@ DB 'server_icon', 00H	; `string'
CONST	ENDS
;	COMDAT ??_C@_0CG@PDGCLHEA@_derpy_script_loader?1cache?1serv@
CONST	SEGMENT
??_C@_0CG@PDGCLHEA@_derpy_script_loader?1cache?1serv@ DB '_derpy_script_l'
	DB	'oader/cache/server.png', 00H		; `string'
CONST	ENDS
; Function compile flags: /Ogtpy
;	COMDAT _updateConnecting
_TEXT	SEGMENT
_dsl$ = 8						; size = 4
_svs$ = 12						; size = 4
_updateConnecting PROC					; COMDAT
; File C:\Program Files (x86)\Steam\steamapps\common\Bully Scholarship Edition\_derpy_script_loader\src\client\client.c
; Line 1138
	push	edi
; Line 1142
	mov	edi, DWORD PTR _svs$[esp]
	push	DWORD PTR [edi+88]
	push	DWORD PTR [edi+84]
	push	DWORD PTR [edi+8]
	call	DWORD PTR __imp__connect@12
	test	eax, eax
	je	SHORT $LN5@updateConn
	call	DWORD PTR __imp__WSAGetLastError@0
	cmp	eax, 10037				; 00002735H
	je	SHORT $LN2@updateConn
	cmp	eax, 10022				; 00002726H
	je	SHORT $LN2@updateConn
	cmp	eax, 10035				; 00002733H
	je	SHORT $LN2@updateConn
	cmp	eax, 10056				; 00002748H
	je	SHORT $LN2@updateConn
; Line 1143
	push	esi
	mov	esi, DWORD PTR _dsl$[esp+4]
	push	eax
	lea	eax, DWORD PTR [edi+16]
	push	eax
	push	OFFSET ??_C@_0CL@FAAJKDJP@?$HL?$CFs?$HN?5failed?5to?5connect?5to?5serve@
	push	1
	push	DWORD PTR [esi+24]
	call	_printConsoleFormatted
; Line 1144
	push	1
	push	edi
	push	esi
	call	_disconnectFromServer
	add	esp, 32					; 00000020H
; Line 1151
	xor	eax, eax
	pop	esi
	pop	edi
; Line 1152
	ret	0
$LN2@updateConn:
; Line 1145
	test	eax, eax
	je	SHORT $LN5@updateConn
	cmp	eax, 10056				; 00002748H
	je	SHORT $LN5@updateConn
; Line 1151
	xor	eax, eax
	pop	edi
; Line 1152
	ret	0
$LN5@updateConn:
; Line 1146
	mov	edx, DWORD PTR [edi]
	mov	eax, edx
	not	eax
	test	al, 32					; 00000020H
	je	SHORT $LN6@updateConn
; Line 1147
	lea	eax, DWORD PTR [edi+16]
	push	eax
	mov	eax, DWORD PTR _dsl$[esp+4]
	push	OFFSET ??_C@_0BJ@BDFKLDEL@?$HL?$CFs?$HN?5connected?5to?5server@
	push	0
	push	DWORD PTR [eax+24]
	call	_printConsoleFormatted
	mov	edx, DWORD PTR [edi]
	add	esp, 16					; 00000010H
$LN6@updateConn:
; Line 1148
	mov	ecx, DWORD PTR ds:12691892
; Line 1149
	or	edx, 4
	mov	DWORD PTR [edi+12], ecx
	mov	eax, edx
	mov	DWORD PTR [edi], edx
	pop	edi
; Line 1152
	ret	0
_updateConnecting ENDP
_TEXT	ENDS
; Function compile flags: /Ogtpy
;	COMDAT _serverDisconnect
_TEXT	SEGMENT
_dsl$ = 8						; size = 4
_argc$ = 12						; size = 4
_argv$ = 16						; size = 4
_serverDisconnect PROC					; COMDAT
; File C:\Program Files (x86)\Steam\steamapps\common\Bully Scholarship Edition\_derpy_script_loader\src\client\client.c
; Line 1101
	push	esi
; Line 666
	mov	esi, DWORD PTR _dsl$[esp]
	mov	ecx, DWORD PTR [esi+40]
; Line 667
	lea	eax, DWORD PTR [ecx+33956]
	lea	edx, DWORD PTR [ecx+25200980]
	cmp	eax, edx
	jae	SHORT $LN16@serverDisc
$LL7@serverDisc:
; Line 668
	cmp	DWORD PTR [eax+8], -1
	je	SHORT $LN5@serverDisc
	mov	ecx, DWORD PTR [eax]
	not	ecx
	test	cl, 2
	jne	SHORT $LN11@serverDisc
$LN5@serverDisc:
; Line 667
	add	eax, 2097252				; 00200064H
	cmp	eax, edx
	jb	SHORT $LL7@serverDisc
$LN16@serverDisc:
; Line 1103
	push	OFFSET ??_C@_0BM@FPOLMKDF@not?5connected?5to?5any?5server@
	push	1
	push	DWORD PTR [esi+24]
	call	_printConsoleFormatted
; Line 1104
	add	esp, 12					; 0000000cH
	pop	esi
	ret	0
$LN11@serverDisc:
; Line 669
	push	1
	push	eax
	push	esi
	call	_disconnectFromServer
; Line 1104
	add	esp, 12					; 0000000cH
	pop	esi
	ret	0
_serverDisconnect ENDP
_TEXT	ENDS
; Function compile flags: /Ogtpy
;	COMDAT _updatePromptInput
_TEXT	SEGMENT
_lua$ = 8						; size = 4
_dsl$ = 12						; size = 4
_key$ = 16						; size = 4
_updatePromptInput PROC					; COMDAT
; File C:\Program Files (x86)\Steam\steamapps\common\Bully Scholarship Edition\_derpy_script_loader\src\client\client.c
; Line 1074
	push	esi
	push	edi
; Line 1077
	mov	edi, DWORD PTR _dsl$[esp+4]
	mov	esi, DWORD PTR [edi+40]
; Line 1078
	mov	ecx, DWORD PTR [esi]
	mov	eax, ecx
	and	eax, 6
	cmp	al, 6
	jne	SHORT $LN6@updateProm
	mov	eax, DWORD PTR ds:12691892
	sub	eax, DWORD PTR [esi+140]
	cmp	eax, 500				; 000001f4H
	jb	SHORT $LN6@updateProm
; Line 1079
	mov	eax, DWORD PTR _key$[esp+4]
	cmp	eax, 59					; 0000003bH
	jne	SHORT $LN3@updateProm
; Line 1081
	push	0
	lea	eax, DWORD PTR [esi+132]
	and	ecx, -3					; fffffffdH
	push	eax
	lea	eax, DWORD PTR [esi+4]
	mov	DWORD PTR [esi], ecx
	push	eax
	push	esi
	push	edi
	call	_actuallyConnect
	add	esp, 20					; 00000014H
	test	eax, eax
	jne	SHORT $LN6@updateProm
; Line 1082
	lea	eax, DWORD PTR [esi+32932]
	push	eax
	push	1
	push	DWORD PTR [edi+24]
	call	_printConsoleRaw
	add	esp, 12					; 0000000cH
	pop	edi
; Line 1086
	pop	esi
	ret	0
$LN3@updateProm:
; Line 1083
	cmp	eax, 60					; 0000003cH
	jne	SHORT $LN6@updateProm
; Line 1084
	and	ecx, -3					; fffffffdH
	mov	DWORD PTR [esi], ecx
$LN6@updateProm:
; Line 1086
	pop	edi
	pop	esi
	ret	0
_updatePromptInput ENDP
_TEXT	ENDS
; Function compile flags: /Ogtpy
;	COMDAT _drawPrompt
_TEXT	SEGMENT
_w$1$ = -492						; size = 4
_pm$4$ = -492						; size = 4
tv1553 = -488						; size = 4
tv1509 = -488						; size = 4
_x$1$ = -484						; size = 4
tv1564 = -484						; size = 4
tv1444 = -484						; size = 4
_ar$1 = -484						; size = 4
tv1565 = -480						; size = 4
tv1531 = -480						; size = 4
tv1560 = -476						; size = 4
_pm$3$ = -472						; size = 4
_alpha$2$ = -468					; size = 4
_pm$6$ = -464						; size = 4
tv1579 = -464						; size = 4
_pm$5$ = -460						; size = 4
tv1566 = -460						; size = 4
_pm$2$ = -456						; size = 4
tv1578 = -452						; size = 4
_pm$1$ = -448						; size = 4
tv1572 = -444						; size = 4
tv1493 = -444						; size = 4
_y$1$ = -440						; size = 4
_h$1$ = -436						; size = 4
tv1520 = -432						; size = 4
_button$ = -428						; size = 48
_info$ = -380						; size = 48
_name$ = -332						; size = 48
_title$ = -284						; size = 48
_extra$ = -236						; size = 48
_ip$ = -188						; size = 48
_buffer$ = -140						; size = 134
__$ArrayPad$ = -4					; size = 4
_dsl$ = 8						; size = 4
_net$ = 12						; size = 4
_render$ = 16						; size = 4
_drawPrompt PROC					; COMDAT
; File C:\Program Files (x86)\Steam\steamapps\common\Bully Scholarship Edition\_derpy_script_loader\src\client\client.c
; Line 928
	sub	esp, 492				; 000001ecH
	mov	eax, DWORD PTR ___security_cookie
	xor	eax, esp
	mov	DWORD PTR __$ArrayPad$[esp+492], eax
; Line 943
	mov	eax, DWORD PTR ds:12691892
	push	ebx
	mov	ebx, DWORD PTR _net$[esp+492]
	push	ebp
	push	esi
	mov	esi, DWORD PTR _dsl$[esp+500]
	sub	eax, DWORD PTR [ebx+140]
	mov	ebp, DWORD PTR [ebx+152]
	push	edi
	mov	edi, DWORD PTR _render$[esp+504]
	movd	xmm0, eax
	cvtdq2pd xmm0, xmm0
	shr	eax, 31					; 0000001fH
	addsd	xmm0, QWORD PTR __xmm@41f00000000000000000000000000000[eax*8]
	cvtpd2ps xmm0, xmm0
	divss	xmm0, DWORD PTR __real@3ffafafb
	call	__ftoui3
; Line 911
	push	DWORD PTR [esi+12]
; Line 944
	mov	ecx, 255				; 000000ffH
	cmp	eax, ecx
	cmova	eax, ecx
; Line 946
	shl	eax, 24					; 00000018H
	mov	DWORD PTR _alpha$2$[esp+512], eax
; Line 911
	call	_getRenderAspect
; Line 922
	movss	xmm6, DWORD PTR __real@3f333333
	add	esp, 4
	movss	xmm1, DWORD PTR __real@3e28f5c3
	movss	xmm2, DWORD PTR __real@3be56042
	fstp	DWORD PTR _ar$1[esp+508]
	movss	xmm0, DWORD PTR _ar$1[esp+508]
	divss	xmm6, xmm0
; Line 950
	mov	esi, DWORD PTR _alpha$2$[esp+508]
	mov	eax, esi
	or	eax, 13158520				; 00c8c878H
	mov	DWORD PTR _title$[esp+512], OFFSET ??_C@_0BF@JFINOPEK@CONNECTING?5TO?5SERVER@
	mov	DWORD PTR _title$[esp+508], 41217	; 0000a101H
	mov	DWORD PTR _title$[esp+540], eax
; Line 951
	mov	DWORD PTR _title$[esp+528], 1022739087	; 3cf5c28fH
; Line 954
	mov	DWORD PTR _title$[esp+524], 1050874479	; 3ea3126fH
; Line 918
	movss	xmm4, DWORD PTR __real@3b656042
; Line 920
	movss	xmm3, DWORD PTR __real@3c23d70a
; Line 924
	movss	xmm5, DWORD PTR __real@3f000000
	movss	DWORD PTR _pm$5$[esp+508], xmm6
; Line 925
	movaps	xmm7, xmm5
	divss	xmm1, xmm0
	divss	xmm2, xmm0
	movss	DWORD PTR _pm$1$[esp+508], xmm1
	movss	DWORD PTR _pm$2$[esp+508], xmm2
	divss	xmm4, xmm0
	divss	xmm3, xmm0
	movss	DWORD PTR _pm$3$[esp+508], xmm4
	movaps	xmm0, xmm6
	movss	DWORD PTR _pm$4$[esp+508], xmm3
	subss	xmm0, xmm1
	movaps	xmm1, xmm6
	mulss	xmm1, xmm5
	subss	xmm0, xmm2
	subss	xmm7, xmm1
	movss	DWORD PTR tv1553[esp+508], xmm0
; Line 951
	movaps	xmm0, xmm6
; Line 925
	movss	DWORD PTR _pm$6$[esp+508], xmm7
; Line 951
	subss	xmm0, xmm2
	movss	DWORD PTR tv1444[esp+508], xmm0
	movaps	xmm0, xmm6
	subss	xmm0, xmm2
; Line 952
	movss	DWORD PTR _title$[esp+532], xmm0
; Line 953
	movaps	xmm0, xmm7
	addss	xmm0, xmm1
	movss	DWORD PTR _title$[esp+520], xmm0
; Line 955
	test	ebp, ebp
	je	SHORT $LN9@drawPrompt
; Line 957
	lea	eax, DWORD PTR [ebp+51]
	mov	DWORD PTR _name$[esp+512], ebp
	mov	DWORD PTR _info$[esp+512], eax
	jmp	SHORT $LN14@drawPrompt
$LN9@drawPrompt:
; Line 958
	mov	eax, DWORD PTR [ebx]
	test	al, 16					; 00000010H
	je	SHORT $LN11@drawPrompt
; Line 959
	mov	DWORD PTR _name$[esp+512], OFFSET ??_C@_0BO@PLBOIBD@Loading?5server?5information?4?4?4@
; Line 960
	mov	DWORD PTR _info$[esp+512], 0
	jmp	SHORT $LN14@drawPrompt
$LN11@drawPrompt:
; Line 961
	test	al, 8
	je	SHORT $LN13@drawPrompt
; Line 962
	mov	DWORD PTR _name$[esp+512], OFFSET ??_C@_0P@JEBEFBAP@Unknown?5Server@
; Line 963
	mov	DWORD PTR _info$[esp+512], OFFSET ??_C@_0DE@HPNLNDNB@An?5error?5occurred?5while?5getting@
; Line 964
	jmp	SHORT $LN14@drawPrompt
$LN13@drawPrompt:
; Line 965
	mov	DWORD PTR _name$[esp+512], OFFSET ??_C@_0BA@CHAIAONA@Unlisted?5Server@
; Line 966
	mov	DWORD PTR _info$[esp+512], OFFSET ??_C@_0CO@OOBBEHPP@This?5server?5is?5not?5listed?5in?5yo@
$LN14@drawPrompt:
; Line 971
	movss	xmm1, DWORD PTR tv1553[esp+508]
; Line 989
	lea	ecx, DWORD PTR _buffer$[esp+508]
	movaps	xmm2, xmm4
	mov	DWORD PTR _name$[esp+508], 33024	; 00008100H
	addss	xmm2, DWORD PTR _pm$2$[esp+508]
	movaps	xmm0, xmm3
	mov	DWORD PTR _name$[esp+528], 1020054733	; 3ccccccdH
	mov	eax, esi
	mov	DWORD PTR _name$[esp+524], 1051839169	; 3eb1cac1H
	or	eax, 12632256				; 00c0c0c0H
	mov	DWORD PTR _info$[esp+508], 528		; 00000210H
	mov	DWORD PTR _name$[esp+540], eax
	addss	xmm2, xmm3
	mov	DWORD PTR _info$[esp+540], eax
	movss	xmm3, DWORD PTR _pm$2$[esp+508]
	addss	xmm0, xmm3
	mov	DWORD PTR _button$[esp+540], eax
; Line 991
	mov	DWORD PTR _extra$[esp+540], eax
; Line 996
	mov	eax, ecx
	mov	DWORD PTR _ip$[esp+512], eax
; Line 998
	mov	eax, esi
	subss	xmm1, xmm2
	mov	DWORD PTR _info$[esp+528], 1017370378	; 3ca3d70aH
	mulss	xmm2, xmm5
	or	eax, 4210752				; 00404040H
	mov	DWORD PTR _ip$[esp+540], eax
; Line 1003
	mov	eax, esi
	or	eax, 1052688				; 00101010H
	mov	DWORD PTR _info$[esp+536], 1041865114	; 3e19999aH
	push	eax
	movss	DWORD PTR _name$[esp+536], xmm1
	addss	xmm2, xmm7
	movss	DWORD PTR _info$[esp+536], xmm1
	sub	esp, 16					; 00000010H
	movss	xmm1, DWORD PTR tv1553[esp+528]
	mulss	xmm1, DWORD PTR __real@3eb33333
	mov	DWORD PTR _info$[esp+544], 1053248456	; 3ec74bc8H
	movss	DWORD PTR _name$[esp+540], xmm2
	movss	DWORD PTR _info$[esp+540], xmm2
	subss	xmm1, xmm0
	mov	DWORD PTR [esp+12], 1049683294		; 3e90e55eH
	movaps	xmm0, xmm4
	movss	DWORD PTR [esp+8], xmm6
	mulss	xmm0, xmm5
	mov	DWORD PTR _button$[esp+532], OFFSET ??_C@_07FJPHLACI@Connect@
	mov	DWORD PTR _button$[esp+528], 256	; 00000100H
	movss	DWORD PTR _button$[esp+552], xmm1
	movaps	xmm1, xmm6
	subss	xmm1, DWORD PTR tv1553[esp+528]
	movss	DWORD PTR tv1560[esp+528], xmm0
	movaps	xmm0, xmm4
	mulss	xmm0, xmm5
	mov	DWORD PTR _button$[esp+548], 1017370378	; 3ca3d70aH
	mov	DWORD PTR _button$[esp+544], 1057878966	; 3f0df3b6H
	mov	DWORD PTR _extra$[esp+532], ecx
	subss	xmm2, xmm0
	mov	DWORD PTR _extra$[esp+528], 33026	; 00008102H
	movaps	xmm0, xmm3
	mov	DWORD PTR _extra$[esp+548], 1014350479	; 3c75c28fH
	mulss	xmm0, xmm5
	mov	DWORD PTR _extra$[esp+544], 1057174324	; 3f033334H
	mov	DWORD PTR _ip$[esp+528], 135426		; 00021102H
	movss	DWORD PTR _button$[esp+540], xmm2
	movaps	xmm2, xmm3
	subss	xmm1, xmm0
	mulss	xmm2, xmm5
	mov	DWORD PTR _ip$[esp+548], 1014350479	; 3c75c28fH
	movaps	xmm0, xmm6
	mov	DWORD PTR _ip$[esp+544], 1058298396	; 3f145a1cH
	addss	xmm0, xmm7
	mov	DWORD PTR [esp+4], 1050253722		; 3e99999aH
	movss	DWORD PTR tv1520[esp+528], xmm2
	movss	DWORD PTR _extra$[esp+552], xmm1
	movss	xmm1, DWORD PTR tv1444[esp+528]
	movss	DWORD PTR _ip$[esp+552], xmm1
	movss	DWORD PTR tv1509[esp+528], xmm0
	movaps	xmm0, xmm6
	addss	xmm0, xmm7
	subss	xmm0, xmm2
	movss	DWORD PTR _extra$[esp+540], xmm0
	movss	DWORD PTR _ip$[esp+540], xmm0
	movss	DWORD PTR [esp], xmm7
	push	edi
	call	_drawRenderRectangle
	add	esp, 24					; 00000018H
	test	eax, eax
	je	$LN54@drawPrompt
; Line 1005
	movss	xmm0, DWORD PTR _title$[esp+528]
	addss	xmm0, DWORD PTR __real@3be56042
	push	esi
	sub	esp, 16					; 00000010H
	movss	DWORD PTR [esp+12], xmm0
	movss	xmm0, DWORD PTR _pm$5$[esp+528]
	movss	DWORD PTR [esp+8], xmm0
	movss	xmm0, DWORD PTR _pm$6$[esp+528]
	mov	DWORD PTR [esp+4], 1050253722		; 3e99999aH
	movss	DWORD PTR [esp], xmm0
	push	edi
	call	_drawRenderRectangle
	add	esp, 24					; 00000018H
	test	eax, eax
	je	$LN54@drawPrompt
; Line 1007
	movss	xmm0, DWORD PTR _name$[esp+528]
	or	esi, 2105376				; 00202020H
	addss	xmm0, DWORD PTR __real@3b656042
	movss	xmm2, DWORD PTR _pm$4$[esp+508]
	addss	xmm2, DWORD PTR _pm$3$[esp+508]
	push	esi
	sub	esp, 16					; 00000010H
	mov	DWORD PTR tv1579[esp+528], esi
	addss	xmm0, DWORD PTR __real@3c23d70a
	mulss	xmm2, DWORD PTR __real@3f000000
	movss	DWORD PTR [esp+12], xmm0
	movss	xmm0, DWORD PTR _pm$3$[esp+528]
	addss	xmm0, DWORD PTR _name$[esp+552]
	movss	DWORD PTR tv1564[esp+528], xmm2
	addss	xmm0, DWORD PTR _pm$4$[esp+528]
	movss	DWORD PTR [esp+8], xmm0
	movss	xmm0, DWORD PTR _name$[esp+544]
	subss	xmm0, DWORD PTR __real@3bdd2f1a
	movss	DWORD PTR [esp+4], xmm0
	movss	xmm0, DWORD PTR _name$[esp+540]
	subss	xmm0, xmm2
	movss	DWORD PTR [esp], xmm0
	push	edi
	call	_drawRenderRectangle
	add	esp, 24					; 00000018H
	test	eax, eax
	je	$LN54@drawPrompt
; Line 1009
	movss	xmm1, DWORD PTR _pm$4$[esp+508]
	mov	eax, DWORD PTR _alpha$2$[esp+508]
	movaps	xmm0, xmm1
	mulss	xmm0, DWORD PTR __real@3f000000
	or	eax, 1579032				; 00181818H
	push	eax
	sub	esp, 16					; 00000010H
	mov	DWORD PTR tv1578[esp+528], eax
	movss	DWORD PTR tv1565[esp+528], xmm0
	movss	xmm0, DWORD PTR _name$[esp+548]
	addss	xmm0, DWORD PTR __real@3c23d70a
	movss	DWORD PTR [esp+12], xmm0
	movaps	xmm0, xmm1
	addss	xmm0, DWORD PTR _name$[esp+552]
	movss	DWORD PTR [esp+8], xmm0
	movss	xmm0, DWORD PTR _name$[esp+544]
	subss	xmm0, DWORD PTR __real@3ba3d70a
	movss	DWORD PTR [esp+4], xmm0
	movaps	xmm0, xmm1
	mulss	xmm0, DWORD PTR __real@3f000000
	movss	xmm1, DWORD PTR _name$[esp+540]
	subss	xmm1, xmm0
	movss	DWORD PTR [esp], xmm1
	push	edi
	call	_drawRenderRectangle
	add	esp, 24					; 00000018H
	test	eax, eax
	je	$LN54@drawPrompt
; Line 1011
	movss	xmm0, DWORD PTR _info$[esp+536]
	addss	xmm0, DWORD PTR __real@3b656042
	push	esi
	sub	esp, 16					; 00000010H
	addss	xmm0, DWORD PTR __real@3c23d70a
	movss	DWORD PTR [esp+12], xmm0
	movss	xmm0, DWORD PTR _info$[esp+552]
	addss	xmm0, DWORD PTR _pm$3$[esp+528]
	addss	xmm0, DWORD PTR _pm$4$[esp+528]
	movss	DWORD PTR [esp+8], xmm0
	movss	xmm0, DWORD PTR _info$[esp+544]
	subss	xmm0, DWORD PTR __real@3bdd2f1a
	movss	DWORD PTR [esp+4], xmm0
	movss	xmm0, DWORD PTR _info$[esp+540]
	subss	xmm0, DWORD PTR tv1564[esp+528]
	movss	DWORD PTR [esp], xmm0
	push	edi
	call	_drawRenderRectangle
	add	esp, 24					; 00000018H
	test	eax, eax
	je	$LN54@drawPrompt
; Line 1013
	movss	xmm0, DWORD PTR _info$[esp+536]
	addss	xmm0, DWORD PTR __real@3c23d70a
	push	DWORD PTR tv1578[esp+508]
	sub	esp, 16					; 00000010H
	movss	DWORD PTR [esp+12], xmm0
	movss	xmm0, DWORD PTR _info$[esp+552]
	addss	xmm0, DWORD PTR _pm$4$[esp+528]
	movss	DWORD PTR [esp+8], xmm0
	movss	xmm0, DWORD PTR _info$[esp+544]
	subss	xmm0, DWORD PTR __real@3ba3d70a
	movss	DWORD PTR [esp+4], xmm0
	movss	xmm0, DWORD PTR _info$[esp+540]
	subss	xmm0, DWORD PTR tv1565[esp+528]
	movss	DWORD PTR [esp], xmm0
	push	edi
	call	_drawRenderRectangle
	add	esp, 24					; 00000018H
	test	eax, eax
	je	$LN54@drawPrompt
; Line 1015
	lea	eax, DWORD PTR [ebx+132]
	push	eax
	lea	eax, DWORD PTR [ebx+4]
	push	eax
	lea	eax, DWORD PTR _buffer$[esp+516]
	push	OFFSET ??_C@_05CCMOGDN@?$CFs?3?$CFs@
	push	eax
	call	_sprintf
; Line 1016
	push	0
	push	0
	lea	eax, DWORD PTR _ip$[esp+532]
	push	eax
	push	DWORD PTR [ebx+148]
	push	edi
	call	_drawRenderString
	add	esp, 36					; 00000024H
	test	eax, eax
	je	$LN54@drawPrompt
; Line 1020
	movss	xmm1, DWORD PTR _button$[esp+532]
; Line 1022
	xor	esi, esi
	addss	xmm1, DWORD PTR _pm$4$[esp+508]
	movss	xmm4, DWORD PTR _button$[esp+520]
	movss	xmm2, DWORD PTR _button$[esp+524]
	movss	xmm3, DWORD PTR _button$[esp+528]
	movss	xmm5, DWORD PTR tv1520[esp+508]
	subss	xmm4, DWORD PTR tv1565[esp+508]
	subss	xmm2, DWORD PTR __real@3ba3d70a
	addss	xmm3, DWORD PTR __real@3c23d70a
	addss	xmm5, xmm1
	movss	DWORD PTR _w$1$[esp+508], xmm1
	movss	DWORD PTR _x$1$[esp+508], xmm4
	movss	DWORD PTR _y$1$[esp+508], xmm2
	movss	DWORD PTR _h$1$[esp+508], xmm3
	movss	DWORD PTR tv1566[esp+508], xmm5
	jmp	SHORT $LN4@drawPrompt
	npad	4
$LL59@drawPrompt:
	movss	xmm1, DWORD PTR _w$1$[esp+508]
$LN4@drawPrompt:
; Line 1023
	push	DWORD PTR tv1579[esp+508]
	movd	xmm0, esi
	cvtdq2ps xmm0, xmm0
	sub	esp, 16					; 00000010H
	movss	DWORD PTR [esp+12], xmm3
	mulss	xmm0, xmm5
	movss	DWORD PTR [esp+8], xmm1
	movss	DWORD PTR [esp+4], xmm2
	addss	xmm0, xmm4
	movss	DWORD PTR [esp], xmm0
	push	edi
	movss	DWORD PTR tv1493[esp+532], xmm0
	call	_drawRenderRectangle
	add	esp, 24					; 00000018H
	test	eax, eax
	je	$LN54@drawPrompt
; Line 1025
	movss	xmm0, DWORD PTR _h$1$[esp+508]
	subss	xmm0, DWORD PTR __real@3b656042
	push	DWORD PTR tv1578[esp+508]
	movss	xmm1, DWORD PTR _w$1$[esp+512]
	subss	xmm1, DWORD PTR _pm$3$[esp+512]
	sub	esp, 16					; 00000010H
	mulss	xmm1, DWORD PTR __real@3e800000
	movss	DWORD PTR [esp+12], xmm0
	movss	xmm0, DWORD PTR _y$1$[esp+528]
	addss	xmm0, DWORD PTR __real@3ae56042
	movss	DWORD PTR [esp+8], xmm1
	movss	DWORD PTR tv1531[esp+528], xmm1
	movss	DWORD PTR [esp+4], xmm0
	movss	xmm0, DWORD PTR tv1493[esp+528]
	addss	xmm0, DWORD PTR _w$1$[esp+528]
	subss	xmm0, DWORD PTR tv1560[esp+528]
	subss	xmm0, xmm1
	movss	DWORD PTR [esp], xmm0
	push	edi
	call	_drawRenderRectangle
	add	esp, 24					; 00000018H
	test	eax, eax
	je	$LN54@drawPrompt
; Line 1022
	movss	xmm2, DWORD PTR _y$1$[esp+508]
	inc	esi
	movss	xmm3, DWORD PTR _h$1$[esp+508]
	movss	xmm4, DWORD PTR _x$1$[esp+508]
	movss	xmm5, DWORD PTR tv1566[esp+508]
	cmp	esi, 2
	jl	$LL59@drawPrompt
; Line 1028
	movss	xmm0, DWORD PTR _pm$1$[esp+508]
	addss	xmm0, DWORD PTR _pm$2$[esp+508]
	movss	xmm1, DWORD PTR tv1509[esp+508]
	push	DWORD PTR tv1579[esp+508]
	sub	esp, 16					; 00000010H
	subss	xmm1, xmm0
	movss	xmm0, DWORD PTR _pm$1$[esp+528]
	addss	xmm0, DWORD PTR _pm$3$[esp+528]
	mov	DWORD PTR [esp+12], 1043106628		; 3e2c8b44H
	movss	DWORD PTR tv1509[esp+528], xmm1
	movss	DWORD PTR [esp+8], xmm0
	movss	xmm0, DWORD PTR _title$[esp+548]
	addss	xmm0, DWORD PTR __real@3e99999a
	addss	xmm0, DWORD PTR __real@3be56042
	addss	xmm0, DWORD PTR __real@3b656042
	movss	DWORD PTR [esp+4], xmm0
	movss	DWORD PTR [esp], xmm1
	push	edi
	call	_drawRenderRectangle
	add	esp, 24					; 00000018H
	test	eax, eax
	je	$LN54@drawPrompt
; Line 1030
	test	ebp, ebp
	je	$LN25@drawPrompt
	cmp	DWORD PTR [ebp+476], -2			; fffffffeH
	je	$LN25@drawPrompt
; Line 1031
	mov	eax, DWORD PTR _alpha$2$[esp+508]
	sub	esp, 16					; 00000010H
	movss	xmm0, DWORD PTR _pm$1$[esp+524]
	or	eax, 16777215				; 00ffffffH
	mov	DWORD PTR [esp+12], 1065353216		; 3f800000H
	mov	DWORD PTR [esp+8], 1065353216		; 3f800000H
	mov	DWORD PTR [esp+4], 0
	mov	DWORD PTR [esp], 0
	push	eax
	sub	esp, 16					; 00000010H
	mov	DWORD PTR [esp+12], 1042871747		; 3e28f5c3H
	movss	DWORD PTR [esp+8], xmm0
	movss	xmm0, DWORD PTR _title$[esp+564]
	addss	xmm0, DWORD PTR __real@3e99999a
	addss	xmm0, DWORD PTR __real@3be56042
	addss	xmm0, DWORD PTR __real@3bac0832
	movss	DWORD PTR [esp+4], xmm0
	movss	xmm0, DWORD PTR tv1509[esp+544]
	addss	xmm0, DWORD PTR tv1560[esp+544]
	movss	DWORD PTR [esp], xmm0
	push	DWORD PTR [ebp+480]
	push	edi
	call	_drawRenderTextureUV
	add	esp, 44					; 0000002cH
	test	eax, eax
	jne	SHORT $LN28@drawPrompt
$LN54@drawPrompt:
; Line 1070
	mov	eax, 1
$LN1@drawPrompt:
; Line 1073
	mov	ecx, DWORD PTR __$ArrayPad$[esp+508]
	pop	edi
	pop	esi
	pop	ebp
	pop	ebx
	xor	ecx, esp
	call	@__security_check_cookie@4
	add	esp, 492				; 000001ecH
	ret	0
$LN25@drawPrompt:
; Line 1033
	push	DWORD PTR tv1578[esp+508]
	movss	xmm0, DWORD PTR _pm$1$[esp+512]
	sub	esp, 16					; 00000010H
	mov	DWORD PTR [esp+12], 1042871747		; 3e28f5c3H
	movss	DWORD PTR [esp+8], xmm0
	movss	xmm0, DWORD PTR _title$[esp+548]
	addss	xmm0, DWORD PTR __real@3e99999a
	addss	xmm0, DWORD PTR __real@3be56042
	addss	xmm0, DWORD PTR __real@3bac0832
	movss	DWORD PTR [esp+4], xmm0
	movss	xmm0, DWORD PTR tv1509[esp+528]
	addss	xmm0, DWORD PTR tv1560[esp+528]
	movss	DWORD PTR [esp], xmm0
	push	edi
	call	_drawRenderRectangle
	add	esp, 24					; 00000018H
	test	eax, eax
	je	SHORT $LN54@drawPrompt
$LN28@drawPrompt:
; Line 1035
	push	0
	push	0
	lea	eax, DWORD PTR _title$[esp+516]
	push	eax
	push	DWORD PTR [ebx+144]
	push	edi
	call	_drawRenderString
	add	esp, 20					; 00000014H
	test	eax, eax
	je	$LN54@drawPrompt
; Line 1037
	push	0
	push	0
	lea	eax, DWORD PTR _name$[esp+516]
	push	eax
	push	DWORD PTR [ebx+144]
	push	edi
	call	_drawRenderString
	add	esp, 20					; 00000014H
	test	eax, eax
	je	$LN54@drawPrompt
; Line 1039
	cmp	DWORD PTR _info$[esp+512], 0
	je	SHORT $LN31@drawPrompt
	push	0
	push	0
	lea	eax, DWORD PTR _info$[esp+516]
	push	eax
	push	DWORD PTR [ebx+144]
	push	edi
	call	_drawRenderString
	add	esp, 20					; 00000014H
	test	eax, eax
	je	$LN54@drawPrompt
$LN31@drawPrompt:
; Line 1042
	movss	xmm0, DWORD PTR _button$[esp+532]
; Line 1043
	lea	eax, DWORD PTR _button$[esp+508]
	subss	xmm0, DWORD PTR tv1531[esp+508]
	or	DWORD PTR _button$[esp+508], 1
	push	0
	push	0
	push	eax
	subss	xmm0, DWORD PTR tv1560[esp+520]
	push	DWORD PTR [ebx+144]
	push	edi
	mulss	xmm0, DWORD PTR __real@3f000000
	addss	xmm0, DWORD PTR _button$[esp+540]
	movss	DWORD PTR _button$[esp+540], xmm0
	call	_drawRenderString
	add	esp, 20					; 00000014H
	test	eax, eax
	je	$LN54@drawPrompt
; Line 1046
	movss	xmm0, DWORD PTR tv1520[esp+508]
; Line 1047
	lea	eax, DWORD PTR _button$[esp+508]
	addss	xmm0, DWORD PTR _w$1$[esp+508]
	push	0
	push	0
	push	eax
	push	DWORD PTR [ebx+144]
	addss	xmm0, DWORD PTR _button$[esp+536]
	push	edi
	mov	DWORD PTR _button$[esp+532], OFFSET ??_C@_06FMBNCPDL@Cancel@
	movss	DWORD PTR _button$[esp+540], xmm0
	call	_drawRenderString
	add	esp, 20					; 00000014H
	test	eax, eax
	je	$LN54@drawPrompt
; Line 1051
	movss	xmm0, DWORD PTR _button$[esp+528]
	mulss	xmm0, DWORD PTR __real@3f000000
	mov	ecx, DWORD PTR _button$[esp+508]
	and	ecx, -2					; fffffffeH
; Line 1052
	xor	esi, esi
	addss	xmm0, DWORD PTR _button$[esp+524]
	movss	DWORD PTR _button$[esp+524], xmm0
	movss	xmm0, DWORD PTR tv1531[esp+508]
	movaps	xmm1, xmm0
	mulss	xmm1, DWORD PTR __real@3f000000
	movss	DWORD PTR tv1572[esp+508], xmm1
$LN60@drawPrompt:
; Line 1056
	movss	DWORD PTR _button$[esp+532], xmm0
	test	esi, esi
	movd	xmm0, esi
	mov	edx, OFFSET ??_C@_02LCPENACN@F1@
; Line 1057
	cvtdq2ps xmm0, xmm0
	mov	eax, OFFSET ??_C@_02JJNJIDOO@F2@
	cmove	eax, edx
	or	ecx, 40961				; 0000a001H
	mov	DWORD PTR _button$[esp+512], eax
	test	esi, esi
	mov	DWORD PTR _button$[esp+508], ecx
	mov	eax, 49152				; 0000c000H
	mov	ecx, 12582912				; 00c00000H
	mulss	xmm0, DWORD PTR tv1566[esp+508]
	cmovne	eax, ecx
	or	eax, DWORD PTR _alpha$2$[esp+508]
; Line 1058
	push	0
	mov	DWORD PTR _button$[esp+544], eax
	lea	eax, DWORD PTR _button$[esp+512]
	addss	xmm0, DWORD PTR _x$1$[esp+512]
	push	0
	push	eax
	push	DWORD PTR [ebx+144]
	addss	xmm0, DWORD PTR _w$1$[esp+524]
	push	edi
	subss	xmm0, DWORD PTR tv1560[esp+528]
	subss	xmm0, xmm1
	movss	DWORD PTR _button$[esp+540], xmm0
	call	_drawRenderString
	add	esp, 20					; 00000014H
	test	eax, eax
	je	$LN54@drawPrompt
; Line 1052
	inc	esi
	cmp	esi, 2
	jge	SHORT $LN58@drawPrompt
	mov	ecx, DWORD PTR _button$[esp+508]
	movss	xmm0, DWORD PTR tv1531[esp+508]
	movss	xmm1, DWORD PTR tv1572[esp+508]
	jmp	$LN60@drawPrompt
$LN58@drawPrompt:
; Line 1061
	test	ebp, ebp
	je	$LN38@drawPrompt
; Line 1062
	cmp	BYTE PTR [ebp+452], 0
	lea	eax, DWORD PTR [ebp+452]
	je	SHORT $LN36@drawPrompt
; Line 1063
	push	eax
	lea	eax, DWORD PTR _buffer$[esp+512]
	push	OFFSET ??_C@_0N@NNBMJJDO@Gamemode?3?5?$CFs@
	push	eax
	call	_sprintf
; Line 1064
	push	0
	push	0
	lea	eax, DWORD PTR _extra$[esp+528]
	push	eax
	push	DWORD PTR [ebx+148]
	push	edi
	call	_drawRenderString
	add	esp, 32					; 00000020H
	test	eax, eax
	je	$LN54@drawPrompt
; Line 1066
	movss	xmm0, DWORD PTR _extra$[esp+528]
	addss	xmm0, DWORD PTR __real@3b656042
	addss	xmm0, DWORD PTR _extra$[esp+524]
	movss	DWORD PTR _extra$[esp+524], xmm0
$LN36@drawPrompt:
; Line 1068
	push	DWORD PTR [ebp+488]
	lea	eax, DWORD PTR _buffer$[esp+512]
	push	DWORD PTR [ebp+484]
	push	OFFSET ??_C@_0BB@JLNCCENH@Players?3?5?$CFu?5?1?5?$CFu@
	push	eax
	call	_sprintf
; Line 1069
	push	0
	push	0
	lea	eax, DWORD PTR _extra$[esp+532]
	push	eax
	push	DWORD PTR [ebx+148]
	push	edi
	call	_drawRenderString
	add	esp, 36					; 00000024H
	test	eax, eax
	je	$LN54@drawPrompt
$LN38@drawPrompt:
; Line 1072
	xor	eax, eax
	jmp	$LN1@drawPrompt
_drawPrompt ENDP
_TEXT	ENDS
; Function compile flags: /Ogtpy
;	COMDAT _getPromptMetrics
_TEXT	SEGMENT
_ar$ = 8						; size = 4
_dsl$ = 8						; size = 4
_pm$ = 12						; size = 4
_getPromptMetrics PROC					; COMDAT
; File C:\Program Files (x86)\Steam\steamapps\common\Bully Scholarship Edition\_derpy_script_loader\src\client\client.c
; Line 911
	mov	eax, DWORD PTR _dsl$[esp-4]
	push	DWORD PTR [eax+12]
	call	_getRenderAspect
; Line 916
	movss	xmm1, DWORD PTR __real@3c23d70a
	add	esp, 4
	mov	eax, DWORD PTR _pm$[esp-4]
	fstp	DWORD PTR _ar$[esp-4]
; Line 917
	movss	xmm2, DWORD PTR _ar$[esp-4]
; Line 921
	divss	xmm1, xmm2
	mov	DWORD PTR [eax+28], 1042871747		; 3e28f5c3H
	mov	DWORD PTR [eax+36], 1004888130		; 3be56042H
	mov	DWORD PTR [eax+44], 996499522		; 3b656042H
	mov	DWORD PTR [eax+52], 1004888130		; 3be56042H
	mov	DWORD PTR [eax+60], 1008981770		; 3c23d70aH
; Line 924
	mov	DWORD PTR [eax+16], 1048576000		; 3e800000H
; Line 926
	mov	DWORD PTR [eax+4], 1050253722		; 3e99999aH
	movss	xmm0, DWORD PTR __real@3b656042
	movss	xmm4, DWORD PTR __real@3e28f5c3
	movss	xmm3, DWORD PTR __real@3be56042
	divss	xmm0, xmm2
	movss	DWORD PTR [eax+56], xmm1
	movss	xmm1, DWORD PTR __real@3f333333
	divss	xmm1, xmm2
	divss	xmm4, xmm2
	divss	xmm3, xmm2
	movss	DWORD PTR [eax+40], xmm0
	movaps	xmm0, xmm1
	subss	xmm0, xmm4
	movss	DWORD PTR [eax+8], xmm1
	movss	DWORD PTR [eax+24], xmm4
	movss	DWORD PTR [eax+32], xmm3
	movss	DWORD PTR [eax+48], xmm3
	subss	xmm0, xmm3
	movss	DWORD PTR [eax+12], xmm0
	movss	xmm0, DWORD PTR __real@3f000000
	mulss	xmm1, xmm0
	subss	xmm0, xmm1
	movss	DWORD PTR [eax], xmm0
; Line 927
	ret	0
_getPromptMetrics ENDP
_TEXT	ENDS
; Function compile flags: /Ogtpy
;	COMDAT _serverConnect
_TEXT	SEGMENT
_dsl$ = 8						; size = 4
_argc$ = 12						; size = 4
_argv$ = 16						; size = 4
_serverConnect PROC					; COMDAT
; File C:\Program Files (x86)\Steam\steamapps\common\Bully Scholarship Edition\_derpy_script_loader\src\client\client.c
; Line 878
	cmp	DWORD PTR _argc$[esp-4], 0
	jne	SHORT $LN2@serverConn
; Line 879
	mov	eax, DWORD PTR _dsl$[esp-4]
	push	OFFSET ??_C@_0BI@BIOLCBOA@expected?5server?5address@
	push	1
	push	DWORD PTR [eax+24]
	call	_printConsoleFormatted
; Line 884
	add	esp, 12					; 0000000cH
	ret	0
$LN2@serverConn:
; Line 880
	cmp	BYTE PTR ds:12691866, 0
	je	SHORT $LN4@serverConn
; Line 881
	mov	eax, DWORD PTR _dsl$[esp-4]
	push	OFFSET ??_C@_0CE@DPBICNEM@cannot?5connect?5while?5game?5is?5pa@
	push	1
	push	DWORD PTR [eax+24]
	call	_printConsoleFormatted
; Line 884
	add	esp, 12					; 0000000cH
	ret	0
$LN4@serverConn:
; Line 883
	mov	eax, DWORD PTR _argv$[esp-4]
	push	1
	push	DWORD PTR [eax]
	push	DWORD PTR _dsl$[esp+4]
	call	_promptNetworkServer
; Line 884
	add	esp, 12					; 0000000cH
	ret	0
_serverConnect ENDP
_TEXT	ENDS
; Function compile flags: /Ogtpy
;	COMDAT _canListServer
_TEXT	SEGMENT
_buffer$ = -140						; size = 134
__$ArrayPad$ = -4					; size = 4
_dsl$ = 8						; size = 4
_ip$ = 12						; size = 4
_port$ = 16						; size = 4
_limit$ = 20						; size = 4
_canListServer PROC					; COMDAT
; File C:\Program Files (x86)\Steam\steamapps\common\Bully Scholarship Edition\_derpy_script_loader\src\client\client.c
; Line 814
	sub	esp, 140				; 0000008cH
	mov	eax, DWORD PTR ___security_cookie
	xor	eax, esp
	mov	DWORD PTR __$ArrayPad$[esp+140], eax
; Line 821
	mov	ecx, DWORD PTR _ip$[esp+136]
	mov	edx, DWORD PTR _port$[esp+136]
	push	ebx
	mov	ebx, DWORD PTR _dsl$[esp+140]
	push	esi
	lea	esi, DWORD PTR _buffer$[esp+148]
	sub	esi, ecx
$LL12@canListSer:
	mov	al, BYTE PTR [ecx]
	lea	ecx, DWORD PTR [ecx+1]
	mov	BYTE PTR [esi+ecx-1], al
	test	al, al
	jne	SHORT $LL12@canListSer
; Line 822
	push	edi
	lea	edi, DWORD PTR _buffer$[esp+152]
	dec	edi
$LL26@canListSer:
	mov	al, BYTE PTR [edi+1]
	lea	edi, DWORD PTR [edi+1]
	test	al, al
	jne	SHORT $LL26@canListSer
	mov	ax, WORD PTR ??_C@_01JLIPDDHJ@?3@
; Line 823
	mov	esi, edx
	mov	WORD PTR [edi], ax
	npad	7
$LL27@canListSer:
	mov	al, BYTE PTR [edx]
	inc	edx
	test	al, al
	jne	SHORT $LL27@canListSer
	lea	edi, DWORD PTR _buffer$[esp+152]
	sub	edx, esi
	dec	edi
	npad	2
$LL28@canListSer:
	mov	al, BYTE PTR [edi+1]
	inc	edi
	test	al, al
	jne	SHORT $LL28@canListSer
	mov	ecx, edx
	shr	ecx, 2
	rep movsd
	mov	ecx, edx
; Line 824
	mov	edx, DWORD PTR _limit$[esp+148]
	and	ecx, 3
	rep movsb
	pop	edi
	test	edx, edx
	je	SHORT $LN3@canListSer
; Line 825
	mov	eax, DWORD PTR [ebx+40]
; Line 826
	lea	ecx, DWORD PTR [eax+33956]
	add	eax, 25200980				; 01808954H
	cmp	ecx, eax
	jae	SHORT $LN3@canListSer
$LL4@canListSer:
; Line 827
	cmp	DWORD PTR [ecx+8], -1
	je	SHORT $LN2@canListSer
	sub	edx, 1
	je	SHORT $LN6@canListSer
$LN2@canListSer:
; Line 826
	add	ecx, 2097252				; 00200064H
	cmp	ecx, eax
	jb	SHORT $LL4@canListSer
$LN3@canListSer:
; Line 830
	xor	esi, esi
	push	esi
	push	OFFSET ??_C@_0M@KFDGPHID@list_server@
	push	DWORD PTR [ebx+8]
	call	_getConfigStringArray
	add	esp, 12					; 0000000cH
	test	eax, eax
	je	SHORT $LN6@canListSer
$LL7@canListSer:
; Line 831
	lea	ecx, DWORD PTR _buffer$[esp+148]
$LL29@canListSer:
	mov	dl, BYTE PTR [eax]
	cmp	dl, BYTE PTR [ecx]
	jne	SHORT $LN30@canListSer
	test	dl, dl
	je	SHORT $LN31@canListSer
	mov	dl, BYTE PTR [eax+1]
	cmp	dl, BYTE PTR [ecx+1]
	jne	SHORT $LN30@canListSer
	add	eax, 2
	add	ecx, 2
	test	dl, dl
	jne	SHORT $LL29@canListSer
$LN31@canListSer:
	xor	eax, eax
	jmp	SHORT $LN32@canListSer
$LN30@canListSer:
	sbb	eax, eax
	or	eax, 1
$LN32@canListSer:
	test	eax, eax
	je	SHORT $LN17@canListSer
; Line 830
	inc	esi
	push	esi
	push	OFFSET ??_C@_0M@KFDGPHID@list_server@
	push	DWORD PTR [ebx+8]
	call	_getConfigStringArray
	add	esp, 12					; 0000000cH
	test	eax, eax
	jne	SHORT $LL7@canListSer
$LN6@canListSer:
	pop	esi
; Line 833
	xor	eax, eax
; Line 834
	pop	ebx
	mov	ecx, DWORD PTR __$ArrayPad$[esp+140]
	xor	ecx, esp
	call	@__security_check_cookie@4
	add	esp, 140				; 0000008cH
	ret	0
$LN17@canListSer:
	mov	ecx, DWORD PTR __$ArrayPad$[esp+148]
	mov	eax, 1
	pop	esi
	pop	ebx
	xor	ecx, esp
	call	@__security_check_cookie@4
	add	esp, 140				; 0000008cH
	ret	0
_canListServer ENDP
_TEXT	ENDS
; Function compile flags: /Ogtpy
;	COMDAT _seperatePort
_TEXT	SEGMENT
_ip$ = 8						; size = 4
_seperatePort PROC					; COMDAT
; File C:\Program Files (x86)\Steam\steamapps\common\Bully Scholarship Edition\_derpy_script_loader\src\client\client.c
; Line 806
	mov	ecx, DWORD PTR _ip$[esp-4]
	xor	edx, edx
	push	ebx
	mov	bl, BYTE PTR [ecx]
	test	bl, bl
	je	SHORT $LN12@seperatePo
	npad	3
$LL4@seperatePo:
	cmp	bl, 58					; 0000003aH
	mov	eax, ecx
	mov	bl, BYTE PTR [ecx+1]
	cmovne	eax, edx
	inc	ecx
	mov	edx, eax
	test	bl, bl
	jne	SHORT $LL4@seperatePo
; Line 809
	test	edx, edx
	je	SHORT $LN12@seperatePo
; Line 811
	mov	BYTE PTR [edx], bl
; Line 812
	lea	eax, DWORD PTR [edx+1]
	pop	ebx
; Line 813
	ret	0
$LN12@seperatePo:
; Line 810
	mov	eax, OFFSET ??_C@_05NHJPDJPA@17017@
	pop	ebx
; Line 813
	ret	0
_seperatePort ENDP
_TEXT	ENDS
; Function compile flags: /Ogtpy
;	COMDAT _actuallyConnect
_TEXT	SEGMENT
_port$GSCopy$1$ = -412					; size = 4
_ip$GSCopy$1$ = -408					; size = 4
_data$ = -404						; size = 400
__$ArrayPad$ = -4					; size = 4
_dsl$ = 8						; size = 4
_net$ = 12						; size = 4
_ip$ = 16						; size = 4
_port$ = 20						; size = 4
_listing$ = 24						; size = 4
_actuallyConnect PROC					; COMDAT
; File C:\Program Files (x86)\Steam\steamapps\common\Bully Scholarship Edition\_derpy_script_loader\src\client\client.c
; Line 753
	sub	esp, 412				; 0000019cH
	mov	eax, DWORD PTR ___security_cookie
	xor	eax, esp
	mov	DWORD PTR __$ArrayPad$[esp+412], eax
	push	ebx
	mov	ebx, DWORD PTR _dsl$[esp+412]
	push	ebp
	mov	ebp, DWORD PTR _ip$[esp+416]
	push	esi
	mov	esi, DWORD PTR _port$[esp+420]
	push	edi
	mov	edi, DWORD PTR _net$[esp+424]
	mov	DWORD PTR _port$GSCopy$1$[esp+428], esi
	mov	DWORD PTR _ip$GSCopy$1$[esp+428], ebp
; Line 758
	mov	ecx, DWORD PTR [edi]
	mov	eax, ecx
	not	eax
	test	al, 1
	je	SHORT $LN8@actuallyCo
; Line 759
	lea	eax, DWORD PTR _data$[esp+428]
	push	eax
	push	2
	call	DWORD PTR __imp__WSAStartup@8
	test	eax, eax
	je	SHORT $LN9@actuallyCo
; Line 760
	push	eax
	push	esi
	push	ebp
	lea	eax, DWORD PTR [edi+32932]
	push	OFFSET ??_C@_0CL@EECDKICG@?$HL?$CFs?3?$CFs?$HN?5failed?5to?5setup?5winsock@
	push	eax
	call	_sprintf
	add	esp, 20					; 00000014H
; Line 761
	jmp	$LN32@actuallyCo
$LN9@actuallyCo:
; Line 762
	test	BYTE PTR _data$[esp+428], 1
	je	SHORT $LN11@actuallyCo
; Line 763
	push	esi
	push	ebp
	lea	eax, DWORD PTR [edi+32932]
	push	OFFSET ??_C@_0CM@JJLELEJN@?$HL?$CFs?3?$CFs?$HN?5bad?5winsock?5version?5?$CI2?5@
	push	eax
	call	_sprintf
	add	esp, 16					; 00000010H
; Line 764
	call	DWORD PTR __imp__WSACleanup@0
; Line 765
	jmp	$LN32@actuallyCo
$LN11@actuallyCo:
; Line 767
	or	DWORD PTR [edi], 1
	mov	ecx, DWORD PTR [edi]
$LN8@actuallyCo:
; Line 769
	cmp	DWORD PTR _listing$[esp+424], 0
	je	SHORT $LN12@actuallyCo
; Line 770
	lea	eax, DWORD PTR [edi+33956]
	lea	ecx, DWORD PTR [edi+25200980]
	cmp	eax, ecx
	jae	SHORT $LN3@actuallyCo
	npad	6
$LL4@actuallyCo:
; Line 771
	cmp	DWORD PTR [eax+8], -1
	je	SHORT $LN25@actuallyCo
; Line 770
	add	eax, 2097252				; 00200064H
	cmp	eax, ecx
	jb	SHORT $LL4@actuallyCo
$LN3@actuallyCo:
; Line 779
	mov	eax, OFFSET ??_C@_0BN@OFJKJMGI@?$HL?$CFs?3?$CFs?$HN?5server?5limit?5reached@
	jmp	$LN17@actuallyCo
$LN25@actuallyCo:
; Line 772
	push	1
	push	esi
	push	ebp
	push	eax
	push	ebx
	call	_actuallyConnect2
	add	esp, 20					; 00000014H
	test	eax, eax
	je	$LN1@actuallyCo
; Line 774
	or	DWORD PTR [eax], 32			; 00000020H
; Line 777
	jmp	$LN1@actuallyCo
$LN12@actuallyCo:
; Line 780
	not	ecx
	test	cl, 32					; 00000020H
	je	$LN16@actuallyCo
; Line 781
	or	DWORD PTR [ebx+340], 32			; 00000020H
; Line 782
	lea	eax, DWORD PTR [edi+33956]
	lea	ebp, DWORD PTR [edi+25200980]
	mov	esi, eax
	cmp	esi, ebp
	jae	SHORT $LN6@actuallyCo
	npad	5
$LL7@actuallyCo:
; Line 783
	cmp	DWORD PTR [esi+8], -1
	je	SHORT $LN5@actuallyCo
; Line 784
	push	1
	push	esi
	push	ebx
	call	_disconnectFromServer
	add	esp, 12					; 0000000cH
$LN5@actuallyCo:
; Line 782
	add	esi, 2097252				; 00200064H
	cmp	esi, ebp
	jb	SHORT $LL7@actuallyCo
	lea	eax, DWORD PTR [edi+33956]
$LN6@actuallyCo:
; Line 785
	push	0
	push	DWORD PTR _port$GSCopy$1$[esp+432]
	push	DWORD PTR _ip$GSCopy$1$[esp+436]
	push	eax
	push	ebx
	call	_actuallyConnect2
	mov	ebp, eax
	add	esp, 20					; 00000014H
	test	ebp, ebp
	je	SHORT $LN19@actuallyCo
; Line 786
	lea	esi, DWORD PTR [ebp+16]
	push	esi
	push	DWORD PTR [ebx+4]
	call	_lua_pushstring
; Line 787
	push	1
	push	OFFSET ??_C@_0BB@EALOCPOA@ServerConnecting@
	push	0
	push	DWORD PTR [ebx+4]
	push	DWORD PTR [ebx+20]
	call	_runLuaScriptEvent
; Line 788
	push	-2					; fffffffeH
	push	DWORD PTR [ebx+4]
	call	_lua_settop
; Line 789
	test	BYTE PTR [ebp], 4
; Line 793
	mov	ecx, OFFSET ??_C@_0CF@CFHGCEHM@?$HL?$CFs?$HN?5connected?5to?5server?5immedi@
	mov	eax, OFFSET ??_C@_0BK@NBHGOMHC@?$HL?$CFs?$HN?5connecting?5to?5server@
	cmovne	eax, ecx
	push	esi
	push	eax
	mov	eax, DWORD PTR [ebx+24]
	push	0
	push	eax
	call	_printConsoleFormatted
	add	esp, 52					; 00000034H
	or	DWORD PTR [edi], 32			; 00000020H
$LN19@actuallyCo:
; Line 795
	mov	eax, ebp
	jmp	SHORT $LN1@actuallyCo
$LN16@actuallyCo:
; Line 797
	mov	eax, OFFSET ??_C@_0CM@PDIFEKIP@?$HL?$CFs?3?$CFs?$HN?5already?5connected?5to?5an@
$LN17@actuallyCo:
; Line 798
	push	esi
	push	ebp
	push	eax
	lea	eax, DWORD PTR [edi+32932]
	push	eax
	call	_sprintf
	add	esp, 16					; 00000010H
$LN32@actuallyCo:
; Line 799
	xor	eax, eax
$LN1@actuallyCo:
	mov	ecx, DWORD PTR __$ArrayPad$[esp+428]
	pop	edi
	pop	esi
	pop	ebp
	pop	ebx
	xor	ecx, esp
	call	@__security_check_cookie@4
	add	esp, 412				; 0000019cH
	ret	0
_actuallyConnect ENDP
_TEXT	ENDS
; Function compile flags: /Ogtpy
;	COMDAT _actuallyConnect2
_TEXT	SEGMENT
_net$1$ = -48						; size = 4
_blocking$ = -44					; size = 4
_addrsize$ = -40					; size = 4
tv444 = -36						; size = 4
tv440 = -36						; size = 4
_hints$ = -32						; size = 32
_status$ = 8						; size = 4
_list$ = 8						; size = 4
_dsl$ = 8						; size = 4
_svs$ = 12						; size = 4
_ip$ = 16						; size = 4
_port$ = 20						; size = 4
_listing$ = 24						; size = 4
_actuallyConnect2 PROC					; COMDAT
; File C:\Program Files (x86)\Steam\steamapps\common\Bully Scholarship Edition\_derpy_script_loader\src\client\client.c
; Line 676
	sub	esp, 48					; 00000030H
; Line 684
	mov	eax, DWORD PTR _dsl$[esp+44]
	xorps	xmm0, xmm0
	push	ebx
	push	ebp
; Line 689
	mov	ebp, DWORD PTR _ip$[esp+52]
	mov	ebx, DWORD PTR [eax+40]
	lea	eax, DWORD PTR _list$[esp+52]
	push	edi
	mov	edi, DWORD PTR _port$[esp+56]
	push	eax
	lea	eax, DWORD PTR _hints$[esp+64]
	mov	DWORD PTR _net$1$[esp+64], ebx
	push	eax
	push	edi
	push	ebp
	mov	DWORD PTR _hints$[esp+76], 0
	movlpd	QWORD PTR _hints$[esp+92], xmm0
	movlpd	QWORD PTR _hints$[esp+100], xmm0
	mov	DWORD PTR _hints$[esp+80], 2
	mov	DWORD PTR _hints$[esp+84], 1
	mov	DWORD PTR _hints$[esp+88], 6
	call	DWORD PTR __imp__getaddrinfo@16
	test	eax, eax
	je	SHORT $LN8@actuallyCo
; Line 690
	call	DWORD PTR __imp__WSAGetLastError@0
	push	eax
	push	edi
	push	ebp
	lea	eax, DWORD PTR [ebx+32932]
	push	OFFSET ??_C@_0CF@KLFCHNLK@?$HL?$CFs?3?$CFs?$HN?5bad?5server?5address?5?$CIwsa@
	push	eax
	call	_sprintf
	add	esp, 20					; 00000014H
; Line 691
	xor	eax, eax
	pop	edi
; Line 752
	pop	ebp
	pop	ebx
	add	esp, 48					; 00000030H
	ret	0
$LN8@actuallyCo:
	push	esi
; Line 693
	mov	esi, DWORD PTR _list$[esp+60]
	test	esi, esi
	je	SHORT $LN32@actuallyCo
	mov	eax, DWORD PTR _hints$[esp+76]
	mov	ecx, DWORD PTR _hints$[esp+72]
	mov	edx, DWORD PTR _hints$[esp+68]
	npad	7
$LL4@actuallyCo:
; Line 694
	cmp	DWORD PTR [esi+4], edx
	jne	SHORT $LN2@actuallyCo
	cmp	DWORD PTR [esi+8], ecx
	jne	SHORT $LN2@actuallyCo
	cmp	DWORD PTR [esi+12], eax
	je	SHORT $LN10@actuallyCo
$LN2@actuallyCo:
; Line 693
	mov	esi, DWORD PTR [esi+28]
	test	esi, esi
	jne	SHORT $LL4@actuallyCo
$LN32@actuallyCo:
; Line 697
	push	edi
	push	ebp
	push	OFFSET ??_C@_0CF@ECGFGBGD@?$HL?$CFs?3?$CFs?$HN?5no?5acceptable?5server?5ad@
	lea	eax, DWORD PTR [ebx+32932]
$LN43@actuallyCo:
	push	eax
	call	_sprintf
	add	esp, 16					; 00000010H
; Line 698
	push	DWORD PTR _list$[esp+60]
	call	DWORD PTR __imp__freeaddrinfo@4
	pop	esi
	pop	edi
; Line 752
	pop	ebp
	xor	eax, eax
	pop	ebx
	add	esp, 48					; 00000030H
	ret	0
$LN10@actuallyCo:
; Line 702
	mov	ebx, DWORD PTR _svs$[esp+60]
	lea	ecx, DWORD PTR _addrsize$[esp+64]
	push	ecx
	mov	DWORD PTR _addrsize$[esp+68], 64	; 00000040H
	lea	eax, DWORD PTR [ebx+16]
	push	eax
	push	0
	push	DWORD PTR [esi+16]
	mov	DWORD PTR tv444[esp+80], eax
	push	DWORD PTR [esi+24]
	call	DWORD PTR __imp__WSAAddressToStringA@20
	test	eax, eax
	mov	eax, DWORD PTR _net$1$[esp+64]
	je	SHORT $LN11@actuallyCo
; Line 703
	push	edi
	push	ebp
	add	eax, 32932				; 000080a4H
	push	OFFSET ??_C@_0CM@DLJBEELL@?$HL?$CFs?3?$CFs?$HN?5failed?5to?5get?5server?5ad@
	push	eax
	call	_sprintf
	add	esp, 16					; 00000010H
; Line 704
	push	DWORD PTR _list$[esp+60]
	call	DWORD PTR __imp__freeaddrinfo@4
; Line 705
	mov	ebp, DWORD PTR tv444[esp+64]
	xor	eax, eax
	pop	esi
	pop	edi
	mov	BYTE PTR [ebp], 0
; Line 752
	pop	ebp
	pop	ebx
	add	esp, 48					; 00000030H
	ret	0
$LN11@actuallyCo:
; Line 708
	lea	edi, DWORD PTR [eax+33956]
	add	eax, 25200980				; 01808954H
	mov	DWORD PTR tv440[esp+64], eax
	lea	ebp, DWORD PTR [ebx+16]
	cmp	edi, eax
	jae	SHORT $LN33@actuallyCo
$LL7@actuallyCo:
; Line 709
	cmp	DWORD PTR [edi+8], -1
	je	SHORT $LN5@actuallyCo
	mov	ecx, ebp
	lea	eax, DWORD PTR [edi+16]
$LL34@actuallyCo:
	mov	dl, BYTE PTR [eax]
	cmp	dl, BYTE PTR [ecx]
	jne	SHORT $LN35@actuallyCo
	test	dl, dl
	je	SHORT $LN36@actuallyCo
	mov	dl, BYTE PTR [eax+1]
	cmp	dl, BYTE PTR [ecx+1]
	jne	SHORT $LN35@actuallyCo
	add	eax, 2
	add	ecx, 2
	test	dl, dl
	jne	SHORT $LL34@actuallyCo
$LN36@actuallyCo:
	xor	eax, eax
	jmp	SHORT $LN37@actuallyCo
$LN35@actuallyCo:
	sbb	eax, eax
	or	eax, 1
$LN37@actuallyCo:
	test	eax, eax
	je	SHORT $LN25@actuallyCo
	mov	eax, DWORD PTR tv440[esp+64]
$LN5@actuallyCo:
; Line 708
	add	edi, 2097252				; 00200064H
	cmp	edi, eax
	jb	SHORT $LL7@actuallyCo
$LN33@actuallyCo:
; Line 714
	mov	eax, DWORD PTR [ebx+84]
	test	eax, eax
	je	SHORT $LN13@actuallyCo
; Line 715
	push	eax
	call	_free
	add	esp, 4
$LN13@actuallyCo:
; Line 716
	mov	eax, DWORD PTR [esi+16]
	push	eax
	mov	DWORD PTR [ebx+88], eax
	call	_malloc
	add	esp, 4
	mov	DWORD PTR [ebx+84], eax
; Line 717
	test	eax, eax
	jne	SHORT $LN14@actuallyCo
; Line 718
	mov	eax, DWORD PTR _net$1$[esp+64]
	push	OFFSET ??_C@_0BD@DKEJJKDL@connection?5address@
	push	ebp
	push	OFFSET ??_C@_0CG@CPOKKCGI@?$HL?$CFs?$HN?5failed?5to?5allocate?5memory?5@
	add	eax, 32932				; 000080a4H
; Line 720
	jmp	$LN43@actuallyCo
$LN25@actuallyCo:
; Line 710
	mov	eax, DWORD PTR _net$1$[esp+64]
	push	ebp
	add	eax, 32932				; 000080a4H
	push	OFFSET ??_C@_0CB@FKMFJFJI@?$HL?$CFs?$HN?5already?5connected?5to?5serve@
	push	eax
	call	_sprintf
	add	esp, 12					; 0000000cH
	push	DWORD PTR _list$[esp+60]
	call	DWORD PTR __imp__freeaddrinfo@4
	pop	esi
	pop	edi
; Line 752
	pop	ebp
	xor	eax, eax
	pop	ebx
	add	esp, 48					; 00000030H
	ret	0
$LN14@actuallyCo:
; Line 722
	push	DWORD PTR [esi+16]
	push	DWORD PTR [esi+24]
	push	eax
	call	_memcpy
	add	esp, 12					; 0000000cH
; Line 723
	push	DWORD PTR [esi+12]
	push	DWORD PTR [esi+8]
	push	DWORD PTR [esi+4]
	call	DWORD PTR __imp__socket@12
	mov	DWORD PTR [ebx+8], eax
; Line 724
	cmp	eax, -1
	jne	SHORT $LN15@actuallyCo
; Line 725
	call	DWORD PTR __imp__WSAGetLastError@0
	push	eax
	mov	eax, DWORD PTR _net$1$[esp+68]
	push	ebp
	push	OFFSET ??_C@_0CO@KBMEAICP@?$HL?$CFs?$HN?5failed?5to?5create?5server?5so@
	add	eax, 32932				; 000080a4H
; Line 727
	jmp	$LN43@actuallyCo
$LN15@actuallyCo:
; Line 730
	lea	ecx, DWORD PTR _blocking$[esp+64]
	mov	DWORD PTR _blocking$[esp+64], 1
	push	ecx
	push	-2147195266				; 8004667eH
	push	eax
	call	DWORD PTR __imp__ioctlsocket@12
	test	eax, eax
	jne	$LN17@actuallyCo
	cmp	DWORD PTR _blocking$[esp+64], eax
	je	$LN17@actuallyCo
; Line 737
	push	DWORD PTR [esi+16]
	push	DWORD PTR [esi+24]
	push	DWORD PTR [ebx+8]
	call	DWORD PTR __imp__connect@12
	test	eax, eax
	je	SHORT $LN38@actuallyCo
	call	DWORD PTR __imp__WSAGetLastError@0
	mov	esi, eax
	cmp	esi, 10035				; 00002733H
	je	SHORT $LN18@actuallyCo
; Line 738
	mov	eax, DWORD PTR _net$1$[esp+64]
	push	esi
	push	ebp
	add	eax, 32932				; 000080a4H
	push	OFFSET ??_C@_0DE@NHKOJNMJ@?$HL?$CFs?$HN?5failed?5to?5start?5connecting@
	push	eax
	call	_sprintf
	add	esp, 16					; 00000010H
; Line 739
	push	DWORD PTR [ebx+8]
	call	DWORD PTR __imp__closesocket@4
	push	DWORD PTR _list$[esp+60]
; Line 740
	mov	DWORD PTR [ebx+8], -1
	call	DWORD PTR __imp__freeaddrinfo@4
	pop	esi
	pop	edi
; Line 752
	pop	ebp
	xor	eax, eax
	pop	ebx
	add	esp, 48					; 00000030H
	ret	0
$LN38@actuallyCo:
; Line 737
	mov	esi, DWORD PTR _status$[esp+60]
$LN18@actuallyCo:
; Line 744
	push	DWORD PTR _list$[esp+60]
	call	DWORD PTR __imp__freeaddrinfo@4
; Line 745
	mov	ecx, DWORD PTR [ebx]
	or	ecx, 1
; Line 746
	cmp	DWORD PTR _listing$[esp+60], 0
	mov	DWORD PTR [ebx], ecx
	je	SHORT $LN19@actuallyCo
; Line 747
	or	ecx, 2
	mov	DWORD PTR [ebx], ecx
$LN19@actuallyCo:
; Line 748
	cmp	esi, 10035				; 00002733H
	je	SHORT $LN20@actuallyCo
; Line 749
	or	ecx, 4
	mov	DWORD PTR [ebx], ecx
$LN20@actuallyCo:
; Line 750
	mov	ecx, DWORD PTR ds:12691892
; Line 751
	mov	eax, ebx
	pop	esi
	pop	edi
; Line 752
	pop	ebp
	mov	DWORD PTR [ebx+12], ecx
	pop	ebx
	add	esp, 48					; 00000030H
	ret	0
$LN17@actuallyCo:
; Line 731
	call	DWORD PTR __imp__WSAGetLastError@0
	push	eax
	mov	eax, DWORD PTR _net$1$[esp+68]
	push	ebp
	add	eax, 32932				; 000080a4H
	push	OFFSET ??_C@_0DD@EHFKGIL@?$HL?$CFs?$HN?5failed?5to?5setup?5non?9blocki@
	push	eax
	call	_sprintf
	add	esp, 16					; 00000010H
; Line 732
	push	DWORD PTR [ebx+8]
	call	DWORD PTR __imp__closesocket@4
	push	DWORD PTR _list$[esp+60]
; Line 733
	mov	DWORD PTR [ebx+8], -1
	call	DWORD PTR __imp__freeaddrinfo@4
	pop	esi
	pop	edi
; Line 752
	pop	ebp
	xor	eax, eax
	pop	ebx
	add	esp, 48					; 00000030H
	ret	0
_actuallyConnect2 ENDP
_TEXT	ENDS
; Function compile flags: /Ogtpy
;	COMDAT _disconnectFromServer
_TEXT	SEGMENT
_dsl$ = 8						; size = 4
_svs$ = 12						; size = 4
_clean$ = 16						; size = 4
_disconnectFromServer PROC				; COMDAT
; File C:\Program Files (x86)\Steam\steamapps\common\Bully Scholarship Edition\_derpy_script_loader\src\client\client.c
; Line 634
	mov	ecx, DWORD PTR _clean$[esp-4]
	push	ebx
	mov	ebx, DWORD PTR _dsl$[esp]
	push	esi
	mov	esi, DWORD PTR _svs$[esp+4]
	push	edi
	mov	edi, DWORD PTR [ebx+40]
	mov	eax, DWORD PTR [esi]
	not	eax
	test	al, 2
	je	SHORT $LN19@disconnect
; Line 635
	test	ecx, ecx
	je	SHORT $LN3@disconnect
; Line 636
	push	0
	push	OFFSET ??_C@_0BD@LIILCIND@ServerDisconnected@
	push	0
	push	DWORD PTR [ebx+4]
	push	DWORD PTR [ebx+20]
	call	_runLuaScriptEvent
; Line 637
	push	0
	push	DWORD PTR [ebx+36]
	call	_killScriptLoaderServerScripts
	add	esp, 28					; 0000001cH
$LN3@disconnect:
; Line 639
	push	ebp
	mov	ebp, DWORD PTR [edi+156]
	test	ebp, ebp
	je	SHORT $LN4@disconnect
; Line 138
	mov	eax, DWORD PTR [ebp+4]
	test	eax, eax
	je	SHORT $LN13@disconnect
; Line 139
	push	eax
	call	_free
	add	esp, 4
$LN13@disconnect:
; Line 140
	push	ebp
	call	_free
	add	esp, 4
; Line 641
	mov	DWORD PTR [edi+156], 0
$LN4@disconnect:
; Line 643
	and	DWORD PTR [edi], -33			; ffffffdfH
; Line 644
	mov	ecx, DWORD PTR _clean$[esp+12]
	mov	DWORD PTR [edi+32928], 0
	pop	ebp
$LN19@disconnect:
; Line 646
	test	BYTE PTR [esi], 16			; 00000010H
	je	SHORT $LN5@disconnect
; Line 647
	and	DWORD PTR [edi], -17			; ffffffefH
$LN5@disconnect:
; Line 648
	mov	edi, DWORD PTR [esi+80]
	test	edi, edi
	je	SHORT $LN15@disconnect
; Line 649
	xor	eax, eax
	test	ecx, ecx
	cmovne	eax, ebx
; Line 94
	test	eax, eax
	je	SHORT $LN16@disconnect
	mov	ecx, DWORD PTR [edi+476]
	cmp	ecx, -2					; fffffffeH
	je	SHORT $LN16@disconnect
; Line 95
	push	ecx
	push	-10000					; ffffd8f0H
	push	DWORD PTR [eax+4]
	call	_luaL_unref
	add	esp, 12					; 0000000cH
$LN16@disconnect:
; Line 96
	push	edi
	call	_free
	add	esp, 4
$LN15@disconnect:
; Line 650
	mov	eax, DWORD PTR [esi+4]
	test	eax, eax
	je	SHORT $LN7@disconnect
; Line 651
	push	eax
	call	_fclose
	add	esp, 4
$LN7@disconnect:
; Line 652
	mov	eax, DWORD PTR [esi+84]
	test	eax, eax
	je	SHORT $LN8@disconnect
; Line 653
	push	eax
	call	_free
	add	esp, 4
$LN8@disconnect:
; Line 654
	mov	ecx, DWORD PTR [esi+8]
	cmp	ecx, -1
	je	SHORT $LN9@disconnect
; Line 655
	mov	eax, DWORD PTR [esi]
	not	eax
	test	al, 32					; 00000020H
	je	SHORT $LN10@disconnect
; Line 656
	lea	eax, DWORD PTR [esi+16]
	push	eax
	push	OFFSET ??_C@_0BO@EPNLKACD@?$HL?$CFs?$HN?5disconnected?5from?5server@
	push	0
	push	DWORD PTR [ebx+24]
	call	_printConsoleFormatted
	mov	ecx, DWORD PTR [esi+8]
	add	esp, 16					; 00000010H
$LN10@disconnect:
; Line 657
	push	ecx
	call	DWORD PTR __imp__closesocket@4
$LN9@disconnect:
; Line 659
	push	2097252					; 00200064H
	push	0
	push	esi
	call	_memset
	add	esp, 12					; 0000000cH
; Line 660
	mov	DWORD PTR [esi+8], -1
	pop	edi
	pop	esi
	pop	ebx
; Line 661
	ret	0
_disconnectFromServer ENDP
_TEXT	ENDS
; Function compile flags: /Ogtpy
;	COMDAT _processMessage
_TEXT	SEGMENT
_dsl$ = 8						; size = 4
_svs$ = 12						; size = 4
_bytes$ = 16						; size = 4
_message$ = 20						; size = 4
_processMessage PROC					; COMDAT
; File C:\Program Files (x86)\Steam\steamapps\common\Bully Scholarship Edition\_derpy_script_loader\src\client\client.c
; Line 586
	mov	eax, DWORD PTR ds:12691892
	push	ebx
; Line 587
	mov	ebx, DWORD PTR _dsl$[esp]
	push	esi
	push	edi
	push	DWORD PTR _message$[esp+8]
	mov	edi, DWORD PTR _svs$[esp+12]
	push	DWORD PTR _bytes$[esp+12]
	push	edi
	push	ebx
	mov	DWORD PTR [edi+12], eax
	call	_callMessage
	mov	esi, eax
	add	esp, 16					; 00000010H
; Line 588
	cmp	esi, 1
	jne	SHORT $LN2@processMes
; Line 589
	mov	ecx, DWORD PTR [ebx+40]
	add	ecx, 32932				; 000080a4H
	push	ecx
	lea	ecx, DWORD PTR [edi+16]
	push	ecx
	push	OFFSET ??_C@_0CD@BGCLCIOP@?$HL?$CFs?$HN?5failed?5to?5process?5message?3@
	push	eax
	push	DWORD PTR [ebx+24]
	call	_printConsoleFormatted
	add	esp, 20					; 00000014H
; Line 590
	mov	eax, esi
$LN2@processMes:
; Line 591
	pop	edi
	pop	esi
	pop	ebx
	ret	0
_processMessage ENDP
_TEXT	ENDS
; Function compile flags: /Ogtpy
;	COMDAT _callMessage
_TEXT	SEGMENT
_message$GSCopy$1$ = -204				; size = 4
_buffer$1 = -200					; size = 162
_buffer$2 = -36						; size = 32
__$ArrayPad$ = -4					; size = 4
_dsl$ = 8						; size = 4
_svs$ = 12						; size = 4
_bytes$ = 16						; size = 4
_message$ = 20						; size = 4
_callMessage PROC					; COMDAT
; File C:\Program Files (x86)\Steam\steamapps\common\Bully Scholarship Edition\_derpy_script_loader\src\client\client.c
; Line 545
	sub	esp, 204				; 000000ccH
	mov	eax, DWORD PTR ___security_cookie
	xor	eax, esp
	mov	DWORD PTR __$ArrayPad$[esp+204], eax
	mov	ecx, DWORD PTR _message$[esp+200]
	push	ebx
; Line 546
	mov	ebx, DWORD PTR _bytes$[esp+204]
	push	ebp
; Line 547
	movsx	eax, BYTE PTR [ecx]
	dec	ebx
	mov	ebp, DWORD PTR _dsl$[esp+208]
	inc	ecx
	mov	DWORD PTR _message$GSCopy$1$[esp+212], ecx
	push	esi
	push	edi
	mov	edi, DWORD PTR _svs$[esp+216]
	cmp	eax, 10					; 0000000aH
	ja	$LN2@callMessag
	jmp	DWORD PTR $LN112@callMessag[eax*4]
$LN4@callMessag:
; Line 217
	test	BYTE PTR [edi], 2
	jne	SHORT $LN16@callMessag
; Line 219
	mov	esi, DWORD PTR [ebp+4]
; Line 220
	push	ebx
	push	ecx
	push	esi
	call	_lua_pushlstring
; Line 221
	push	1
	push	OFFSET ??_C@_0N@EFGNBANH@ServerKicked@
	push	0
	push	esi
	push	DWORD PTR [ebp+20]
	call	_runLuaScriptEvent
; Line 222
	push	-2					; fffffffeH
	push	esi
	call	_lua_settop
	mov	ecx, DWORD PTR [ebp+24]
	lea	eax, DWORD PTR [edi+16]
	add	esp, 40					; 00000028H
; Line 223
	test	ebx, ebx
	je	SHORT $LN18@callMessag
; Line 224
	push	DWORD PTR _message$GSCopy$1$[esp+220]
	push	ebx
	push	eax
	push	OFFSET ??_C@_0BO@NHBJACHI@?$HL?$CFs?$HN?5kicked?5from?5server?3?5?$CF?4?$CKs@
	push	0
	push	ecx
	call	_printConsoleFormatted
	add	esp, 24					; 00000018H
; Line 550
	mov	eax, 2
; Line 228
	or	DWORD PTR [edi], 32			; 00000020H
; Line 550
	jmp	$LN1@callMessag
$LN18@callMessag:
; Line 226
	push	eax
	push	OFFSET ??_C@_0BI@GEKFNGMD@?$HL?$CFs?$HN?5kicked?5from?5server@
	push	0
	push	ecx
	call	_printConsoleFormatted
	add	esp, 16					; 00000010H
; Line 228
	or	DWORD PTR [edi], 32			; 00000020H
$LN16@callMessag:
; Line 550
	mov	eax, 2
	jmp	$LN1@callMessag
$LN5@callMessag:
; Line 237
	push	0
	push	OFFSET ??_C@_08ODGEKKOL@username@
	push	DWORD PTR [ebp+8]
	call	_getConfigStringArray
	add	esp, 12					; 0000000cH
; Line 238
	mov	ebx, OFFSET ??_C@_06BALNJMNP@player@
	test	eax, eax
	cmovne	ebx, eax
; Line 240
	mov	ecx, ebx
	lea	edx, DWORD PTR [ecx+1]
$LL113@callMessag:
	mov	al, BYTE PTR [ecx]
	inc	ecx
	test	al, al
	jne	SHORT $LL113@callMessag
	sub	ecx, edx
	cmp	ecx, 32					; 00000020H
	jb	SHORT $LN23@callMessag
; Line 241
	push	31					; 0000001fH
	lea	eax, DWORD PTR _buffer$2[esp+224]
	push	ebx
	push	eax
	call	_strncpy
	add	esp, 12					; 0000000cH
; Line 242
	mov	BYTE PTR _buffer$2[esp+251], 0
	mov	ebx, eax
$LN23@callMessag:
; Line 244
	mov	ecx, ebx
	lea	edx, DWORD PTR [ecx+1]
$LL114@callMessag:
	mov	al, BYTE PTR [ecx]
	inc	ecx
	test	al, al
	jne	SHORT $LL114@callMessag
	sub	ecx, edx
; Line 147
	mov	edx, DWORD PTR [edi+1048668]
; Line 244
	lea	eax, DWORD PTR [ecx+17]
; Line 147
	lea	ecx, DWORD PTR [edx+4]
	cmp	ecx, 1048576				; 00100000H
	jg	SHORT $LN29@callMessag
; Line 148
	mov	DWORD PTR [edx+edi+92], eax
; Line 149
	add	DWORD PTR [edi+1048668], 4
	mov	edx, DWORD PTR [edi+1048668]
; Line 150
	jmp	SHORT $LN116@callMessag
$LN29@callMessag:
; Line 151
	or	DWORD PTR [edi], 8
$LN116@callMessag:
; Line 246
	mov	ecx, DWORD PTR [edi]
	mov	eax, ecx
	shr	eax, 1
	not	al
	and	al, 1
; Line 147
	cmp	edx, 1048576				; 00100000H
	jge	SHORT $LN33@callMessag
; Line 148
	mov	BYTE PTR [edx+edi+92], al
; Line 149
	inc	DWORD PTR [edi+1048668]
	mov	edx, DWORD PTR [edi+1048668]
; Line 150
	jmp	SHORT $LN34@callMessag
$LN33@callMessag:
; Line 151
	or	ecx, 8
	mov	DWORD PTR [edi], ecx
$LN34@callMessag:
; Line 147
	lea	eax, DWORD PTR [edx+4]
	cmp	eax, 1048576				; 00100000H
	jg	SHORT $LN37@callMessag
; Line 148
	mov	DWORD PTR [edx+edi+92], 8
; Line 149
	add	DWORD PTR [edi+1048668], 4
	mov	edx, DWORD PTR [edi+1048668]
; Line 150
	jmp	SHORT $LN38@callMessag
$LN37@callMessag:
; Line 151
	or	DWORD PTR [edi], 8
$LN38@callMessag:
; Line 147
	lea	eax, DWORD PTR [edx+8]
	cmp	eax, 1048576				; 00100000H
	jg	SHORT $LN41@callMessag
; Line 148
	mov	DWORD PTR [edx+edi+92], 947090276	; 38737364H
	mov	DWORD PTR [edx+edi+96], 7759204		; 00766564H
; Line 149
	add	DWORD PTR [edi+1048668], 8
	mov	edx, DWORD PTR [edi+1048668]
; Line 150
	jmp	SHORT $LN42@callMessag
$LN41@callMessag:
; Line 151
	or	DWORD PTR [edi], 8
$LN42@callMessag:
; Line 251
	cmp	BYTE PTR [ebx], 0
	je	SHORT $LN46@callMessag
; Line 252
	mov	esi, ebx
	lea	ecx, DWORD PTR [esi+1]
	npad	4
$LL115@callMessag:
	mov	al, BYTE PTR [esi]
	inc	esi
	test	al, al
	jne	SHORT $LL115@callMessag
	sub	esi, ecx
; Line 147
	lea	eax, DWORD PTR [edx+esi]
	cmp	eax, 1048576				; 00100000H
	jg	SHORT $LN45@callMessag
; Line 148
	push	esi
	lea	eax, DWORD PTR [edi+92]
	add	eax, edx
	push	ebx
	push	eax
	call	_memcpy
; Line 149
	add	DWORD PTR [edi+1048668], esi
	add	esp, 12					; 0000000cH
; Line 584
	xor	eax, eax
	jmp	$LN1@callMessag
$LN45@callMessag:
	or	DWORD PTR [edi], 8
$LN46@callMessag:
	xor	eax, eax
	jmp	$LN1@callMessag
$LN6@callMessag:
; Line 556
	push	ecx
	push	ebx
	push	edi
	push	ebp
	call	_msgListing
	add	esp, 16					; 00000010H
	jmp	$LN1@callMessag
$LN7@callMessag:
; Line 326
	cmp	DWORD PTR [edi+4], 0
	mov	esi, DWORD PTR [ebp+40]
	jne	$LN51@callMessag
	mov	eax, DWORD PTR [edi]
	test	al, 2
	jne	$LN51@callMessag
; Line 330
	not	eax
	test	al, 64					; 00000040H
	je	SHORT $LN52@callMessag
; Line 331
	push	0
	push	OFFSET ??_C@_0BC@MELHMHGK@ServerDownloading@
	push	0
	push	DWORD PTR [ebp+4]
	push	DWORD PTR [ebp+20]
	call	_runLuaScriptEvent
; Line 332
	lea	eax, DWORD PTR [edi+16]
	push	eax
	push	OFFSET ??_C@_0BO@FCKNCPCM@?$HL?$CFs?$HN?5downloading?5client?5files@
	push	0
	push	DWORD PTR [ebp+24]
	call	_printConsoleFormatted
	mov	ecx, DWORD PTR _message$GSCopy$1$[esp+256]
	add	esp, 36					; 00000024H
; Line 333
	or	DWORD PTR [edi], 64			; 00000040H
$LN52@callMessag:
; Line 335
	cmp	ebx, 128				; 00000080H
	jb	SHORT $LN53@callMessag
; Line 336
	movups	xmm0, XMMWORD PTR ??_C@_0BP@LIEGNMJP@path?5of?5client?5file?5is?5too?5big@
	movups	XMMWORD PTR [esi+32932], xmm0
	movq	xmm0, QWORD PTR ??_C@_0BP@LIEGNMJP@path?5of?5client?5file?5is?5too?5big@+16
	movq	QWORD PTR [esi+32948], xmm0
	mov	eax, DWORD PTR ??_C@_0BP@LIEGNMJP@path?5of?5client?5file?5is?5too?5big@+24
	mov	DWORD PTR [esi+32956], eax
	mov	ax, WORD PTR ??_C@_0BP@LIEGNMJP@path?5of?5client?5file?5is?5too?5big@+28
	mov	WORD PTR [esi+32960], ax
	mov	al, BYTE PTR ??_C@_0BP@LIEGNMJP@path?5of?5client?5file?5is?5too?5big@+30
	mov	BYTE PTR [esi+32962], al
; Line 337
	jmp	$LN117@callMessag
$LN53@callMessag:
; Line 339
	mov	ax, WORD PTR ??_C@_0CD@IPEELMJM@_derpy_script_loader?1cache?1serv@+32
	movups	xmm0, XMMWORD PTR ??_C@_0CD@IPEELMJM@_derpy_script_loader?1cache?1serv@
	mov	WORD PTR _buffer$1[esp+252], ax
	mov	al, BYTE PTR ??_C@_0CD@IPEELMJM@_derpy_script_loader?1cache?1serv@+34
	movups	XMMWORD PTR _buffer$1[esp+220], xmm0
; Line 340
	push	ebx
	movups	xmm0, XMMWORD PTR ??_C@_0CD@IPEELMJM@_derpy_script_loader?1cache?1serv@+16
	mov	BYTE PTR _buffer$1[esp+258], al
	lea	eax, DWORD PTR _buffer$1[esp+224]
	push	ecx
	push	eax
	movups	XMMWORD PTR _buffer$1[esp+248], xmm0
	call	_strncat
; Line 341
	lea	eax, DWORD PTR _buffer$1[esp+232]
	push	eax
	call	_checkNetworkExtension
	add	esp, 16					; 00000010H
	test	eax, eax
	je	$LN55@callMessag
	lea	eax, DWORD PTR _buffer$1[esp+220]
	push	eax
	push	ebp
	call	_isDslFileSafe
	add	esp, 8
	test	eax, eax
	je	$LN55@callMessag
; Line 345
	lea	eax, DWORD PTR _buffer$1[esp+220]
	push	1
	push	eax
	call	_checkDslPathExists
	add	esp, 8
	test	eax, eax
	jne	SHORT $LN56@callMessag
; Line 346
	movups	xmm0, XMMWORD PTR ??_C@_0CG@KDLKFPME@failed?5to?5create?5server?5cache?5f@
	movups	XMMWORD PTR [esi+32932], xmm0
	movups	xmm0, XMMWORD PTR ??_C@_0CG@KDLKFPME@failed?5to?5create?5server?5cache?5f@+16
	movups	XMMWORD PTR [esi+32948], xmm0
	mov	eax, DWORD PTR ??_C@_0CG@KDLKFPME@failed?5to?5create?5server?5cache?5f@+32
	mov	DWORD PTR [esi+32964], eax
	mov	ax, WORD PTR ??_C@_0CG@KDLKFPME@failed?5to?5create?5server?5cache?5f@+36
	mov	WORD PTR [esi+32968], ax
; Line 347
	jmp	$LN117@callMessag
$LN56@callMessag:
; Line 349
	lea	eax, DWORD PTR _buffer$1[esp+220]
	push	OFFSET ??_C@_02GMLFBBN@wb@
	push	eax
	call	_fopen
	add	esp, 8
	mov	DWORD PTR [edi+4], eax
; Line 350
	test	eax, eax
	jne	SHORT $LN57@callMessag
; Line 351
	call	__errno
	lea	ecx, DWORD PTR _buffer$1[esp+220]
	push	ecx
	push	DWORD PTR [eax]
	call	_strerror
	add	esp, 4
	push	eax
	lea	eax, DWORD PTR [esi+32932]
	push	OFFSET ??_C@_0CG@KNBLPPEN@failed?5to?5create?5server?5file?5?$CI?$CF@
	push	eax
	call	_sprintf
	add	esp, 16					; 00000010H
; Line 352
	jmp	$LN117@callMessag
$LN57@callMessag:
; Line 584
	push	2
	push	edi
	call	_sendBasicMessage
	add	esp, 8
	xor	eax, eax
	jmp	$LN1@callMessag
$LN55@callMessag:
; Line 342
	lea	eax, DWORD PTR _buffer$1[esp+220]
	push	eax
	push	OFFSET ??_C@_0CH@KJHPDAIL@attempted?5to?5download?5unsafe?5fi@
	lea	eax, DWORD PTR [esi+32932]
; Line 343
	jmp	$LN119@callMessag
$LN51@callMessag:
; Line 327
	movups	xmm0, XMMWORD PTR ??_C@_0BN@FHLJLGIA@file?5download?5was?5unexpected@
	movups	XMMWORD PTR [esi+32932], xmm0
	movq	xmm0, QWORD PTR ??_C@_0BN@FHLJLGIA@file?5download?5was?5unexpected@+16
	movq	QWORD PTR [esi+32948], xmm0
	mov	eax, DWORD PTR ??_C@_0BN@FHLJLGIA@file?5download?5was?5unexpected@+24
	mov	DWORD PTR [esi+32956], eax
	mov	al, BYTE PTR ??_C@_0BN@FHLJLGIA@file?5download?5was?5unexpected@+28
	mov	BYTE PTR [esi+32960], al
; Line 559
	jmp	$LN117@callMessag
$LN8@callMessag:
; Line 358
	mov	eax, DWORD PTR [edi+4]
	test	eax, eax
	jne	SHORT $LN60@callMessag
; Line 359
	mov	ecx, DWORD PTR [ebp+40]
	movups	xmm0, XMMWORD PTR ??_C@_0BL@CFJJLLAK@file?5append?5was?5unexpected@
	movups	XMMWORD PTR [ecx+32932], xmm0
	movq	xmm0, QWORD PTR ??_C@_0BL@CFJJLLAK@file?5append?5was?5unexpected@+16
	movq	QWORD PTR [ecx+32948], xmm0
	mov	ax, WORD PTR ??_C@_0BL@CFJJLLAK@file?5append?5was?5unexpected@+24
	mov	WORD PTR [ecx+32956], ax
	mov	al, BYTE PTR ??_C@_0BL@CFJJLLAK@file?5append?5was?5unexpected@+26
	mov	BYTE PTR [ecx+32958], al
; Line 360
	jmp	$LN117@callMessag
$LN60@callMessag:
; Line 362
	test	ebx, ebx
	je	SHORT $LN61@callMessag
	push	eax
	push	1
	push	ebx
	push	ecx
	call	_fwrite
	add	esp, 16					; 00000010H
	test	eax, eax
	jne	$LN57@callMessag
$LN61@callMessag:
; Line 366
	mov	ecx, DWORD PTR [ebp+40]
	movups	xmm0, XMMWORD PTR ??_C@_0CG@HKPJECGJ@failed?5to?5write?5file?5being?5down@
	movups	XMMWORD PTR [ecx+32932], xmm0
	movups	xmm0, XMMWORD PTR ??_C@_0CG@HKPJECGJ@failed?5to?5write?5file?5being?5down@+16
	movups	XMMWORD PTR [ecx+32948], xmm0
	mov	eax, DWORD PTR ??_C@_0CG@HKPJECGJ@failed?5to?5write?5file?5being?5down@+32
	mov	DWORD PTR [ecx+32964], eax
	mov	ax, WORD PTR ??_C@_0CG@HKPJECGJ@failed?5to?5write?5file?5being?5down@+36
	mov	WORD PTR [ecx+32968], ax
; Line 562
	jmp	$LN117@callMessag
$LN9@callMessag:
; Line 370
	mov	eax, DWORD PTR [edi+4]
	test	eax, eax
	jne	SHORT $LN64@callMessag
; Line 371
	mov	ecx, DWORD PTR [ebp+40]
	movups	xmm0, XMMWORD PTR ??_C@_0BL@OAGLBGMJ@file?5finish?5was?5unexpected@
	movups	XMMWORD PTR [ecx+32932], xmm0
	movq	xmm0, QWORD PTR ??_C@_0BL@OAGLBGMJ@file?5finish?5was?5unexpected@+16
	movq	QWORD PTR [ecx+32948], xmm0
	mov	ax, WORD PTR ??_C@_0BL@OAGLBGMJ@file?5finish?5was?5unexpected@+24
	mov	WORD PTR [ecx+32956], ax
	mov	al, BYTE PTR ??_C@_0BL@OAGLBGMJ@file?5finish?5was?5unexpected@+26
	mov	BYTE PTR [ecx+32958], al
; Line 372
	jmp	$LN117@callMessag
$LN64@callMessag:
; Line 374
	push	eax
	call	_fclose
; Line 147
	mov	ecx, DWORD PTR [edi+1048668]
; Line 374
	add	esp, 4
; Line 375
	mov	DWORD PTR [edi+4], 0
; Line 147
	lea	eax, DWORD PTR [ecx+4]
	cmp	eax, 1048576				; 00100000H
	jg	SHORT $LN69@callMessag
; Line 148
	mov	DWORD PTR [ecx+edi+92], 5
; Line 149
	add	DWORD PTR [edi+1048668], 4
	mov	ecx, DWORD PTR [edi+1048668]
; Line 150
	jmp	SHORT $LN70@callMessag
$LN69@callMessag:
; Line 151
	or	DWORD PTR [edi], 8
$LN70@callMessag:
; Line 147
	cmp	ecx, 1048576				; 00100000H
	jge	$LN45@callMessag
; Line 148
	mov	BYTE PTR [ecx+edi+92], 2
; Line 149
	inc	DWORD PTR [edi+1048668]
; Line 584
	xor	eax, eax
	jmp	$LN1@callMessag
$LN10@callMessag:
; Line 383
	test	BYTE PTR [edi], 2
	mov	esi, DWORD PTR [ebp+40]
	je	SHORT $LN77@callMessag
; Line 384
	movups	xmm0, XMMWORD PTR ??_C@_0BP@LJHBCCFG@restart?5message?5was?5unexpected@
	movups	XMMWORD PTR [esi+32932], xmm0
	movq	xmm0, QWORD PTR ??_C@_0BP@LJHBCCFG@restart?5message?5was?5unexpected@+16
	movq	QWORD PTR [esi+32948], xmm0
	mov	eax, DWORD PTR ??_C@_0BP@LJHBCCFG@restart?5message?5was?5unexpected@+24
	mov	DWORD PTR [esi+32956], eax
	mov	ax, WORD PTR ??_C@_0BP@LJHBCCFG@restart?5message?5was?5unexpected@+28
	mov	WORD PTR [esi+32960], ax
	mov	al, BYTE PTR ??_C@_0BP@LJHBCCFG@restart?5message?5was?5unexpected@+30
	mov	BYTE PTR [esi+32962], al
; Line 385
	jmp	$LN117@callMessag
$LN77@callMessag:
; Line 387
	mov	edx, DWORD PTR [esi+32928]
	lea	eax, DWORD PTR [edx+ebx]
	cmp	eax, 32768				; 00008000H
	jb	SHORT $LN78@callMessag
; Line 388
	movups	xmm0, XMMWORD PTR ??_C@_0CI@NKMDLAJI@network?5script?5collection?5limit@
	movups	XMMWORD PTR [esi+32932], xmm0
	movups	xmm0, XMMWORD PTR ??_C@_0CI@NKMDLAJI@network?5script?5collection?5limit@+16
	movups	XMMWORD PTR [esi+32948], xmm0
	movq	xmm0, QWORD PTR ??_C@_0CI@NKMDLAJI@network?5script?5collection?5limit@+32
	movq	QWORD PTR [esi+32964], xmm0
; Line 389
	jmp	$LN117@callMessag
$LN78@callMessag:
; Line 391
	push	ebx
	lea	eax, DWORD PTR [esi+160]
	push	ecx
	add	eax, edx
	push	eax
	call	_strncpy
; Line 392
	add	DWORD PTR [esi+32928], ebx
	add	esp, 12					; 0000000cH
	mov	eax, DWORD PTR [esi+32928]
	mov	BYTE PTR [eax+esi+160], 0
; Line 393
	inc	DWORD PTR [esi+32928]
; Line 394
	xor	eax, eax
; Line 568
	jmp	$LN1@callMessag
$LN11@callMessag:
; Line 571
	push	ecx
	push	ebx
	push	edi
	push	ebp
	call	_msgStartPlaying
	add	esp, 16					; 00000010H
	jmp	$LN1@callMessag
$LN12@callMessag:
; Line 574
	push	ecx
	push	ebx
	push	edi
	push	ebp
	call	_msgScriptEvents
	add	esp, 16					; 00000010H
	jmp	$LN1@callMessag
$LN13@callMessag:
; Line 498
	mov	edx, DWORD PTR [edi]
	test	dl, dl
	jns	SHORT $LN81@callMessag
; Line 147
	mov	ecx, DWORD PTR [edi+1048668]
	lea	eax, DWORD PTR [ecx+4]
	cmp	eax, 1048576				; 00100000H
	jg	SHORT $LN86@callMessag
; Line 148
	mov	DWORD PTR [ecx+edi+92], 5
; Line 149
	add	DWORD PTR [edi+1048668], 4
	mov	ecx, DWORD PTR [edi+1048668]
; Line 150
	jmp	SHORT $LN87@callMessag
$LN86@callMessag:
; Line 151
	or	edx, 8
	mov	DWORD PTR [edi], edx
$LN87@callMessag:
; Line 147
	cmp	ecx, 1048576				; 00100000H
	jge	$LN45@callMessag
; Line 148
	mov	BYTE PTR [ecx+edi+92], 5
; Line 149
	inc	DWORD PTR [edi+1048668]
; Line 584
	xor	eax, eax
	jmp	$LN1@callMessag
$LN81@callMessag:
; Line 502
	mov	ecx, DWORD PTR [ebp+40]
	movups	xmm0, XMMWORD PTR ??_C@_0BN@OEPGCGAI@unexpected?5heartbeat?5message@
	movups	XMMWORD PTR [ecx+32932], xmm0
	movq	xmm0, QWORD PTR ??_C@_0BN@OEPGCGAI@unexpected?5heartbeat?5message@+16
	movq	QWORD PTR [ecx+32948], xmm0
	mov	eax, DWORD PTR ??_C@_0BN@OEPGCGAI@unexpected?5heartbeat?5message@+24
	mov	DWORD PTR [ecx+32956], eax
	mov	al, BYTE PTR ??_C@_0BN@OEPGCGAI@unexpected?5heartbeat?5message@+28
	mov	BYTE PTR [ecx+32960], al
; Line 577
	jmp	$LN117@callMessag
$LN14@callMessag:
; Line 511
	mov	eax, DWORD PTR [edi]
	mov	esi, DWORD PTR [ebp+40]
	not	eax
	test	al, al
	jns	SHORT $LN96@callMessag
; Line 512
	movups	xmm0, XMMWORD PTR ??_C@_0CC@LBOKKMBF@unexpected?5network?5script?5event@
	movups	XMMWORD PTR [esi+32932], xmm0
	movups	xmm0, XMMWORD PTR ??_C@_0CC@LBOKKMBF@unexpected?5network?5script?5event@+16
	movups	XMMWORD PTR [esi+32948], xmm0
	mov	ax, WORD PTR ??_C@_0CC@LBOKKMBF@unexpected?5network?5script?5event@+32
	mov	WORD PTR [esi+32964], ax
; Line 513
	jmp	$LN117@callMessag
$LN96@callMessag:
; Line 515
	test	ebx, ebx
	jne	SHORT $LN97@callMessag
; Line 516
	movups	xmm0, XMMWORD PTR ??_C@_0CK@LOODLIPM@unexpected?5network?5script?5event@
	movups	XMMWORD PTR [esi+32932], xmm0
	movups	xmm0, XMMWORD PTR ??_C@_0CK@LOODLIPM@unexpected?5network?5script?5event@+16
	movups	XMMWORD PTR [esi+32948], xmm0
	movq	xmm0, QWORD PTR ??_C@_0CK@LOODLIPM@unexpected?5network?5script?5event@+32
	movq	QWORD PTR [esi+32964], xmm0
	mov	ax, WORD PTR ??_C@_0CK@LOODLIPM@unexpected?5network?5script?5event@+40
	mov	WORD PTR [esi+32972], ax
; Line 517
	jmp	$LN117@callMessag
$LN97@callMessag:
; Line 519
	mov	edi, DWORD PTR [ebp+4]
$LL94@callMessag:
; Line 523
	mov	al, BYTE PTR [ecx]
	dec	ebx
	inc	ecx
	test	al, al
	je	SHORT $LN95@callMessag
; Line 525
	test	ebx, ebx
	jne	SHORT $LL94@callMessag
; Line 526
	movups	xmm0, XMMWORD PTR ??_C@_0CJ@IKKCIKOK@corrupted?5network?5script?5event?5@
	movups	XMMWORD PTR [esi+32932], xmm0
	movups	xmm0, XMMWORD PTR ??_C@_0CJ@IKKCIKOK@corrupted?5network?5script?5event?5@+16
	movups	XMMWORD PTR [esi+32948], xmm0
	movq	xmm0, QWORD PTR ??_C@_0CJ@IKKCIKOK@corrupted?5network?5script?5event?5@+32
	movq	QWORD PTR [esi+32964], xmm0
	mov	al, BYTE PTR ??_C@_0CJ@IKKCIKOK@corrupted?5network?5script?5event?5@+40
	mov	BYTE PTR [esi+32972], al
; Line 527
	jmp	$LN117@callMessag
$LN95@callMessag:
; Line 530
	test	ebx, ebx
	jne	SHORT $LN100@callMessag
; Line 531
	movups	xmm0, XMMWORD PTR ??_C@_0CK@FCKOLKB@undersized?5network?5script?5event@
	movups	XMMWORD PTR [esi+32932], xmm0
	movups	xmm0, XMMWORD PTR ??_C@_0CK@FCKOLKB@undersized?5network?5script?5event@+16
	movups	XMMWORD PTR [esi+32948], xmm0
	movq	xmm0, QWORD PTR ??_C@_0CK@FCKOLKB@undersized?5network?5script?5event@+32
	movq	QWORD PTR [esi+32964], xmm0
	mov	ax, WORD PTR ??_C@_0CK@FCKOLKB@undersized?5network?5script?5event@+40
	mov	WORD PTR [esi+32972], ax
; Line 532
	jmp	SHORT $LN117@callMessag
$LN100@callMessag:
; Line 534
	push	ebx
	push	ecx
	push	edi
	call	_unpackLuaTable
	add	esp, 12					; 0000000cH
	test	eax, eax
	jne	SHORT $LN101@callMessag
; Line 535
	push	-1
	push	edi
	call	_lua_tostring
	add	esp, 8
	sub	esi, eax
	npad	10
$LL103@callMessag:
	mov	cl, BYTE PTR [eax]
	lea	eax, DWORD PTR [eax+1]
	mov	BYTE PTR [eax+esi+32931], cl
	test	cl, cl
	jne	SHORT $LL103@callMessag
; Line 536
	push	-2					; fffffffeH
	push	edi
	call	_lua_settop
	add	esp, 8
; Line 537
	jmp	SHORT $LN117@callMessag
$LN101@callMessag:
; Line 539
	push	1
	push	DWORD PTR _message$GSCopy$1$[esp+224]
	push	1
	push	edi
	push	DWORD PTR [ebp+20]
	call	_runLuaScriptEvent
; Line 540
	push	-2					; fffffffeH
	push	edi
	call	_lua_settop
	add	esp, 28					; 0000001cH
; Line 541
	xor	eax, eax
; Line 580
	jmp	SHORT $LN1@callMessag
$LN2@callMessag:
; Line 582
	push	eax
	mov	eax, DWORD PTR [ebp+40]
	push	OFFSET ??_C@_0BO@MOELFNAE@unknown?5server?5message?5?$CI?$CFhhu?$CJ@
	add	eax, 32932				; 000080a4H
$LN119@callMessag:
; Line 584
	push	eax
	call	_sprintf
	add	esp, 12					; 0000000cH
$LN117@callMessag:
	mov	eax, 1
$LN1@callMessag:
	mov	ecx, DWORD PTR __$ArrayPad$[esp+220]
	pop	edi
	pop	esi
	pop	ebp
	pop	ebx
	xor	ecx, esp
	call	@__security_check_cookie@4
	add	esp, 204				; 000000ccH
	ret	0
	npad	2
$LN112@callMessag:
	DD	$LN4@callMessag
	DD	$LN5@callMessag
	DD	$LN6@callMessag
	DD	$LN7@callMessag
	DD	$LN8@callMessag
	DD	$LN9@callMessag
	DD	$LN10@callMessag
	DD	$LN11@callMessag
	DD	$LN12@callMessag
	DD	$LN13@callMessag
	DD	$LN14@callMessag
_callMessage ENDP
_TEXT	ENDS
; Function compile flags: /Ogtpy
;	COMDAT _msgScriptEvents2
_TEXT	SEGMENT
_dsl$ = 8						; size = 4
_svs$ = 12						; size = 4
_bytes$ = 16						; size = 4
_message$ = 20						; size = 4
_msgScriptEvents2 PROC					; COMDAT
; File C:\Program Files (x86)\Steam\steamapps\common\Bully Scholarship Edition\_derpy_script_loader\src\client\client.c
; Line 511
	mov	eax, DWORD PTR _svs$[esp-4]
	push	ebx
	mov	ebx, DWORD PTR _dsl$[esp]
	push	esi
	mov	eax, DWORD PTR [eax]
	not	eax
	mov	esi, DWORD PTR [ebx+40]
	test	al, al
	jns	SHORT $LN4@msgScriptE
; Line 512
	movups	xmm0, XMMWORD PTR ??_C@_0CC@LBOKKMBF@unexpected?5network?5script?5event@
	movups	XMMWORD PTR [esi+32932], xmm0
	movups	xmm0, XMMWORD PTR ??_C@_0CC@LBOKKMBF@unexpected?5network?5script?5event@+16
	movups	XMMWORD PTR [esi+32948], xmm0
	mov	ax, WORD PTR ??_C@_0CC@LBOKKMBF@unexpected?5network?5script?5event@+32
	mov	WORD PTR [esi+32964], ax
; Line 513
	mov	eax, 1
	pop	esi
; Line 542
	pop	ebx
	ret	0
$LN4@msgScriptE:
; Line 515
	mov	ecx, DWORD PTR _bytes$[esp+4]
	test	ecx, ecx
	jne	SHORT $LN5@msgScriptE
; Line 516
	movups	xmm0, XMMWORD PTR ??_C@_0CK@LOODLIPM@unexpected?5network?5script?5event@
	movups	XMMWORD PTR [esi+32932], xmm0
	movups	xmm0, XMMWORD PTR ??_C@_0CK@LOODLIPM@unexpected?5network?5script?5event@+16
	movups	XMMWORD PTR [esi+32948], xmm0
	movq	xmm0, QWORD PTR ??_C@_0CK@LOODLIPM@unexpected?5network?5script?5event@+32
	movq	QWORD PTR [esi+32964], xmm0
	mov	ax, WORD PTR ??_C@_0CK@LOODLIPM@unexpected?5network?5script?5event@+40
	mov	WORD PTR [esi+32972], ax
; Line 517
	lea	eax, DWORD PTR [ecx+1]
	pop	esi
; Line 542
	pop	ebx
	ret	0
$LN5@msgScriptE:
; Line 520
	mov	edx, DWORD PTR _message$[esp+4]
	push	ebp
	push	edi
	mov	edi, DWORD PTR [ebx+4]
	mov	ebp, edx
$LL2@msgScriptE:
; Line 523
	mov	al, BYTE PTR [edx]
	dec	ecx
	inc	edx
	test	al, al
	je	SHORT $LN3@msgScriptE
; Line 525
	test	ecx, ecx
	jne	SHORT $LL2@msgScriptE
; Line 526
	movups	xmm0, XMMWORD PTR ??_C@_0CJ@IKKCIKOK@corrupted?5network?5script?5event?5@
	pop	edi
	pop	ebp
	movups	XMMWORD PTR [esi+32932], xmm0
	movups	xmm0, XMMWORD PTR ??_C@_0CJ@IKKCIKOK@corrupted?5network?5script?5event?5@+16
	movups	XMMWORD PTR [esi+32948], xmm0
	movq	xmm0, QWORD PTR ??_C@_0CJ@IKKCIKOK@corrupted?5network?5script?5event?5@+32
	movq	QWORD PTR [esi+32964], xmm0
	mov	al, BYTE PTR ??_C@_0CJ@IKKCIKOK@corrupted?5network?5script?5event?5@+40
	mov	BYTE PTR [esi+32972], al
; Line 527
	lea	eax, DWORD PTR [ecx+1]
	pop	esi
; Line 542
	pop	ebx
	ret	0
$LN3@msgScriptE:
; Line 530
	test	ecx, ecx
	jne	SHORT $LN8@msgScriptE
; Line 531
	movups	xmm0, XMMWORD PTR ??_C@_0CK@FCKOLKB@undersized?5network?5script?5event@
	pop	edi
	pop	ebp
	movups	XMMWORD PTR [esi+32932], xmm0
	movups	xmm0, XMMWORD PTR ??_C@_0CK@FCKOLKB@undersized?5network?5script?5event@+16
	movups	XMMWORD PTR [esi+32948], xmm0
	movq	xmm0, QWORD PTR ??_C@_0CK@FCKOLKB@undersized?5network?5script?5event@+32
	movq	QWORD PTR [esi+32964], xmm0
	mov	ax, WORD PTR ??_C@_0CK@FCKOLKB@undersized?5network?5script?5event@+40
	mov	WORD PTR [esi+32972], ax
; Line 532
	lea	eax, DWORD PTR [ecx+1]
	pop	esi
; Line 542
	pop	ebx
	ret	0
$LN8@msgScriptE:
; Line 534
	push	ecx
	push	edx
	push	edi
	call	_unpackLuaTable
	add	esp, 12					; 0000000cH
	test	eax, eax
	jne	SHORT $LN9@msgScriptE
; Line 535
	push	-1
	push	edi
	call	_lua_tostring
	add	esp, 8
	sub	esi, eax
$LL11@msgScriptE:
	mov	cl, BYTE PTR [eax]
	lea	eax, DWORD PTR [eax+1]
	mov	BYTE PTR [esi+eax+32931], cl
	test	cl, cl
	jne	SHORT $LL11@msgScriptE
; Line 536
	push	-2					; fffffffeH
	push	edi
	call	_lua_settop
	add	esp, 8
; Line 537
	mov	eax, 1
	pop	edi
	pop	ebp
	pop	esi
; Line 542
	pop	ebx
	ret	0
$LN9@msgScriptE:
; Line 539
	push	1
	push	ebp
	push	1
	push	edi
	push	DWORD PTR [ebx+20]
	call	_runLuaScriptEvent
; Line 540
	push	-2					; fffffffeH
	push	edi
	call	_lua_settop
	add	esp, 28					; 0000001cH
; Line 541
	xor	eax, eax
	pop	edi
	pop	ebp
	pop	esi
; Line 542
	pop	ebx
	ret	0
_msgScriptEvents2 ENDP
_TEXT	ENDS
; Function compile flags: /Ogtpy
;	COMDAT _msgAreYouAlive
_TEXT	SEGMENT
_dsl$ = 8						; size = 4
_svs$ = 12						; size = 4
_bytes$ = 16						; size = 4
_message$ = 20						; size = 4
_msgAreYouAlive PROC					; COMDAT
; File C:\Program Files (x86)\Steam\steamapps\common\Bully Scholarship Edition\_derpy_script_loader\src\client\client.c
; Line 498
	mov	ecx, DWORD PTR _svs$[esp-4]
	push	ebx
	mov	ebx, DWORD PTR [ecx]
	test	bl, bl
	jns	SHORT $LN2@msgAreYouA
; Line 147
	mov	edx, DWORD PTR [ecx+1048668]
	lea	eax, DWORD PTR [edx+4]
	cmp	eax, 1048576				; 00100000H
	jg	SHORT $LN7@msgAreYouA
; Line 148
	mov	DWORD PTR [edx+ecx+92], 5
; Line 149
	add	DWORD PTR [ecx+1048668], 4
	mov	edx, DWORD PTR [ecx+1048668]
; Line 150
	jmp	SHORT $LN8@msgAreYouA
$LN7@msgAreYouA:
; Line 151
	or	ebx, 8
	mov	DWORD PTR [ecx], ebx
$LN8@msgAreYouA:
; Line 147
	cmp	edx, 1048576				; 00100000H
	jge	SHORT $LN11@msgAreYouA
; Line 148
	mov	BYTE PTR [edx+ecx+92], 5
; Line 149
	inc	DWORD PTR [ecx+1048668]
; Line 500
	xor	eax, eax
	pop	ebx
; Line 504
	ret	0
$LN11@msgAreYouA:
; Line 151
	or	DWORD PTR [ecx], 8
; Line 500
	xor	eax, eax
	pop	ebx
; Line 504
	ret	0
$LN2@msgAreYouA:
; Line 502
	mov	eax, DWORD PTR _dsl$[esp]
	movups	xmm0, XMMWORD PTR ??_C@_0BN@OEPGCGAI@unexpected?5heartbeat?5message@
	pop	ebx
	mov	ecx, DWORD PTR [eax+40]
	movups	XMMWORD PTR [ecx+32932], xmm0
	movq	xmm0, QWORD PTR ??_C@_0BN@OEPGCGAI@unexpected?5heartbeat?5message@+16
	movq	QWORD PTR [ecx+32948], xmm0
	mov	eax, DWORD PTR ??_C@_0BN@OEPGCGAI@unexpected?5heartbeat?5message@+24
	mov	DWORD PTR [ecx+32956], eax
	mov	al, BYTE PTR ??_C@_0BN@OEPGCGAI@unexpected?5heartbeat?5message@+28
	mov	BYTE PTR [ecx+32960], al
; Line 503
	mov	eax, 1
; Line 504
	ret	0
_msgAreYouAlive ENDP
_TEXT	ENDS
; Function compile flags: /Ogtpy
;	COMDAT _msgScriptEvents
_TEXT	SEGMENT
_name$1$ = -4						; size = 4
_dsl$ = 8						; size = 4
tv162 = 12						; size = 4
_svs$ = 12						; size = 4
_bytes$ = 16						; size = 4
_message$ = 20						; size = 4
_msgScriptEvents PROC					; COMDAT
; File C:\Program Files (x86)\Steam\steamapps\common\Bully Scholarship Edition\_derpy_script_loader\src\client\client.c
; Line 445
	push	ecx
; Line 453
	mov	eax, DWORD PTR _svs$[esp]
	push	ebp
	mov	ebp, DWORD PTR _dsl$[esp+4]
	push	esi
	mov	eax, DWORD PTR [eax]
	not	eax
	mov	esi, DWORD PTR [ebp+40]
	test	al, al
	jns	SHORT $LN7@msgScriptE
; Line 454
	movups	xmm0, XMMWORD PTR ??_C@_0CA@HAMHADLB@unexpected?5network?5script?5event@
; Line 455
	mov	eax, 1
	movups	XMMWORD PTR [esi+32932], xmm0
	movups	xmm0, XMMWORD PTR ??_C@_0CA@HAMHADLB@unexpected?5network?5script?5event@+16
	movups	XMMWORD PTR [esi+32948], xmm0
	pop	esi
; Line 496
	pop	ebp
	pop	ecx
	ret	0
$LN7@msgScriptE:
; Line 457
	mov	ecx, DWORD PTR _bytes$[esp+8]
	test	ecx, ecx
	jne	SHORT $LN8@msgScriptE
; Line 458
	movups	xmm0, XMMWORD PTR ??_C@_0CI@CLFGGBLN@unexpected?5network?5script?5event@
; Line 459
	lea	eax, DWORD PTR [ecx+1]
	movups	XMMWORD PTR [esi+32932], xmm0
	movups	xmm0, XMMWORD PTR ??_C@_0CI@CLFGGBLN@unexpected?5network?5script?5event@+16
	movups	XMMWORD PTR [esi+32948], xmm0
	movq	xmm0, QWORD PTR ??_C@_0CI@CLFGGBLN@unexpected?5network?5script?5event@+32
	movq	QWORD PTR [esi+32964], xmm0
	pop	esi
; Line 496
	pop	ebp
	pop	ecx
	ret	0
$LN8@msgScriptE:
; Line 462
	mov	edx, DWORD PTR _message$[esp+8]
	push	edi
	mov	edi, DWORD PTR [ebp+4]
	mov	DWORD PTR _name$1$[esp+16], edx
$LL2@msgScriptE:
; Line 465
	mov	al, BYTE PTR [edx]
	dec	ecx
	inc	edx
	test	al, al
	je	SHORT $LN3@msgScriptE
; Line 467
	test	ecx, ecx
	jne	SHORT $LL2@msgScriptE
; Line 468
	movups	xmm0, XMMWORD PTR ??_C@_0CH@KPMAIPIB@corrupted?5network?5script?5event?5@
	pop	edi
	movups	XMMWORD PTR [esi+32932], xmm0
	movups	xmm0, XMMWORD PTR ??_C@_0CH@KPMAIPIB@corrupted?5network?5script?5event?5@+16
	movups	XMMWORD PTR [esi+32948], xmm0
	mov	eax, DWORD PTR ??_C@_0CH@KPMAIPIB@corrupted?5network?5script?5event?5@+32
	mov	DWORD PTR [esi+32964], eax
	mov	ax, WORD PTR ??_C@_0CH@KPMAIPIB@corrupted?5network?5script?5event?5@+36
	mov	WORD PTR [esi+32968], ax
	mov	al, BYTE PTR ??_C@_0CH@KPMAIPIB@corrupted?5network?5script?5event?5@+38
	mov	BYTE PTR [esi+32970], al
; Line 469
	lea	eax, DWORD PTR [ecx+1]
	pop	esi
; Line 496
	pop	ebp
	pop	ecx
	ret	0
$LN3@msgScriptE:
	push	ebx
; Line 472
	test	ecx, ecx
	je	$LN11@msgScriptE
; Line 473
	push	ecx
	push	edx
	push	edi
	call	_unpackLuaTable
	add	esp, 12					; 0000000cH
	test	eax, eax
	jne	SHORT $LN13@msgScriptE
; Line 474
	push	-1
	push	edi
	call	_lua_tostring
	add	esp, 8
	sub	esi, eax
	npad	6
$LL18@msgScriptE:
	mov	cl, BYTE PTR [eax]
	lea	eax, DWORD PTR [eax+1]
	mov	BYTE PTR [esi+eax+32931], cl
	test	cl, cl
	jne	SHORT $LL18@msgScriptE
; Line 475
	push	-2					; fffffffeH
	push	edi
	call	_lua_settop
	add	esp, 8
; Line 476
	mov	eax, 1
	pop	ebx
	pop	edi
	pop	esi
; Line 496
	pop	ebp
	pop	ecx
	ret	0
$LN13@msgScriptE:
; Line 478
	push	OFFSET ??_C@_01EFFIKLCJ@n@
	push	edi
	call	_lua_pushstring
; Line 479
	push	-2					; fffffffeH
	push	edi
	call	_lua_rawget
; Line 480
	push	-1
	push	edi
	call	_lua_isnumber
	add	esp, 24					; 00000018H
	test	eax, eax
	je	SHORT $LN19@msgScriptE
	push	-1
	push	edi
	call	_lua_tonumber
	fstp	DWORD PTR tv162[esp+24]
	movss	xmm0, DWORD PTR tv162[esp+24]
	jmp	SHORT $LN35@msgScriptE
$LN19@msgScriptE:
	push	-2					; fffffffeH
	push	edi
	call	_luaL_getn
	movd	xmm0, eax
	cvtdq2ps xmm0, xmm0
$LN35@msgScriptE:
	add	esp, 8
	cvttss2si ebx, xmm0
; Line 481
	push	-2					; fffffffeH
	push	edi
	call	_lua_settop
	add	esp, 8
; Line 482
	test	ebx, ebx
	js	SHORT $LN15@msgScriptE
	lea	eax, DWORD PTR [ebx+20]
	push	eax
	push	edi
	call	_lua_checkstack
	add	esp, 8
	test	eax, eax
	je	SHORT $LN15@msgScriptE
; Line 486
	mov	esi, 1
	cmp	ebx, esi
	jl	SHORT $LN5@msgScriptE
	or	ebp, -1
	npad	2
$LL6@msgScriptE:
; Line 487
	push	esi
	push	ebp
	push	edi
	call	_lua_rawgeti
	inc	esi
	add	esp, 12					; 0000000cH
	dec	ebp
	cmp	esi, ebx
	jle	SHORT $LL6@msgScriptE
	mov	ebp, DWORD PTR _dsl$[esp+16]
$LN5@msgScriptE:
; Line 488
	neg	esi
	push	esi
	push	edi
	call	_lua_remove
	add	esp, 8
; Line 491
	cmp	ebx, 100				; 00000064H
	jle	SHORT $LN16@msgScriptE
; Line 492
	mov	eax, 99					; 00000063H
	sub	eax, ebx
	push	eax
	push	edi
	call	_lua_settop
	add	esp, 8
	jmp	SHORT $LN16@msgScriptE
$LN15@msgScriptE:
; Line 483
	movups	xmm0, XMMWORD PTR ??_C@_0BM@HKPGLEKG@failed?5to?5run?5network?5event@
	pop	ebx
	pop	edi
	movups	XMMWORD PTR [esi+32932], xmm0
	movq	xmm0, QWORD PTR ??_C@_0BM@HKPGLEKG@failed?5to?5run?5network?5event@+16
	movq	QWORD PTR [esi+32948], xmm0
	mov	eax, DWORD PTR ??_C@_0BM@HKPGLEKG@failed?5to?5run?5network?5event@+24
	mov	DWORD PTR [esi+32956], eax
; Line 484
	mov	eax, 1
	pop	esi
; Line 496
	pop	ebp
	pop	ecx
	ret	0
$LN11@msgScriptE:
; Line 490
	xor	ebx, ebx
$LN16@msgScriptE:
; Line 493
	push	ebx
	push	DWORD PTR _name$1$[esp+24]
	push	1
	push	edi
	push	DWORD PTR [ebp+20]
	call	_runLuaScriptEvent
; Line 494
	not	ebx
	push	ebx
	push	edi
	call	_lua_settop
	add	esp, 28					; 0000001cH
; Line 495
	xor	eax, eax
	pop	ebx
	pop	edi
	pop	esi
; Line 496
	pop	ebp
	pop	ecx
	ret	0
_msgScriptEvents ENDP
_TEXT	ENDS
; Function compile flags: /Ogtpy
;	COMDAT _msgStartPlaying
_TEXT	SEGMENT
_net$1$ = -4						; size = 4
_dsl$ = 8						; size = 4
_svs$ = 12						; size = 4
_bytes$ = 16						; size = 4
_message$ = 20						; size = 4
_msgStartPlaying PROC					; COMDAT
; File C:\Program Files (x86)\Steam\steamapps\common\Bully Scholarship Edition\_derpy_script_loader\src\client\client.c
; Line 396
	push	ecx
; Line 402
	mov	eax, DWORD PTR _svs$[esp]
	push	ebp
	mov	ebp, DWORD PTR _dsl$[esp+4]
	test	BYTE PTR [eax], 2
	mov	ebp, DWORD PTR [ebp+40]
	mov	DWORD PTR _net$1$[esp+8], ebp
	je	SHORT $LN8@msgStartPl
; Line 403
	movups	xmm0, XMMWORD PTR ??_C@_0BM@PNOGAJLG@play?5message?5was?5unexpected@
	movups	XMMWORD PTR [ebp+32932], xmm0
	movq	xmm0, QWORD PTR ??_C@_0BM@PNOGAJLG@play?5message?5was?5unexpected@+16
	movq	QWORD PTR [ebp+32948], xmm0
	mov	eax, DWORD PTR ??_C@_0BM@PNOGAJLG@play?5message?5was?5unexpected@+24
	mov	DWORD PTR [ebp+32956], eax
; Line 404
	mov	eax, 1
	pop	ebp
; Line 444
	pop	ecx
	ret	0
$LN8@msgStartPl:
	push	esi
; Line 406
	mov	esi, DWORD PTR [ebp+156]
	test	esi, esi
	je	SHORT $LN9@msgStartPl
; Line 138
	mov	eax, DWORD PTR [esi+4]
	test	eax, eax
	je	SHORT $LN20@msgStartPl
; Line 139
	push	eax
	call	_free
	add	esp, 4
$LN20@msgStartPl:
; Line 140
	push	esi
	call	_free
	add	esp, 4
; Line 408
	mov	DWORD PTR [ebp+156], 0
$LN9@msgStartPl:
; Line 410
	push	ebx
	mov	ebx, DWORD PTR _bytes$[esp+12]
	push	edi
	lea	eax, DWORD PTR [ebx+8]
	push	eax
	call	_malloc
	mov	edi, eax
	add	esp, 4
; Line 411
	test	edi, edi
	jne	SHORT $LN10@msgStartPl
; Line 412
	push	OFFSET ??_C@_0BF@DPEDIJIA@network?5scripts?5info@
	lea	eax, DWORD PTR [ebp+32932]
	push	OFFSET ??_C@_0CB@POMNIGMM@failed?5to?5allocate?5memory?5for?5?$CF@
	push	eax
	call	_sprintf
	add	esp, 12					; 0000000cH
; Line 413
	lea	eax, DWORD PTR [edi+1]
	pop	edi
	pop	ebx
	pop	esi
	pop	ebp
; Line 444
	pop	ecx
	ret	0
$LN10@msgStartPl:
; Line 416
	mov	esi, DWORD PTR _message$[esp+16]
	xor	ecx, ecx
	xor	edx, edx
	test	ebx, ebx
	je	SHORT $LN3@msgStartPl
	npad	5
$LL25@msgStartPl:
	cmp	BYTE PTR [edx+esi], 0
	lea	eax, DWORD PTR [ecx+1]
	cmovne	eax, ecx
	inc	edx
	mov	ecx, eax
	cmp	edx, ebx
	jb	SHORT $LL25@msgStartPl
$LN3@msgStartPl:
; Line 415
	mov	DWORD PTR [edi], ecx
; Line 419
	test	ecx, ecx
	je	$LN12@msgStartPl
; Line 420
	cmp	BYTE PTR [ebx+esi-1], 0
	je	SHORT $LN14@msgStartPl
; Line 421
	movups	xmm0, XMMWORD PTR ??_C@_0BN@GOFJFOEC@unfinished?5string?5in?5message@
; Line 422
	push	edi
	movups	XMMWORD PTR [ebp+32932], xmm0
	movq	xmm0, QWORD PTR ??_C@_0BN@GOFJFOEC@unfinished?5string?5in?5message@+16
	movq	QWORD PTR [ebp+32948], xmm0
	mov	eax, DWORD PTR ??_C@_0BN@GOFJFOEC@unfinished?5string?5in?5message@+24
	mov	DWORD PTR [ebp+32956], eax
	mov	al, BYTE PTR ??_C@_0BN@GOFJFOEC@unfinished?5string?5in?5message@+28
	mov	BYTE PTR [ebp+32960], al
	call	_free
	add	esp, 4
; Line 423
	mov	eax, 1
	pop	edi
	pop	ebx
	pop	esi
	pop	ebp
; Line 444
	pop	ecx
	ret	0
$LN14@msgStartPl:
; Line 425
	lea	eax, DWORD PTR [ecx*4]
	push	eax
	call	_malloc
	add	esp, 4
	mov	DWORD PTR [edi+4], eax
; Line 426
	test	eax, eax
	jne	SHORT $LN15@msgStartPl
; Line 427
	push	OFFSET ??_C@_0BH@DCHKPKAN@active?5network?5scripts@
	lea	eax, DWORD PTR [ebp+32932]
	push	OFFSET ??_C@_0CB@POMNIGMM@failed?5to?5allocate?5memory?5for?5?$CF@
	push	eax
	call	_sprintf
; Line 428
	push	edi
	call	_free
	add	esp, 16					; 00000010H
; Line 429
	mov	eax, 1
	pop	edi
	pop	ebx
	pop	esi
	pop	ebp
; Line 444
	pop	ecx
	ret	0
$LN15@msgStartPl:
; Line 431
	lea	ecx, DWORD PTR [edi+8]
; Line 433
	xor	esi, esi
	mov	DWORD PTR [eax], ecx
	mov	DWORD PTR [edi], 1
	test	ebx, ebx
	je	SHORT $LN32@msgStartPl
	mov	ebp, DWORD PTR _message$[esp+16]
$LL5@msgStartPl:
; Line 434
	mov	al, BYTE PTR [esi+ebp]
	inc	esi
	test	al, al
	jne	SHORT $LN16@msgStartPl
	cmp	esi, ebx
	jae	SHORT $LN33@msgStartPl
; Line 435
	mov	ecx, DWORD PTR [edi]
	lea	edx, DWORD PTR [edi+8]
	mov	eax, DWORD PTR [edi+4]
	add	edx, esi
	mov	DWORD PTR [eax+ecx*4], edx
	inc	DWORD PTR [edi]
$LN16@msgStartPl:
; Line 433
	cmp	esi, ebx
	jb	SHORT $LL5@msgStartPl
$LN33@msgStartPl:
	mov	ebp, DWORD PTR _net$1$[esp+20]
	lea	ecx, DWORD PTR [edi+8]
$LN32@msgStartPl:
; Line 436
	push	ebx
	push	DWORD PTR _message$[esp+20]
	push	ecx
	call	_memcpy
	add	esp, 12					; 0000000cH
; Line 437
	jmp	SHORT $LN13@msgStartPl
$LN12@msgStartPl:
; Line 438
	mov	DWORD PTR [edi+4], 0
$LN13@msgStartPl:
; Line 440
	mov	ecx, DWORD PTR _svs$[esp+16]
	mov	DWORD PTR [ebp+156], edi
	mov	eax, DWORD PTR [ecx]
	not	eax
	test	al, al
	jns	SHORT $LN17@msgStartPl
; Line 441
	lea	eax, DWORD PTR [ecx+16]
	push	eax
	mov	eax, DWORD PTR _dsl$[esp+20]
	push	OFFSET ??_C@_0BM@PEAAIBA@?$HL?$CFs?$HN?5stopping?5local?5scripts@
	push	0
	push	DWORD PTR [eax+24]
	call	_printConsoleFormatted
	add	esp, 16					; 00000010H
$LN17@msgStartPl:
; Line 442
	mov	eax, DWORD PTR _dsl$[esp+16]
	push	DWORD PTR [eax+36]
	call	_prepareScriptLoaderForServer
	add	esp, 4
; Line 443
	xor	eax, eax
	pop	edi
	pop	ebx
	pop	esi
	pop	ebp
; Line 444
	pop	ecx
	ret	0
_msgStartPlaying ENDP
_TEXT	ENDS
; Function compile flags: /Ogtpy
;	COMDAT _msgAddRestart
_TEXT	SEGMENT
_dsl$ = 8						; size = 4
_svs$ = 12						; size = 4
_bytes$ = 16						; size = 4
_message$ = 20						; size = 4
_msgAddRestart PROC					; COMDAT
; File C:\Program Files (x86)\Steam\steamapps\common\Bully Scholarship Edition\_derpy_script_loader\src\client\client.c
; Line 382
	mov	eax, DWORD PTR _dsl$[esp-4]
	push	esi
	mov	esi, DWORD PTR [eax+40]
; Line 383
	mov	eax, DWORD PTR _svs$[esp]
	test	BYTE PTR [eax], 2
	je	SHORT $LN2@msgAddRest
; Line 384
	movups	xmm0, XMMWORD PTR ??_C@_0BP@LJHBCCFG@restart?5message?5was?5unexpected@
	movups	XMMWORD PTR [esi+32932], xmm0
	movq	xmm0, QWORD PTR ??_C@_0BP@LJHBCCFG@restart?5message?5was?5unexpected@+16
	movq	QWORD PTR [esi+32948], xmm0
	mov	eax, DWORD PTR ??_C@_0BP@LJHBCCFG@restart?5message?5was?5unexpected@+24
	mov	DWORD PTR [esi+32956], eax
	mov	ax, WORD PTR ??_C@_0BP@LJHBCCFG@restart?5message?5was?5unexpected@+28
	mov	WORD PTR [esi+32960], ax
	mov	al, BYTE PTR ??_C@_0BP@LJHBCCFG@restart?5message?5was?5unexpected@+30
	mov	BYTE PTR [esi+32962], al
; Line 385
	mov	eax, 1
	pop	esi
; Line 395
	ret	0
$LN2@msgAddRest:
; Line 387
	mov	ecx, DWORD PTR [esi+32928]
	push	edi
	mov	edi, DWORD PTR _bytes$[esp+4]
	lea	eax, DWORD PTR [ecx+edi]
	cmp	eax, 32768				; 00008000H
	jb	SHORT $LN3@msgAddRest
; Line 388
	movups	xmm0, XMMWORD PTR ??_C@_0CI@NKMDLAJI@network?5script?5collection?5limit@
	pop	edi
; Line 389
	mov	eax, 1
	movups	XMMWORD PTR [esi+32932], xmm0
	movups	xmm0, XMMWORD PTR ??_C@_0CI@NKMDLAJI@network?5script?5collection?5limit@+16
	movups	XMMWORD PTR [esi+32948], xmm0
	movq	xmm0, QWORD PTR ??_C@_0CI@NKMDLAJI@network?5script?5collection?5limit@+32
	movq	QWORD PTR [esi+32964], xmm0
	pop	esi
; Line 395
	ret	0
$LN3@msgAddRest:
; Line 391
	push	edi
	push	DWORD PTR _message$[esp+8]
	lea	eax, DWORD PTR [esi+160]
	add	eax, ecx
	push	eax
	call	_strncpy
; Line 392
	add	DWORD PTR [esi+32928], edi
	add	esp, 12					; 0000000cH
	mov	eax, DWORD PTR [esi+32928]
	pop	edi
	mov	BYTE PTR [eax+esi+160], 0
; Line 394
	xor	eax, eax
	inc	DWORD PTR [esi+32928]
	pop	esi
; Line 395
	ret	0
_msgAddRestart ENDP
_TEXT	ENDS
; Function compile flags: /Ogtpy
;	COMDAT _msgFinishFile
_TEXT	SEGMENT
_dsl$ = 8						; size = 4
_svs$ = 12						; size = 4
_bytes$ = 16						; size = 4
_message$ = 20						; size = 4
_msgFinishFile PROC					; COMDAT
; File C:\Program Files (x86)\Steam\steamapps\common\Bully Scholarship Edition\_derpy_script_loader\src\client\client.c
; Line 369
	push	esi
; Line 370
	mov	esi, DWORD PTR _svs$[esp]
	mov	eax, DWORD PTR [esi+4]
	test	eax, eax
	jne	SHORT $LN2@msgFinishF
; Line 371
	mov	eax, DWORD PTR _dsl$[esp]
	movups	xmm0, XMMWORD PTR ??_C@_0BL@OAGLBGMJ@file?5finish?5was?5unexpected@
	pop	esi
	mov	ecx, DWORD PTR [eax+40]
	movups	XMMWORD PTR [ecx+32932], xmm0
	movq	xmm0, QWORD PTR ??_C@_0BL@OAGLBGMJ@file?5finish?5was?5unexpected@+16
	movq	QWORD PTR [ecx+32948], xmm0
	mov	ax, WORD PTR ??_C@_0BL@OAGLBGMJ@file?5finish?5was?5unexpected@+24
	mov	WORD PTR [ecx+32956], ax
	mov	al, BYTE PTR ??_C@_0BL@OAGLBGMJ@file?5finish?5was?5unexpected@+26
	mov	BYTE PTR [ecx+32958], al
; Line 372
	mov	eax, 1
; Line 378
	ret	0
$LN2@msgFinishF:
; Line 374
	push	eax
	call	_fclose
; Line 147
	mov	ecx, DWORD PTR [esi+1048668]
; Line 374
	add	esp, 4
; Line 375
	mov	DWORD PTR [esi+4], 0
; Line 147
	lea	eax, DWORD PTR [ecx+4]
	cmp	eax, 1048576				; 00100000H
	jg	SHORT $LN7@msgFinishF
; Line 148
	mov	DWORD PTR [ecx+esi+92], 5
; Line 149
	add	DWORD PTR [esi+1048668], 4
	mov	ecx, DWORD PTR [esi+1048668]
; Line 150
	jmp	SHORT $LN8@msgFinishF
$LN7@msgFinishF:
; Line 151
	or	DWORD PTR [esi], 8
$LN8@msgFinishF:
; Line 147
	cmp	ecx, 1048576				; 00100000H
	jge	SHORT $LN11@msgFinishF
; Line 148
	mov	BYTE PTR [ecx+esi+92], 2
; Line 149
	inc	DWORD PTR [esi+1048668]
; Line 377
	xor	eax, eax
	pop	esi
; Line 378
	ret	0
$LN11@msgFinishF:
; Line 151
	or	DWORD PTR [esi], 8
; Line 377
	xor	eax, eax
	pop	esi
; Line 378
	ret	0
_msgFinishFile ENDP
_TEXT	ENDS
; Function compile flags: /Ogtpy
;	COMDAT _msgAppendFile
_TEXT	SEGMENT
_dsl$ = 8						; size = 4
_svs$ = 12						; size = 4
_bytes$ = 16						; size = 4
_message$ = 20						; size = 4
_msgAppendFile PROC					; COMDAT
; File C:\Program Files (x86)\Steam\steamapps\common\Bully Scholarship Edition\_derpy_script_loader\src\client\client.c
; Line 357
	push	esi
; Line 358
	mov	esi, DWORD PTR _svs$[esp]
	mov	eax, DWORD PTR [esi+4]
	test	eax, eax
	jne	SHORT $LN2@msgAppendF
; Line 359
	mov	eax, DWORD PTR _dsl$[esp]
	movups	xmm0, XMMWORD PTR ??_C@_0BL@CFJJLLAK@file?5append?5was?5unexpected@
	pop	esi
	mov	ecx, DWORD PTR [eax+40]
	movups	XMMWORD PTR [ecx+32932], xmm0
	movq	xmm0, QWORD PTR ??_C@_0BL@CFJJLLAK@file?5append?5was?5unexpected@+16
	movq	QWORD PTR [ecx+32948], xmm0
	mov	ax, WORD PTR ??_C@_0BL@CFJJLLAK@file?5append?5was?5unexpected@+24
	mov	WORD PTR [ecx+32956], ax
	mov	al, BYTE PTR ??_C@_0BL@CFJJLLAK@file?5append?5was?5unexpected@+26
	mov	BYTE PTR [ecx+32958], al
; Line 368
	mov	eax, 1
	ret	0
$LN2@msgAppendF:
; Line 362
	mov	ecx, DWORD PTR _bytes$[esp]
	test	ecx, ecx
	je	SHORT $LN3@msgAppendF
	push	eax
	push	1
	push	ecx
	push	DWORD PTR _message$[esp+12]
	call	_fwrite
	add	esp, 16					; 00000010H
	test	eax, eax
	je	SHORT $LN3@msgAppendF
; Line 363
	push	2
	push	esi
	call	_sendBasicMessage
	add	esp, 8
; Line 364
	xor	eax, eax
	pop	esi
; Line 368
	ret	0
$LN3@msgAppendF:
; Line 366
	mov	eax, DWORD PTR _dsl$[esp]
	movups	xmm0, XMMWORD PTR ??_C@_0CG@HKPJECGJ@failed?5to?5write?5file?5being?5down@
	pop	esi
	mov	ecx, DWORD PTR [eax+40]
	movups	XMMWORD PTR [ecx+32932], xmm0
	movups	xmm0, XMMWORD PTR ??_C@_0CG@HKPJECGJ@failed?5to?5write?5file?5being?5down@+16
	movups	XMMWORD PTR [ecx+32948], xmm0
	mov	eax, DWORD PTR ??_C@_0CG@HKPJECGJ@failed?5to?5write?5file?5being?5down@+32
	mov	DWORD PTR [ecx+32964], eax
	mov	ax, WORD PTR ??_C@_0CG@HKPJECGJ@failed?5to?5write?5file?5being?5down@+36
	mov	WORD PTR [ecx+32968], ax
; Line 368
	mov	eax, 1
	ret	0
_msgAppendFile ENDP
_TEXT	ENDS
; Function compile flags: /Ogtpy
;	COMDAT _msgStartFile
_TEXT	SEGMENT
_buffer$ = -168						; size = 162
__$ArrayPad$ = -4					; size = 4
_dsl$ = 8						; size = 4
_svs$ = 12						; size = 4
_bytes$ = 16						; size = 4
_message$ = 20						; size = 4
_msgStartFile PROC					; COMDAT
; File C:\Program Files (x86)\Steam\steamapps\common\Bully Scholarship Edition\_derpy_script_loader\src\client\client.c
; Line 321
	sub	esp, 168				; 000000a8H
	mov	eax, DWORD PTR ___security_cookie
	xor	eax, esp
	mov	DWORD PTR __$ArrayPad$[esp+168], eax
	push	ebx
	mov	ebx, DWORD PTR _dsl$[esp+168]
	push	ebp
	mov	ebp, DWORD PTR _message$[esp+172]
	push	esi
; Line 325
	mov	esi, DWORD PTR [ebx+40]
	push	edi
	mov	edi, DWORD PTR _svs$[esp+180]
; Line 326
	cmp	DWORD PTR [edi+4], 0
	jne	$LN3@msgStartFi
	mov	eax, DWORD PTR [edi]
	test	al, 2
	jne	$LN3@msgStartFi
; Line 330
	not	eax
	test	al, 64					; 00000040H
	je	SHORT $LN4@msgStartFi
; Line 331
	push	0
	push	OFFSET ??_C@_0BC@MELHMHGK@ServerDownloading@
	push	0
	push	DWORD PTR [ebx+4]
	push	DWORD PTR [ebx+20]
	call	_runLuaScriptEvent
; Line 332
	lea	eax, DWORD PTR [edi+16]
	push	eax
	push	OFFSET ??_C@_0BO@FCKNCPCM@?$HL?$CFs?$HN?5downloading?5client?5files@
	push	0
	push	DWORD PTR [ebx+24]
	call	_printConsoleFormatted
	add	esp, 36					; 00000024H
; Line 333
	or	DWORD PTR [edi], 64			; 00000040H
$LN4@msgStartFi:
; Line 335
	mov	ecx, DWORD PTR _bytes$[esp+180]
	cmp	ecx, 128				; 00000080H
	jb	SHORT $LN5@msgStartFi
; Line 336
	movups	xmm0, XMMWORD PTR ??_C@_0BP@LIEGNMJP@path?5of?5client?5file?5is?5too?5big@
	movups	XMMWORD PTR [esi+32932], xmm0
	movq	xmm0, QWORD PTR ??_C@_0BP@LIEGNMJP@path?5of?5client?5file?5is?5too?5big@+16
	movq	QWORD PTR [esi+32948], xmm0
	mov	eax, DWORD PTR ??_C@_0BP@LIEGNMJP@path?5of?5client?5file?5is?5too?5big@+24
	mov	DWORD PTR [esi+32956], eax
	mov	ax, WORD PTR ??_C@_0BP@LIEGNMJP@path?5of?5client?5file?5is?5too?5big@+28
	mov	WORD PTR [esi+32960], ax
	mov	al, BYTE PTR ??_C@_0BP@LIEGNMJP@path?5of?5client?5file?5is?5too?5big@+30
	mov	BYTE PTR [esi+32962], al
; Line 337
	jmp	$LN11@msgStartFi
$LN5@msgStartFi:
; Line 339
	mov	ax, WORD PTR ??_C@_0CD@IPEELMJM@_derpy_script_loader?1cache?1serv@+32
	movups	xmm0, XMMWORD PTR ??_C@_0CD@IPEELMJM@_derpy_script_loader?1cache?1serv@
	mov	WORD PTR _buffer$[esp+216], ax
	mov	al, BYTE PTR ??_C@_0CD@IPEELMJM@_derpy_script_loader?1cache?1serv@+34
; Line 340
	push	ecx
	movups	XMMWORD PTR _buffer$[esp+188], xmm0
	mov	BYTE PTR _buffer$[esp+222], al
	lea	eax, DWORD PTR _buffer$[esp+188]
	movups	xmm0, XMMWORD PTR ??_C@_0CD@IPEELMJM@_derpy_script_loader?1cache?1serv@+16
	push	ebp
	push	eax
	movups	XMMWORD PTR _buffer$[esp+212], xmm0
	call	_strncat
; Line 341
	lea	eax, DWORD PTR _buffer$[esp+196]
	push	eax
	call	_checkNetworkExtension
	add	esp, 16					; 00000010H
	test	eax, eax
	je	$LN7@msgStartFi
	lea	eax, DWORD PTR _buffer$[esp+184]
	push	eax
	push	ebx
	call	_isDslFileSafe
	add	esp, 8
	test	eax, eax
	je	$LN7@msgStartFi
; Line 345
	lea	eax, DWORD PTR _buffer$[esp+184]
	push	1
	push	eax
	call	_checkDslPathExists
	add	esp, 8
	test	eax, eax
	jne	SHORT $LN8@msgStartFi
; Line 346
	movups	xmm0, XMMWORD PTR ??_C@_0CG@KDLKFPME@failed?5to?5create?5server?5cache?5f@
	movups	XMMWORD PTR [esi+32932], xmm0
	movups	xmm0, XMMWORD PTR ??_C@_0CG@KDLKFPME@failed?5to?5create?5server?5cache?5f@+16
	movups	XMMWORD PTR [esi+32948], xmm0
	mov	eax, DWORD PTR ??_C@_0CG@KDLKFPME@failed?5to?5create?5server?5cache?5f@+32
	mov	DWORD PTR [esi+32964], eax
	mov	ax, WORD PTR ??_C@_0CG@KDLKFPME@failed?5to?5create?5server?5cache?5f@+36
	mov	WORD PTR [esi+32968], ax
; Line 347
	jmp	$LN11@msgStartFi
$LN8@msgStartFi:
; Line 349
	lea	eax, DWORD PTR _buffer$[esp+184]
	push	OFFSET ??_C@_02GMLFBBN@wb@
	push	eax
	call	_fopen
	add	esp, 8
	mov	DWORD PTR [edi+4], eax
; Line 350
	test	eax, eax
	jne	SHORT $LN9@msgStartFi
; Line 351
	call	__errno
	lea	ecx, DWORD PTR _buffer$[esp+184]
	push	ecx
	push	DWORD PTR [eax]
	call	_strerror
	add	esp, 4
	push	eax
	lea	eax, DWORD PTR [esi+32932]
	push	OFFSET ??_C@_0CG@KNBLPPEN@failed?5to?5create?5server?5file?5?$CI?$CF@
	push	eax
	call	_sprintf
	add	esp, 16					; 00000010H
; Line 352
	jmp	SHORT $LN11@msgStartFi
$LN9@msgStartFi:
; Line 354
	push	2
	push	edi
	call	_sendBasicMessage
	add	esp, 8
; Line 355
	xor	eax, eax
	jmp	SHORT $LN1@msgStartFi
$LN7@msgStartFi:
; Line 342
	lea	eax, DWORD PTR _buffer$[esp+184]
	push	eax
	lea	eax, DWORD PTR [esi+32932]
	push	OFFSET ??_C@_0CH@KJHPDAIL@attempted?5to?5download?5unsafe?5fi@
	push	eax
	call	_sprintf
	add	esp, 12					; 0000000cH
; Line 343
	jmp	SHORT $LN11@msgStartFi
$LN3@msgStartFi:
; Line 327
	movups	xmm0, XMMWORD PTR ??_C@_0BN@FHLJLGIA@file?5download?5was?5unexpected@
	movups	XMMWORD PTR [esi+32932], xmm0
	movq	xmm0, QWORD PTR ??_C@_0BN@FHLJLGIA@file?5download?5was?5unexpected@+16
	movq	QWORD PTR [esi+32948], xmm0
	mov	eax, DWORD PTR ??_C@_0BN@FHLJLGIA@file?5download?5was?5unexpected@+24
	mov	DWORD PTR [esi+32956], eax
	mov	al, BYTE PTR ??_C@_0BN@FHLJLGIA@file?5download?5was?5unexpected@+28
	mov	BYTE PTR [esi+32960], al
$LN11@msgStartFi:
; Line 356
	mov	eax, 1
$LN1@msgStartFi:
	mov	ecx, DWORD PTR __$ArrayPad$[esp+184]
	pop	edi
	pop	esi
	pop	ebp
	pop	ebx
	xor	ecx, esp
	call	@__security_check_cookie@4
	add	esp, 168				; 000000a8H
	ret	0
_msgStartFile ENDP
_TEXT	ENDS
; Function compile flags: /Ogtpy
;	COMDAT _msgListing
_TEXT	SEGMENT
_message$3$ = -4					; size = 4
$T1 = 8							; size = 4
_iconbytes$1$ = 8					; size = 4
_dsl$ = 8						; size = 4
_svs$ = 12						; size = 4
_bytes$ = 16						; size = 4
_message$ = 20						; size = 4
_msgListing PROC					; COMDAT
; File C:\Program Files (x86)\Steam\steamapps\common\Bully Scholarship Edition\_derpy_script_loader\src\client\client.c
; Line 255
	push	ecx
	push	ebx
; Line 261
	mov	ebx, DWORD PTR _dsl$[esp+4]
	push	ebp
	push	edi
; Line 262
	push	492					; 000001ecH
	mov	edi, DWORD PTR [ebx+40]
	call	_malloc
	mov	ebp, eax
	add	esp, 4
; Line 263
	test	ebp, ebp
	jne	SHORT $LN2@msgListing
; Line 264
	push	OFFSET ??_C@_0P@EBDHILEP@server?5listing@
	lea	eax, DWORD PTR [edi+32932]
	push	OFFSET ??_C@_0CB@POMNIGMM@failed?5to?5allocate?5memory?5for?5?$CF@
	push	eax
	call	_sprintf
	add	esp, 12					; 0000000cH
; Line 265
	lea	eax, DWORD PTR [ebp+1]
	pop	edi
; Line 320
	pop	ebp
	pop	ebx
	pop	ecx
	ret	0
$LN2@msgListing:
; Line 267
	mov	eax, DWORD PTR _svs$[esp+12]
	push	esi
; Line 269
	push	50					; 00000032H
	push	ebp
	mov	DWORD PTR [eax+80], ebp
	lea	eax, DWORD PTR _message$[esp+24]
	push	eax
	lea	eax, DWORD PTR _bytes$[esp+28]
	push	eax
	push	edi
	call	_getMsgString
	add	esp, 20					; 00000014H
	test	eax, eax
	jne	$LN22@msgListing
; Line 271
	push	400					; 00000190H
	lea	eax, DWORD PTR [ebp+51]
	push	eax
	lea	eax, DWORD PTR _message$[esp+24]
	push	eax
	lea	eax, DWORD PTR _bytes$[esp+28]
	push	eax
	push	edi
	call	_getMsgString
	add	esp, 20					; 00000014H
	test	eax, eax
	jne	$LN22@msgListing
; Line 273
	push	20					; 00000014H
	lea	eax, DWORD PTR [ebp+452]
	push	eax
	lea	eax, DWORD PTR _message$[esp+24]
	push	eax
	lea	eax, DWORD PTR _bytes$[esp+28]
	push	eax
	push	edi
	call	_getMsgString
	add	esp, 20					; 00000014H
	test	eax, eax
	jne	$LN22@msgListing
; Line 275
	push	4
	lea	eax, DWORD PTR _bytes$[esp+20]
	push	eax
	push	edi
	call	_useMsgBytes
	add	esp, 12					; 0000000cH
	test	eax, eax
	jne	$LN22@msgListing
; Line 277
	mov	eax, DWORD PTR _message$[esp+16]
	mov	ecx, DWORD PTR [eax]
	lea	esi, DWORD PTR [eax+4]
	mov	DWORD PTR _iconbytes$1$[esp+16], ecx
	mov	DWORD PTR _message$3$[esp+20], esi
; Line 278
	test	ecx, ecx
	je	$LN7@msgListing
; Line 279
	push	ecx
	lea	eax, DWORD PTR _bytes$[esp+20]
	push	eax
	push	edi
	call	_useMsgBytes
	add	esp, 12					; 0000000cH
	test	eax, eax
	jne	SHORT $LN22@msgListing
; Line 107
	push	1
	push	OFFSET ??_C@_0CG@PDGCLHEA@_derpy_script_loader?1cache?1serv@
	call	_checkDslPathExists
	add	esp, 8
	test	eax, eax
	jne	SHORT $LN16@msgListing
; Line 108
	mov	ecx, DWORD PTR [ebx+40]
	movups	xmm0, XMMWORD PTR ??_C@_0CH@EMLNOIE@failed?5to?5create?5cache?5for?5serv@
	movups	XMMWORD PTR [ecx+32932], xmm0
	movups	xmm0, XMMWORD PTR ??_C@_0CH@EMLNOIE@failed?5to?5create?5cache?5for?5serv@+16
	movups	XMMWORD PTR [ecx+32948], xmm0
	mov	eax, DWORD PTR ??_C@_0CH@EMLNOIE@failed?5to?5create?5cache?5for?5serv@+32
	mov	DWORD PTR [ecx+32964], eax
	mov	ax, WORD PTR ??_C@_0CH@EMLNOIE@failed?5to?5create?5cache?5for?5serv@+36
	mov	WORD PTR [ecx+32968], ax
	mov	al, BYTE PTR ??_C@_0CH@EMLNOIE@failed?5to?5create?5cache?5for?5serv@+38
	mov	BYTE PTR [ecx+32970], al
$LN22@msgListing:
	pop	esi
	pop	edi
; Line 320
	pop	ebp
	mov	eax, 1
	pop	ebx
	pop	ecx
	ret	0
$LN16@msgListing:
; Line 111
	push	OFFSET ??_C@_02GMLFBBN@wb@
	push	OFFSET ??_C@_0CG@PDGCLHEA@_derpy_script_loader?1cache?1serv@
	call	_fopen
	mov	esi, eax
	add	esp, 8
; Line 112
	test	esi, esi
	jne	SHORT $LN17@msgListing
; Line 113
	call	__errno
	push	OFFSET ??_C@_0CG@PDGCLHEA@_derpy_script_loader?1cache?1serv@
	push	DWORD PTR [eax]
	call	_strerror
	add	esp, 4
	push	eax
	mov	eax, DWORD PTR [ebx+40]
	add	eax, 32932				; 000080a4H
	push	OFFSET ??_C@_0CL@BBKGFAME@failed?5to?5create?5server?5icon?5fi@
	push	eax
	call	_sprintf
	add	esp, 16					; 00000010H
; Line 287
	lea	eax, DWORD PTR [esi+1]
	pop	esi
	pop	edi
; Line 320
	pop	ebp
	pop	ebx
	pop	ecx
	ret	0
$LN17@msgListing:
; Line 116
	push	esi
	push	1
	push	DWORD PTR _iconbytes$1$[esp+24]
	push	DWORD PTR _message$3$[esp+32]
	call	_fwrite
	add	esp, 16					; 00000010H
	push	esi
	test	eax, eax
	jne	SHORT $LN18@msgListing
; Line 117
	mov	ecx, DWORD PTR [ebx+40]
	movups	xmm0, XMMWORD PTR ??_C@_0CB@DIMMDOBO@failed?5to?5write?5server?5icon?5fil@
	movups	XMMWORD PTR [ecx+32932], xmm0
	movups	xmm0, XMMWORD PTR ??_C@_0CB@DIMMDOBO@failed?5to?5write?5server?5icon?5fil@+16
	movups	XMMWORD PTR [ecx+32948], xmm0
	mov	al, BYTE PTR ??_C@_0CB@DIMMDOBO@failed?5to?5write?5server?5icon?5fil@+32
	mov	BYTE PTR [ecx+32964], al
; Line 118
	call	_fclose
	add	esp, 4
; Line 287
	mov	eax, 1
	pop	esi
	pop	edi
; Line 320
	pop	ebp
	pop	ebx
	pop	ecx
	ret	0
$LN18@msgListing:
; Line 121
	call	_fclose
; Line 122
	mov	esi, DWORD PTR [ebx+4]
; Line 123
	push	0
	push	OFFSET _createListingTexture2
	push	esi
	call	_lua_pushcclosure
; Line 124
	push	DWORD PTR [ebx+12]
	push	esi
	call	_lua_pushlightuserdata
; Line 125
	push	0
	push	1
	push	1
	push	esi
	call	_lua_pcall
	add	esp, 40					; 00000028H
	push	-1
	push	esi
	test	eax, eax
	je	SHORT $LN19@msgListing
; Line 126
	call	_lua_tostring
; Line 127
	test	eax, eax
	mov	ecx, OFFSET ??_C@_0BK@FGOEOOHP@an?5unknown?5error?5occurred@
	cmovne	ecx, eax
	mov	eax, DWORD PTR [ebx+40]
	push	ecx
	add	eax, 32932				; 000080a4H
	push	OFFSET ??_C@_0CK@NFFCDECD@failed?5to?5create?5server?5icon?5te@
	push	eax
	call	_sprintf
; Line 128
	push	-2					; fffffffeH
	push	esi
	call	_lua_settop
	add	esp, 28					; 0000001cH
; Line 287
	mov	eax, 1
	pop	esi
	pop	edi
; Line 320
	pop	ebp
	pop	ebx
	pop	ecx
	ret	0
$LN19@msgListing:
; Line 131
	call	_lua_touserdata
; Line 132
	push	-10000					; ffffd8f0H
	push	esi
	mov	eax, DWORD PTR [eax+4]
	mov	DWORD PTR [ebp+480], eax
	call	_luaL_ref
	mov	DWORD PTR [ebp+476], eax
	add	esp, 16					; 00000010H
; Line 283
	mov	eax, DWORD PTR _iconbytes$1$[esp+16]
	add	eax, DWORD PTR _message$3$[esp+20]
	mov	DWORD PTR $T1[esp+16], eax
	mov	esi, eax
; Line 284
	jmp	SHORT $LN8@msgListing
$LN7@msgListing:
; Line 285
	mov	DWORD PTR [ebp+476], -2			; fffffffeH
	mov	DWORD PTR $T1[esp+16], esi
$LN8@msgListing:
; Line 286
	push	4
	lea	eax, DWORD PTR _bytes$[esp+20]
	push	eax
	push	edi
	call	_useMsgBytes
	add	esp, 12					; 0000000cH
	test	eax, eax
	jne	$LN22@msgListing
; Line 288
	movzx	eax, WORD PTR [esi]
; Line 290
	mov	esi, DWORD PTR [ebx+4]
	mov	DWORD PTR [ebp+484], eax
	mov	eax, DWORD PTR $T1[esp+16]
	movzx	eax, WORD PTR [eax+2]
	mov	DWORD PTR [ebp+488], eax
; Line 291
	mov	eax, DWORD PTR _svs$[esp+16]
	add	eax, 16					; 00000010H
	push	eax
	push	esi
	call	_lua_pushstring
; Line 292
	push	esi
	call	_lua_newtable
; Line 293
	push	OFFSET ??_C@_04MEMAJGDJ@name@
	push	esi
	call	_lua_pushstring
; Line 294
	push	ebp
	push	esi
	call	_lua_pushstring
; Line 295
	push	-3					; fffffffdH
	push	esi
	call	_lua_rawset
; Line 296
	push	OFFSET ??_C@_04NIDJFNBE@info@
	push	esi
	call	_lua_pushstring
; Line 297
	lea	eax, DWORD PTR [ebp+51]
	push	eax
	push	esi
	call	_lua_pushstring
; Line 298
	push	-3					; fffffffdH
	push	esi
	call	_lua_rawset
; Line 299
	push	OFFSET ??_C@_04GMGOKAFF@mode@
	push	esi
	call	_lua_pushstring
	add	esp, 68					; 00000044H
; Line 300
	lea	eax, DWORD PTR [ebp+452]
	push	eax
	push	esi
	call	_lua_pushstring
; Line 301
	push	-3					; fffffffdH
	push	esi
	call	_lua_rawset
; Line 302
	push	OFFSET ??_C@_04DMJJIPAH@icon@
	push	esi
	call	_lua_pushstring
; Line 303
	push	DWORD PTR [ebp+476]
	push	-10000					; ffffd8f0H
	push	esi
	call	_lua_rawgeti
; Line 304
	push	-3					; fffffffdH
	push	esi
	call	_lua_rawset
; Line 305
	push	OFFSET ??_C@_07BCGOFIOM@players@
	push	esi
	call	_lua_pushstring
; Line 306
	mov	eax, DWORD PTR [ebp+484]
	add	esp, 48					; 00000030H
	movd	xmm0, eax
	cvtdq2pd xmm0, xmm0
	shr	eax, 31					; 0000001fH
	addsd	xmm0, QWORD PTR __xmm@41f00000000000000000000000000000[eax*8]
	cvtpd2ps xmm0, xmm0
	movss	DWORD PTR [esp], xmm0
	push	esi
	call	_lua_pushnumber
; Line 307
	push	-3					; fffffffdH
	push	esi
	call	_lua_rawset
; Line 308
	push	OFFSET ??_C@_0M@GDELCODP@max_players@
	push	esi
	call	_lua_pushstring
; Line 309
	mov	eax, DWORD PTR [ebp+488]
	movd	xmm0, eax
	cvtdq2pd xmm0, xmm0
	shr	eax, 31					; 0000001fH
	add	esp, 20					; 00000014H
	addsd	xmm0, QWORD PTR __xmm@41f00000000000000000000000000000[eax*8]
	cvtpd2ps xmm0, xmm0
	movss	DWORD PTR [esp], xmm0
	push	esi
	call	_lua_pushnumber
; Line 310
	push	-3					; fffffffdH
	push	esi
	call	_lua_rawset
; Line 311
	push	2
	push	OFFSET ??_C@_0O@JOKMOGLI@ServerListing@
	push	0
	push	DWORD PTR [ebx+4]
	push	DWORD PTR [ebx+20]
	call	_runLuaScriptEvent
; Line 312
	push	-3					; fffffffdH
	push	esi
	call	_lua_settop
; Line 313
	mov	ebp, DWORD PTR _svs$[esp+60]
	add	esp, 44					; 0000002cH
	test	BYTE PTR [ebp], 16			; 00000010H
	je	SHORT $LN12@msgListing
; Line 314
	mov	eax, DWORD PTR [edi+152]
	test	eax, eax
	je	SHORT $LN13@msgListing
; Line 315
	push	eax
	push	ebx
	call	_destroyListing
	add	esp, 8
$LN13@msgListing:
; Line 316
	mov	eax, DWORD PTR [ebp+80]
	mov	DWORD PTR [edi+152], eax
; Line 317
	mov	DWORD PTR [ebp+80], 0
$LN12@msgListing:
; Line 320
	pop	esi
	pop	edi
	pop	ebp
	mov	eax, 2
	pop	ebx
	pop	ecx
	ret	0
_msgListing ENDP
_TEXT	ENDS
; Function compile flags: /Ogtpy
;	COMDAT _msgWhatup
_TEXT	SEGMENT
_buffer$ = -36						; size = 32
__$ArrayPad$ = -4					; size = 4
_dsl$ = 8						; size = 4
_svs$ = 12						; size = 4
_bytes$ = 16						; size = 4
_message$ = 20						; size = 4
_msgWhatup PROC						; COMDAT
; File C:\Program Files (x86)\Steam\steamapps\common\Bully Scholarship Edition\_derpy_script_loader\src\client\client.c
; Line 232
	sub	esp, 36					; 00000024H
	mov	eax, DWORD PTR ___security_cookie
	xor	eax, esp
	mov	DWORD PTR __$ArrayPad$[esp+36], eax
	mov	eax, DWORD PTR _dsl$[esp+32]
	push	ebx
	push	esi
	mov	esi, DWORD PTR _svs$[esp+40]
; Line 237
	push	0
	push	OFFSET ??_C@_08ODGEKKOL@username@
	push	DWORD PTR [eax+8]
	call	_getConfigStringArray
	add	esp, 12					; 0000000cH
; Line 238
	mov	ebx, OFFSET ??_C@_06BALNJMNP@player@
	test	eax, eax
	cmovne	ebx, eax
; Line 240
	mov	ecx, ebx
	lea	edx, DWORD PTR [ecx+1]
	npad	7
$LL28@msgWhatup:
	mov	al, BYTE PTR [ecx]
	inc	ecx
	test	al, al
	jne	SHORT $LL28@msgWhatup
	sub	ecx, edx
	cmp	ecx, 32					; 00000020H
	jb	SHORT $LN3@msgWhatup
; Line 241
	push	31					; 0000001fH
	lea	eax, DWORD PTR _buffer$[esp+48]
	push	ebx
	push	eax
	call	_strncpy
	add	esp, 12					; 0000000cH
; Line 242
	mov	BYTE PTR _buffer$[esp+75], 0
	mov	ebx, eax
$LN3@msgWhatup:
; Line 244
	mov	ecx, ebx
	lea	edx, DWORD PTR [ecx+1]
	npad	6
$LL29@msgWhatup:
	mov	al, BYTE PTR [ecx]
	inc	ecx
	test	al, al
	jne	SHORT $LL29@msgWhatup
	sub	ecx, edx
; Line 147
	mov	edx, DWORD PTR [esi+1048668]
; Line 244
	lea	eax, DWORD PTR [ecx+17]
; Line 147
	lea	ecx, DWORD PTR [edx+4]
	cmp	ecx, 1048576				; 00100000H
	jg	SHORT $LN9@msgWhatup
; Line 148
	mov	DWORD PTR [edx+esi+92], eax
; Line 149
	add	DWORD PTR [esi+1048668], 4
	mov	edx, DWORD PTR [esi+1048668]
; Line 150
	jmp	SHORT $LN33@msgWhatup
$LN9@msgWhatup:
; Line 151
	or	DWORD PTR [esi], 8
$LN33@msgWhatup:
; Line 246
	mov	ecx, DWORD PTR [esi]
	mov	eax, ecx
	shr	eax, 1
	not	al
	and	al, 1
; Line 147
	cmp	edx, 1048576				; 00100000H
	jge	SHORT $LN13@msgWhatup
; Line 148
	mov	BYTE PTR [edx+esi+92], al
; Line 149
	inc	DWORD PTR [esi+1048668]
	mov	edx, DWORD PTR [esi+1048668]
; Line 150
	jmp	SHORT $LN14@msgWhatup
$LN13@msgWhatup:
; Line 151
	or	ecx, 8
	mov	DWORD PTR [esi], ecx
$LN14@msgWhatup:
; Line 147
	lea	eax, DWORD PTR [edx+4]
	cmp	eax, 1048576				; 00100000H
	jg	SHORT $LN17@msgWhatup
; Line 148
	mov	DWORD PTR [edx+esi+92], 8
; Line 149
	add	DWORD PTR [esi+1048668], 4
	mov	edx, DWORD PTR [esi+1048668]
; Line 150
	jmp	SHORT $LN18@msgWhatup
$LN17@msgWhatup:
; Line 151
	or	DWORD PTR [esi], 8
$LN18@msgWhatup:
; Line 147
	lea	eax, DWORD PTR [edx+8]
	cmp	eax, 1048576				; 00100000H
	jg	SHORT $LN21@msgWhatup
; Line 148
	mov	DWORD PTR [edx+esi+92], 947090276	; 38737364H
	mov	DWORD PTR [edx+esi+96], 7759204		; 00766564H
; Line 149
	add	DWORD PTR [esi+1048668], 8
	mov	edx, DWORD PTR [esi+1048668]
; Line 150
	jmp	SHORT $LN22@msgWhatup
$LN21@msgWhatup:
; Line 151
	or	DWORD PTR [esi], 8
$LN22@msgWhatup:
; Line 251
	cmp	BYTE PTR [ebx], 0
	je	SHORT $LN31@msgWhatup
; Line 252
	push	edi
	mov	edi, ebx
	lea	ecx, DWORD PTR [edi+1]
$LL30@msgWhatup:
	mov	al, BYTE PTR [edi]
	inc	edi
	test	al, al
	jne	SHORT $LL30@msgWhatup
	sub	edi, ecx
; Line 147
	lea	eax, DWORD PTR [edx+edi]
	cmp	eax, 1048576				; 00100000H
	jg	SHORT $LN25@msgWhatup
; Line 148
	push	edi
	lea	eax, DWORD PTR [esi+92]
	add	eax, edx
	push	ebx
	push	eax
	call	_memcpy
; Line 149
	add	DWORD PTR [esi+1048668], edi
	add	esp, 12					; 0000000cH
; Line 254
	xor	eax, eax
	pop	edi
	pop	esi
	pop	ebx
	mov	ecx, DWORD PTR __$ArrayPad$[esp+36]
	xor	ecx, esp
	call	@__security_check_cookie@4
	add	esp, 36					; 00000024H
	ret	0
$LN25@msgWhatup:
; Line 151
	or	DWORD PTR [esi], 8
	pop	edi
$LN31@msgWhatup:
; Line 254
	mov	ecx, DWORD PTR __$ArrayPad$[esp+44]
	xor	eax, eax
	pop	esi
	pop	ebx
	xor	ecx, esp
	call	@__security_check_cookie@4
	add	esp, 36					; 00000024H
	ret	0
_msgWhatup ENDP
_TEXT	ENDS
; Function compile flags: /Ogtpy
;	COMDAT _msgKicked
_TEXT	SEGMENT
_dsl$ = 8						; size = 4
_svs$ = 12						; size = 4
_bytes$ = 16						; size = 4
_message$ = 20						; size = 4
_msgKicked PROC						; COMDAT
; File C:\Program Files (x86)\Steam\steamapps\common\Bully Scholarship Edition\_derpy_script_loader\src\client\client.c
; Line 213
	push	ebx
; Line 217
	mov	ebx, DWORD PTR _svs$[esp]
	test	BYTE PTR [ebx], 2
	jne	SHORT $LN6@msgKicked
; Line 220
	push	ebp
	mov	ebp, DWORD PTR _bytes$[esp+4]
	push	esi
	push	edi
	mov	edi, DWORD PTR _dsl$[esp+12]
	push	ebp
	push	DWORD PTR _message$[esp+16]
	mov	esi, DWORD PTR [edi+4]
	push	esi
	call	_lua_pushlstring
; Line 221
	push	1
	push	OFFSET ??_C@_0N@EFGNBANH@ServerKicked@
	push	0
	push	esi
	push	DWORD PTR [edi+20]
	call	_runLuaScriptEvent
; Line 222
	push	-2					; fffffffeH
	push	esi
	call	_lua_settop
	mov	ecx, DWORD PTR [edi+24]
	lea	eax, DWORD PTR [ebx+16]
	add	esp, 40					; 00000028H
; Line 223
	test	ebp, ebp
	je	SHORT $LN3@msgKicked
; Line 224
	push	DWORD PTR _message$[esp+12]
	push	ebp
	push	eax
	push	OFFSET ??_C@_0BO@NHBJACHI@?$HL?$CFs?$HN?5kicked?5from?5server?3?5?$CF?4?$CKs@
	push	0
	push	ecx
	call	_printConsoleFormatted
	add	esp, 24					; 00000018H
; Line 231
	mov	eax, 2
	or	DWORD PTR [ebx], 32			; 00000020H
	pop	edi
	pop	esi
	pop	ebp
	pop	ebx
	ret	0
$LN3@msgKicked:
; Line 226
	push	eax
	push	OFFSET ??_C@_0BI@GEKFNGMD@?$HL?$CFs?$HN?5kicked?5from?5server@
	push	0
	push	ecx
	call	_printConsoleFormatted
	add	esp, 16					; 00000010H
; Line 228
	or	DWORD PTR [ebx], 32			; 00000020H
; Line 230
	pop	edi
	pop	esi
	pop	ebp
$LN6@msgKicked:
; Line 231
	mov	eax, 2
	pop	ebx
	ret	0
_msgKicked ENDP
_TEXT	ENDS
; Function compile flags: /Ogtpy
;	COMDAT _useMsgBytes
_TEXT	SEGMENT
_net$ = 8						; size = 4
_bytes$ = 12						; size = 4
_needed$ = 16						; size = 4
_useMsgBytes PROC					; COMDAT
; File C:\Program Files (x86)\Steam\steamapps\common\Bully Scholarship Edition\_derpy_script_loader\src\client\client.c
; Line 204
	mov	ecx, DWORD PTR _bytes$[esp-4]
	mov	edx, DWORD PTR _needed$[esp-4]
	mov	eax, DWORD PTR [ecx]
	cmp	eax, edx
	jae	SHORT $LN2@useMsgByte
; Line 205
	mov	ecx, DWORD PTR _net$[esp-4]
	movups	xmm0, XMMWORD PTR ??_C@_0BF@MOFIPCJH@invalid?5message?5size@
	movups	XMMWORD PTR [ecx+32932], xmm0
	mov	eax, DWORD PTR ??_C@_0BF@MOFIPCJH@invalid?5message?5size@+16
	mov	DWORD PTR [ecx+32948], eax
	mov	al, BYTE PTR ??_C@_0BF@MOFIPCJH@invalid?5message?5size@+20
	mov	BYTE PTR [ecx+32952], al
; Line 206
	mov	eax, 1
; Line 210
	ret	0
$LN2@useMsgByte:
; Line 208
	sub	eax, edx
	mov	DWORD PTR [ecx], eax
; Line 209
	xor	eax, eax
; Line 210
	ret	0
_useMsgBytes ENDP
_TEXT	ENDS
; Function compile flags: /Ogtpy
;	COMDAT _getMsgString
_TEXT	SEGMENT
_net$ = 8						; size = 4
_bytes$ = 12						; size = 4
_message$ = 16						; size = 4
_buffer$ = 20						; size = 4
_length$ = 24						; size = 4
_getMsgString PROC					; COMDAT
; File C:\Program Files (x86)\Steam\steamapps\common\Bully Scholarship Edition\_derpy_script_loader\src\client\client.c
; Line 181
	push	ebx
; Line 185
	mov	ebx, DWORD PTR _message$[esp]
; Line 186
	xor	ecx, ecx
	push	edi
	mov	edi, DWORD PTR _bytes$[esp+4]
	mov	edx, DWORD PTR [ebx]
	mov	eax, DWORD PTR [edi]
	test	eax, eax
	je	SHORT $LN3@getMsgStri
$LL4@getMsgStri:
; Line 187
	cmp	BYTE PTR [ecx+edx], 0
	je	SHORT $LN12@getMsgStri
; Line 186
	inc	ecx
	cmp	ecx, eax
	jb	SHORT $LL4@getMsgStri
$LN3@getMsgStri:
; Line 200
	mov	ecx, DWORD PTR _net$[esp+4]
	movups	xmm0, XMMWORD PTR ??_C@_0BM@CNFDKKBF@corrupted?5string?5in?5message@
	pop	edi
; Line 202
	pop	ebx
	movups	XMMWORD PTR [ecx+32932], xmm0
	movq	xmm0, QWORD PTR ??_C@_0BM@CNFDKKBF@corrupted?5string?5in?5message@+16
	movq	QWORD PTR [ecx+32948], xmm0
	mov	eax, DWORD PTR ??_C@_0BM@CNFDKKBF@corrupted?5string?5in?5message@+24
	mov	DWORD PTR [ecx+32956], eax
	mov	eax, 1
	ret	0
$LN12@getMsgStri:
	push	esi
; Line 188
	mov	esi, DWORD PTR _buffer$[esp+8]
	test	esi, esi
	je	SHORT $LN6@getMsgStri
; Line 189
	cmp	ecx, DWORD PTR _length$[esp+8]
	jbe	SHORT $LL7@getMsgStri
; Line 190
	mov	ecx, DWORD PTR _net$[esp+8]
	movups	xmm0, XMMWORD PTR ??_C@_0BM@EHPHPBCH@oversized?5string?5in?5message@
	pop	esi
	pop	edi
	movups	XMMWORD PTR [ecx+32932], xmm0
; Line 202
	pop	ebx
	movq	xmm0, QWORD PTR ??_C@_0BM@EHPHPBCH@oversized?5string?5in?5message@+16
	movq	QWORD PTR [ecx+32948], xmm0
	mov	eax, DWORD PTR ??_C@_0BM@EHPHPBCH@oversized?5string?5in?5message@+24
	mov	DWORD PTR [ecx+32956], eax
	mov	eax, 1
	ret	0
	npad	7
$LL7@getMsgStri:
; Line 193
	mov	al, BYTE PTR [edx]
	lea	edx, DWORD PTR [edx+1]
	mov	BYTE PTR [esi], al
	lea	esi, DWORD PTR [esi+1]
	test	al, al
	jne	SHORT $LL7@getMsgStri
	mov	eax, DWORD PTR [edi]
$LN6@getMsgStri:
; Line 195
	inc	ecx
; Line 196
	sub	eax, ecx
	mov	DWORD PTR [edi], eax
; Line 198
	xor	eax, eax
	add	DWORD PTR [ebx], ecx
	pop	esi
	pop	edi
; Line 202
	pop	ebx
	ret	0
_getMsgString ENDP
_TEXT	ENDS
; Function compile flags: /Ogtpy
;	COMDAT _sendBasicMessage
_TEXT	SEGMENT
_svs$ = 8						; size = 4
_msg$ = 12						; size = 1
_sendBasicMessage PROC					; COMDAT
; File C:\Program Files (x86)\Steam\steamapps\common\Bully Scholarship Edition\_derpy_script_loader\src\client\client.c
; Line 147
	mov	ecx, DWORD PTR _svs$[esp-4]
	mov	edx, DWORD PTR [ecx+1048668]
	lea	eax, DWORD PTR [edx+4]
	cmp	eax, 1048576				; 00100000H
	jg	SHORT $LN4@sendBasicM
; Line 148
	mov	DWORD PTR [edx+ecx+92], 5
; Line 149
	add	DWORD PTR [ecx+1048668], 4
	mov	edx, DWORD PTR [ecx+1048668]
; Line 150
	jmp	SHORT $LN5@sendBasicM
$LN4@sendBasicM:
; Line 151
	or	DWORD PTR [ecx], 8
$LN5@sendBasicM:
; Line 147
	cmp	edx, 1048576				; 00100000H
	jge	SHORT $LN8@sendBasicM
; Line 148
	mov	al, BYTE PTR _msg$[esp-4]
	mov	BYTE PTR [edx+ecx+92], al
; Line 149
	inc	DWORD PTR [ecx+1048668]
; Line 159
	ret	0
$LN8@sendBasicM:
; Line 151
	or	DWORD PTR [ecx], 8
; Line 159
	ret	0
_sendBasicMessage ENDP
_TEXT	ENDS
; Function compile flags: /Ogtpy
;	COMDAT _sendBytes
_TEXT	SEGMENT
_svs$ = 8						; size = 4
_buffer$ = 12						; size = 4
_bytes$ = 16						; size = 4
_sendBytes PROC						; COMDAT
; File C:\Program Files (x86)\Steam\steamapps\common\Bully Scholarship Edition\_derpy_script_loader\src\client\client.c
; Line 146
	push	esi
; Line 147
	mov	esi, DWORD PTR _svs$[esp]
	push	edi
	mov	edi, DWORD PTR _bytes$[esp+4]
	mov	ecx, DWORD PTR [esi+1048668]
	lea	eax, DWORD PTR [ecx+edi]
	cmp	eax, 1048576				; 00100000H
	jg	SHORT $LN2@sendBytes
; Line 148
	push	edi
	push	DWORD PTR _buffer$[esp+8]
	lea	eax, DWORD PTR [esi+92]
	add	eax, ecx
	push	eax
	call	_memcpy
	add	esp, 12					; 0000000cH
; Line 149
	add	DWORD PTR [esi+1048668], edi
	pop	edi
; Line 152
	pop	esi
	ret	0
$LN2@sendBytes:
; Line 151
	or	DWORD PTR [esi], 8
	pop	edi
; Line 152
	pop	esi
	ret	0
_sendBytes ENDP
_TEXT	ENDS
; Function compile flags: /Ogtpy
;	COMDAT _freeNetworkScripts
_TEXT	SEGMENT
_ns$ = 8						; size = 4
_freeNetworkScripts PROC				; COMDAT
; File C:\Program Files (x86)\Steam\steamapps\common\Bully Scholarship Edition\_derpy_script_loader\src\client\client.c
; Line 137
	push	esi
; Line 138
	mov	esi, DWORD PTR _ns$[esp]
	mov	eax, DWORD PTR [esi+4]
	test	eax, eax
	je	SHORT $LN2@freeNetwor
; Line 139
	push	eax
	call	_free
	add	esp, 4
$LN2@freeNetwor:
; Line 140
	push	esi
	call	_free
	add	esp, 4
	pop	esi
; Line 141
	ret	0
_freeNetworkScripts ENDP
_TEXT	ENDS
; Function compile flags: /Ogtpy
;	COMDAT _createListingTexture
_TEXT	SEGMENT
_dsl$ = 8						; size = 4
_listing$ = 12						; size = 4
_data$ = 16						; size = 4
_iconbytes$ = 20					; size = 4
_createListingTexture PROC				; COMDAT
; File C:\Program Files (x86)\Steam\steamapps\common\Bully Scholarship Edition\_derpy_script_loader\src\client\client.c
; Line 107
	push	1
	push	OFFSET ??_C@_0CG@PDGCLHEA@_derpy_script_loader?1cache?1serv@
	call	_checkDslPathExists
	add	esp, 8
	test	eax, eax
	jne	SHORT $LN2@createList
; Line 108
	mov	eax, DWORD PTR _dsl$[esp-4]
	movups	xmm0, XMMWORD PTR ??_C@_0CH@EMLNOIE@failed?5to?5create?5cache?5for?5serv@
	mov	ecx, DWORD PTR [eax+40]
	movups	XMMWORD PTR [ecx+32932], xmm0
	movups	xmm0, XMMWORD PTR ??_C@_0CH@EMLNOIE@failed?5to?5create?5cache?5for?5serv@+16
	movups	XMMWORD PTR [ecx+32948], xmm0
	mov	eax, DWORD PTR ??_C@_0CH@EMLNOIE@failed?5to?5create?5cache?5for?5serv@+32
	mov	DWORD PTR [ecx+32964], eax
	mov	ax, WORD PTR ??_C@_0CH@EMLNOIE@failed?5to?5create?5cache?5for?5serv@+36
	mov	WORD PTR [ecx+32968], ax
	mov	al, BYTE PTR ??_C@_0CH@EMLNOIE@failed?5to?5create?5cache?5for?5serv@+38
	mov	BYTE PTR [ecx+32970], al
; Line 109
	mov	eax, 1
; Line 134
	ret	0
$LN2@createList:
	push	esi
; Line 111
	push	OFFSET ??_C@_02GMLFBBN@wb@
	push	OFFSET ??_C@_0CG@PDGCLHEA@_derpy_script_loader?1cache?1serv@
	call	_fopen
	mov	esi, eax
	add	esp, 8
; Line 112
	test	esi, esi
	jne	SHORT $LN3@createList
; Line 113
	call	__errno
	push	OFFSET ??_C@_0CG@PDGCLHEA@_derpy_script_loader?1cache?1serv@
	push	DWORD PTR [eax]
	call	_strerror
	add	esp, 4
	push	eax
	mov	eax, DWORD PTR _dsl$[esp+8]
	push	OFFSET ??_C@_0CL@BBKGFAME@failed?5to?5create?5server?5icon?5fi@
	mov	eax, DWORD PTR [eax+40]
	add	eax, 32932				; 000080a4H
	push	eax
	call	_sprintf
	add	esp, 16					; 00000010H
; Line 114
	lea	eax, DWORD PTR [esi+1]
	pop	esi
; Line 134
	ret	0
$LN3@createList:
; Line 116
	push	esi
	push	1
	push	DWORD PTR _iconbytes$[esp+8]
	push	DWORD PTR _data$[esp+12]
	call	_fwrite
	add	esp, 16					; 00000010H
	test	eax, eax
	jne	SHORT $LN4@createList
; Line 117
	mov	eax, DWORD PTR _dsl$[esp]
	movups	xmm0, XMMWORD PTR ??_C@_0CB@DIMMDOBO@failed?5to?5write?5server?5icon?5fil@
; Line 118
	push	esi
	mov	ecx, DWORD PTR [eax+40]
	movups	XMMWORD PTR [ecx+32932], xmm0
	movups	xmm0, XMMWORD PTR ??_C@_0CB@DIMMDOBO@failed?5to?5write?5server?5icon?5fil@+16
	movups	XMMWORD PTR [ecx+32948], xmm0
	mov	al, BYTE PTR ??_C@_0CB@DIMMDOBO@failed?5to?5write?5server?5icon?5fil@+32
	mov	BYTE PTR [ecx+32964], al
	call	_fclose
	add	esp, 4
; Line 119
	mov	eax, 1
	pop	esi
; Line 134
	ret	0
$LN4@createList:
	push	edi
; Line 121
	push	esi
	call	_fclose
; Line 122
	mov	esi, DWORD PTR _dsl$[esp+8]
; Line 123
	push	0
	push	OFFSET _createListingTexture2
	mov	edi, DWORD PTR [esi+4]
	push	edi
	call	_lua_pushcclosure
; Line 124
	push	DWORD PTR [esi+12]
	push	edi
	call	_lua_pushlightuserdata
; Line 125
	push	0
	push	1
	push	1
	push	edi
	call	_lua_pcall
	add	esp, 40					; 00000028H
	push	-1
	push	edi
	test	eax, eax
	je	SHORT $LN5@createList
; Line 126
	call	_lua_tostring
; Line 127
	test	eax, eax
	mov	ecx, OFFSET ??_C@_0BK@FGOEOOHP@an?5unknown?5error?5occurred@
	cmovne	ecx, eax
	mov	eax, DWORD PTR [esi+40]
	push	ecx
	add	eax, 32932				; 000080a4H
	push	OFFSET ??_C@_0CK@NFFCDECD@failed?5to?5create?5server?5icon?5te@
	push	eax
	call	_sprintf
; Line 128
	push	-2					; fffffffeH
	push	edi
	call	_lua_settop
	add	esp, 28					; 0000001cH
; Line 129
	mov	eax, 1
	pop	edi
	pop	esi
; Line 134
	ret	0
$LN5@createList:
; Line 131
	call	_lua_touserdata
	mov	esi, DWORD PTR _listing$[esp+12]
; Line 132
	push	-10000					; ffffd8f0H
	push	edi
	mov	eax, DWORD PTR [eax+4]
	mov	DWORD PTR [esi+480], eax
	call	_luaL_ref
	add	esp, 16					; 00000010H
	mov	DWORD PTR [esi+476], eax
; Line 133
	xor	eax, eax
	pop	edi
	pop	esi
; Line 134
	ret	0
_createListingTexture ENDP
_TEXT	ENDS
; Function compile flags: /Ogtpy
;	COMDAT _createListingTexture2
_TEXT	SEGMENT
_lua$ = 8						; size = 4
_createListingTexture2 PROC				; COMDAT
; File C:\Program Files (x86)\Steam\steamapps\common\Bully Scholarship Edition\_derpy_script_loader\src\client\client.c
; Line 99
	push	OFFSET ??_C@_0CG@PDGCLHEA@_derpy_script_loader?1cache?1serv@
	push	OFFSET ??_C@_0M@JMBIONAO@server_icon@
	push	1
	push	DWORD PTR _lua$[esp+8]
	call	_lua_touserdata
	add	esp, 8
	push	eax
	push	DWORD PTR _lua$[esp+8]
	call	_createLuaTexture2
	add	esp, 16					; 00000010H
; Line 100
	mov	eax, 1
; Line 101
	ret	0
_createListingTexture2 ENDP
_TEXT	ENDS
; Function compile flags: /Ogtpy
;	COMDAT _destroyListing
_TEXT	SEGMENT
_dsl$ = 8						; size = 4
_listing$ = 12						; size = 4
_destroyListing PROC					; COMDAT
; File C:\Program Files (x86)\Steam\steamapps\common\Bully Scholarship Edition\_derpy_script_loader\src\client\client.c
; Line 94
	mov	eax, DWORD PTR _dsl$[esp-4]
	push	esi
	mov	esi, DWORD PTR _listing$[esp]
	test	eax, eax
	je	SHORT $LN2@destroyLis
	mov	ecx, DWORD PTR [esi+476]
	cmp	ecx, -2					; fffffffeH
	je	SHORT $LN2@destroyLis
; Line 95
	push	ecx
	push	-10000					; ffffd8f0H
	push	DWORD PTR [eax+4]
	call	_luaL_unref
	add	esp, 12					; 0000000cH
$LN2@destroyLis:
; Line 96
	push	esi
	call	_free
	add	esp, 4
	pop	esi
; Line 97
	ret	0
_destroyListing ENDP
_TEXT	ENDS
; Function compile flags: /Ogtpy
;	COMDAT _sendNetworkServerEvent
_TEXT	SEGMENT
_net$ = 8						; size = 4
_name$ = 12						; size = 4
_buffer$ = 16						; size = 4
_size$ = 20						; size = 4
_opt$ = 24						; size = 4
_sendNetworkServerEvent PROC				; COMDAT
; File C:\Program Files (x86)\Steam\steamapps\common\Bully Scholarship Edition\_derpy_script_loader\src\client\client.c
; Line 165
	mov	eax, DWORD PTR _net$[esp-4]
	push	ebx
	push	esi
	lea	esi, DWORD PTR [eax+33956]
	lea	ecx, DWORD PTR [eax+25200980]
	cmp	esi, ecx
	jae	SHORT $LN35@sendNetwor
$LL4@sendNetwor:
; Line 166
	cmp	DWORD PTR [esi+8], -1
	je	SHORT $LN2@sendNetwor
	mov	eax, DWORD PTR [esi]
	not	eax
	test	al, 2
	jne	SHORT $LN35@sendNetwor
$LN2@sendNetwor:
; Line 165
	add	esi, 2097252				; 00200064H
	cmp	esi, ecx
	jb	SHORT $LL4@sendNetwor
$LN35@sendNetwor:
; Line 168
	test	esi, esi
	je	$LN7@sendNetwor
	mov	ebx, DWORD PTR [esi]
	mov	eax, ebx
	not	eax
	test	al, al
	js	$LN7@sendNetwor
; Line 170
	push	ebp
	mov	ebp, DWORD PTR _name$[esp+8]
	mov	ecx, ebp
	push	edi
	lea	edx, DWORD PTR [ecx+1]
	npad	1
$LL33@sendNetwor:
	mov	al, BYTE PTR [ecx]
	inc	ecx
	test	al, al
	jne	SHORT $LL33@sendNetwor
	mov	edi, DWORD PTR _size$[esp+12]
	sub	ecx, edx
; Line 147
	mov	edx, DWORD PTR [esi+1048668]
; Line 170
	add	ecx, 6
	add	ecx, edi
; Line 147
	lea	eax, DWORD PTR [edx+4]
	cmp	eax, 1048576				; 00100000H
	jg	SHORT $LN13@sendNetwor
; Line 148
	mov	DWORD PTR [edx+esi+92], ecx
; Line 149
	add	DWORD PTR [esi+1048668], 4
	mov	edx, DWORD PTR [esi+1048668]
; Line 150
	jmp	SHORT $LN14@sendNetwor
$LN13@sendNetwor:
; Line 151
	or	ebx, 8
	mov	DWORD PTR [esi], ebx
$LN14@sendNetwor:
; Line 172
	test	edi, edi
	je	SHORT $LN10@sendNetwor
	cmp	DWORD PTR _opt$[esp+12], 0
	mov	al, 6
	jne	SHORT $LN11@sendNetwor
$LN10@sendNetwor:
	mov	al, 4
$LN11@sendNetwor:
; Line 147
	cmp	edx, 1048576				; 00100000H
	jge	SHORT $LN17@sendNetwor
; Line 148
	mov	BYTE PTR [edx+esi+92], al
; Line 149
	inc	DWORD PTR [esi+1048668]
	mov	edx, DWORD PTR [esi+1048668]
; Line 150
	jmp	SHORT $LN18@sendNetwor
$LN17@sendNetwor:
; Line 151
	or	DWORD PTR [esi], 8
$LN18@sendNetwor:
; Line 174
	mov	ecx, ebp
	lea	ebx, DWORD PTR [ecx+1]
	npad	5
$LL34@sendNetwor:
	mov	al, BYTE PTR [ecx]
	inc	ecx
	test	al, al
	jne	SHORT $LL34@sendNetwor
	sub	ecx, ebx
	lea	ebx, DWORD PTR [ecx+1]
; Line 147
	lea	eax, DWORD PTR [edx+ebx]
	cmp	eax, 1048576				; 00100000H
	jg	SHORT $LN21@sendNetwor
; Line 148
	push	ebx
	lea	eax, DWORD PTR [edx+92]
	add	eax, esi
	push	ebp
	push	eax
	call	_memcpy
	add	esp, 12					; 0000000cH
; Line 149
	add	DWORD PTR [esi+1048668], ebx
	mov	edx, DWORD PTR [esi+1048668]
; Line 150
	jmp	SHORT $LN22@sendNetwor
$LN21@sendNetwor:
; Line 151
	or	DWORD PTR [esi], 8
$LN22@sendNetwor:
; Line 175
	test	edi, edi
	je	SHORT $LN26@sendNetwor
; Line 147
	lea	eax, DWORD PTR [edx+edi]
	cmp	eax, 1048576				; 00100000H
	jg	SHORT $LN25@sendNetwor
; Line 148
	push	edi
	push	DWORD PTR _buffer$[esp+16]
	lea	eax, DWORD PTR [edx+92]
	add	eax, esi
	push	eax
	call	_memcpy
; Line 149
	add	DWORD PTR [esi+1048668], edi
	add	esp, 12					; 0000000cH
; Line 177
	xor	eax, eax
	pop	edi
	pop	ebp
	pop	esi
; Line 178
	pop	ebx
	ret	0
$LN25@sendNetwor:
; Line 151
	or	DWORD PTR [esi], 8
$LN26@sendNetwor:
; Line 177
	pop	edi
	pop	ebp
	pop	esi
	xor	eax, eax
; Line 178
	pop	ebx
	ret	0
$LN7@sendNetwor:
	pop	esi
; Line 169
	mov	eax, 1
; Line 178
	pop	ebx
	ret	0
_sendNetworkServerEvent ENDP
_TEXT	ENDS
; Function compile flags: /Ogtpy
;	COMDAT _preparedNetworkScripts
_TEXT	SEGMENT
_dsl$ = 8						; size = 4
_preparedNetworkScripts PROC				; COMDAT
; File C:\Program Files (x86)\Steam\steamapps\common\Bully Scholarship Edition\_derpy_script_loader\src\client\client.c
; Line 594
	push	ebx
; Line 600
	mov	ebx, DWORD PTR _dsl$[esp]
	push	ebp
	push	edi
	mov	edi, DWORD PTR [ebx+40]
; Line 601
	mov	ebp, DWORD PTR [edi+156]
	test	ebp, ebp
	je	$LN8@preparedNe
; Line 602
	test	BYTE PTR [edi], 32			; 00000020H
	je	$LN9@preparedNe
; Line 603
	push	esi
	lea	esi, DWORD PTR [edi+33956]
	lea	edx, DWORD PTR [edi+25200980]
	cmp	esi, edx
	jae	SHORT $LN25@preparedNe
$LL4@preparedNe:
; Line 604
	cmp	DWORD PTR [esi+8], -1
	je	SHORT $LN2@preparedNe
	mov	ecx, DWORD PTR [esi]
	mov	eax, ecx
	not	eax
	test	al, 2
	jne	SHORT $LN18@preparedNe
$LN2@preparedNe:
; Line 603
	add	esi, 2097252				; 00200064H
	cmp	esi, edx
	jb	SHORT $LL4@preparedNe
	jmp	SHORT $LN25@preparedNe
$LN18@preparedNe:
; Line 605
	test	al, al
	jns	SHORT $LN25@preparedNe
; Line 606
	and	ecx, -2					; fffffffeH
; Line 607
	or	ecx, 128				; 00000080H
; Line 608
	push	3
	push	esi
	mov	DWORD PTR [esi], ecx
	call	_sendBasicMessage
; Line 609
	lea	eax, DWORD PTR [esi+16]
	push	eax
	push	OFFSET ??_C@_0BO@BOOGHOOO@?$HL?$CFs?$HN?5starting?5network?5scripts@
	push	0
	push	DWORD PTR [ebx+24]
	call	_printConsoleFormatted
; Line 610
	push	0
	push	OFFSET ??_C@_0BA@EBAHGDPP@ServerConnected@
	push	0
	push	DWORD PTR [ebx+4]
	push	DWORD PTR [ebx+20]
	call	_runLuaScriptEvent
	add	esp, 44					; 0000002cH
$LN25@preparedNe:
; Line 614
	push	DWORD PTR [ebp+4]
	push	DWORD PTR [ebp]
	push	DWORD PTR [ebx+36]
	call	_refreshScriptLoaderServerScripts
; Line 615
	xor	ebx, ebx
	add	esp, 12					; 0000000cH
	cmp	DWORD PTR [edi+32928], ebx
	jbe	SHORT $LN6@preparedNe
	npad	6
$LL7@preparedNe:
; Line 616
	mov	eax, DWORD PTR _dsl$[esp+12]
	lea	esi, DWORD PTR [edi+160]
	add	esi, ebx
	push	esi
	push	DWORD PTR [ebp+4]
	push	DWORD PTR [ebp]
	push	DWORD PTR [eax+36]
	call	_restartScriptLoaderServerScript
	add	esp, 16					; 00000010H
; Line 617
	lea	ecx, DWORD PTR [esi+1]
$LL26@preparedNe:
	mov	al, BYTE PTR [esi]
	inc	esi
	test	al, al
	jne	SHORT $LL26@preparedNe
	sub	esi, ecx
	inc	ebx
	add	ebx, esi
	cmp	ebx, DWORD PTR [edi+32928]
	jb	SHORT $LL7@preparedNe
$LN6@preparedNe:
; Line 619
	push	DWORD PTR [ebp+4]
	mov	eax, DWORD PTR _dsl$[esp+16]
	push	DWORD PTR [ebp]
	push	DWORD PTR [eax+36]
	call	_ensureScriptLoaderServerScripts
	add	esp, 12					; 0000000cH
; Line 620
	mov	DWORD PTR [edi+32928], 0
	pop	esi
$LN9@preparedNe:
; Line 138
	mov	eax, DWORD PTR [ebp+4]
	test	eax, eax
	je	SHORT $LN14@preparedNe
; Line 139
	push	eax
	call	_free
	add	esp, 4
$LN14@preparedNe:
; Line 140
	push	ebp
	call	_free
	add	esp, 4
; Line 623
	mov	DWORD PTR [edi+156], 0
$LN8@preparedNe:
; Line 625
	pop	edi
	pop	ebp
	pop	ebx
	ret	0
_preparedNetworkScripts ENDP
_TEXT	ENDS
; Function compile flags: /Ogtpy
;	COMDAT _disconnectFromPlaying
_TEXT	SEGMENT
_dsl$ = 8						; size = 4
_disconnectFromPlaying PROC				; COMDAT
; File C:\Program Files (x86)\Steam\steamapps\common\Bully Scholarship Edition\_derpy_script_loader\src\client\client.c
; Line 662
	push	ebx
; Line 666
	mov	ebx, DWORD PTR _dsl$[esp]
	push	esi
	push	edi
	mov	edi, DWORD PTR [ebx+40]
; Line 667
	lea	esi, DWORD PTR [edi+33956]
	lea	ecx, DWORD PTR [edi+25200980]
	cmp	esi, ecx
	jae	SHORT $LN30@disconnect
	npad	6
$LL4@disconnect:
; Line 668
	cmp	DWORD PTR [esi+8], -1
	je	SHORT $LN2@disconnect
	mov	eax, DWORD PTR [esi]
	not	eax
	test	al, 2
	jne	SHORT $LN25@disconnect
$LN2@disconnect:
; Line 667
	add	esi, 2097252				; 00200064H
	cmp	esi, ecx
	jb	SHORT $LL4@disconnect
$LN30@disconnect:
	pop	edi
; Line 673
	pop	esi
	mov	eax, 1
	pop	ebx
	ret	0
$LN25@disconnect:
	push	ebp
; Line 636
	push	0
	push	OFFSET ??_C@_0BD@LIILCIND@ServerDisconnected@
	push	0
	push	DWORD PTR [ebx+4]
	push	DWORD PTR [ebx+20]
	call	_runLuaScriptEvent
; Line 637
	push	0
	push	DWORD PTR [ebx+36]
	call	_killScriptLoaderServerScripts
; Line 639
	mov	ebp, DWORD PTR [edi+156]
	add	esp, 28					; 0000001cH
	test	ebp, ebp
	je	SHORT $LN10@disconnect
; Line 138
	mov	eax, DWORD PTR [ebp+4]
	test	eax, eax
	je	SHORT $LN19@disconnect
; Line 139
	push	eax
	call	_free
	add	esp, 4
$LN19@disconnect:
; Line 140
	push	ebp
	call	_free
	add	esp, 4
; Line 641
	mov	DWORD PTR [edi+156], 0
$LN10@disconnect:
; Line 643
	and	DWORD PTR [edi], -33			; ffffffdfH
; Line 644
	mov	DWORD PTR [edi+32928], 0
; Line 646
	test	BYTE PTR [esi], 16			; 00000010H
	pop	ebp
	je	SHORT $LN11@disconnect
; Line 647
	and	DWORD PTR [edi], -17			; ffffffefH
$LN11@disconnect:
; Line 648
	mov	edi, DWORD PTR [esi+80]
	test	edi, edi
	je	SHORT $LN21@disconnect
; Line 94
	mov	eax, DWORD PTR [edi+476]
	cmp	eax, -2					; fffffffeH
	je	SHORT $LN22@disconnect
; Line 95
	push	eax
	push	-10000					; ffffd8f0H
	push	DWORD PTR [ebx+4]
	call	_luaL_unref
	add	esp, 12					; 0000000cH
$LN22@disconnect:
; Line 96
	push	edi
	call	_free
	add	esp, 4
$LN21@disconnect:
; Line 650
	mov	eax, DWORD PTR [esi+4]
	test	eax, eax
	je	SHORT $LN13@disconnect
; Line 651
	push	eax
	call	_fclose
	add	esp, 4
$LN13@disconnect:
; Line 652
	mov	eax, DWORD PTR [esi+84]
	test	eax, eax
	je	SHORT $LN14@disconnect
; Line 653
	push	eax
	call	_free
	add	esp, 4
$LN14@disconnect:
; Line 654
	mov	ecx, DWORD PTR [esi+8]
	cmp	ecx, -1
	je	SHORT $LN15@disconnect
; Line 655
	mov	eax, DWORD PTR [esi]
	not	eax
	test	al, 32					; 00000020H
	je	SHORT $LN16@disconnect
; Line 656
	lea	eax, DWORD PTR [esi+16]
	push	eax
	push	OFFSET ??_C@_0BO@EPNLKACD@?$HL?$CFs?$HN?5disconnected?5from?5server@
	push	0
	push	DWORD PTR [ebx+24]
	call	_printConsoleFormatted
	mov	ecx, DWORD PTR [esi+8]
	add	esp, 16					; 00000010H
$LN16@disconnect:
; Line 657
	push	ecx
	call	DWORD PTR __imp__closesocket@4
$LN15@disconnect:
; Line 659
	push	2097252					; 00200064H
	push	0
	push	esi
	call	_memset
	add	esp, 12					; 0000000cH
; Line 660
	mov	DWORD PTR [esi+8], -1
; Line 670
	xor	eax, eax
	pop	edi
; Line 673
	pop	esi
	pop	ebx
	ret	0
_disconnectFromPlaying ENDP
_TEXT	ENDS
; Function compile flags: /Ogtpy
;	COMDAT _promptNetworkServer
_TEXT	SEGMENT
_dsl$ = 8						; size = 4
_host$ = 12						; size = 4
_printerror$ = 16					; size = 4
_promptNetworkServer PROC				; COMDAT
; File C:\Program Files (x86)\Steam\steamapps\common\Bully Scholarship Edition\_derpy_script_loader\src\client\client.c
; Line 835
	push	ebx
	push	ebp
	push	esi
	push	edi
; Line 840
	mov	edi, DWORD PTR _host$[esp+12]
; Line 806
	xor	esi, esi
; Line 840
	mov	ecx, edi
; Line 806
	mov	dl, BYTE PTR [edi]
	test	dl, dl
	je	SHORT $LN42@promptNetw
$LL23@promptNetw:
	cmp	dl, 58					; 0000003aH
	mov	eax, ecx
	mov	dl, BYTE PTR [ecx+1]
	cmovne	eax, esi
	inc	ecx
	mov	esi, eax
	test	dl, dl
	jne	SHORT $LL23@promptNetw
; Line 809
	test	esi, esi
	je	SHORT $LN42@promptNetw
; Line 811
	mov	BYTE PTR [esi], dl
; Line 812
	inc	esi
	jmp	SHORT $LN20@promptNetw
$LN42@promptNetw:
; Line 810
	mov	esi, OFFSET ??_C@_05NHJPDJPA@17017@
$LN20@promptNetw:
; Line 841
	mov	ecx, edi
	lea	edx, DWORD PTR [ecx+1]
$LL44@promptNetw:
	mov	al, BYTE PTR [ecx]
	inc	ecx
	test	al, al
	jne	SHORT $LL44@promptNetw
	sub	ecx, edx
	cmp	ecx, 128				; 00000080H
	jae	$LN6@promptNetw
	mov	ecx, esi
	lea	edx, DWORD PTR [ecx+1]
$LL45@promptNetw:
	mov	al, BYTE PTR [ecx]
	inc	ecx
	test	al, al
	jne	SHORT $LL45@promptNetw
	sub	ecx, edx
	cmp	ecx, 5
	ja	$LN6@promptNetw
; Line 846
	mov	ebp, DWORD PTR _dsl$[esp+12]
	mov	ebx, DWORD PTR [ebp+40]
; Line 847
	mov	ecx, DWORD PTR [ebx]
	test	cl, 32					; 00000020H
	je	SHORT $LN43@promptNetw
; Line 848
	lea	eax, DWORD PTR [ebx+33956]
	lea	edx, DWORD PTR [ebx+25200980]
	cmp	eax, edx
	jae	SHORT $LN43@promptNetw
$LL4@promptNetw:
; Line 849
	cmp	DWORD PTR [eax+8], -1
	je	SHORT $LN2@promptNetw
	mov	ecx, DWORD PTR [eax]
	test	cl, 4
	je	SHORT $LN2@promptNetw
	not	ecx
	test	cl, 2
	jne	SHORT $LN31@promptNetw
$LN2@promptNetw:
; Line 848
	add	eax, 2097252				; 00200064H
	cmp	eax, edx
	jb	SHORT $LL4@promptNetw
	mov	ecx, DWORD PTR [ebx]
$LN43@promptNetw:
; Line 854
	test	cl, 34					; 00000022H
	je	SHORT $LN11@promptNetw
; Line 855
	cmp	DWORD PTR _printerror$[esp+12], 0
	je	$LN7@promptNetw
; Line 856
	lea	eax, DWORD PTR [ebx+132]
	push	eax
	lea	eax, DWORD PTR [ebx+4]
	push	eax
	push	OFFSET ??_C@_0BM@GLBGJJIJ@already?5connecting?5to?5?$CFs?3?$CFs@
	push	1
	push	DWORD PTR [ebp+24]
	call	_printConsoleFormatted
	add	esp, 20					; 00000014H
	xor	eax, eax
	pop	edi
; Line 874
	pop	esi
	pop	ebp
	pop	ebx
	ret	0
$LN31@promptNetw:
; Line 850
	cmp	DWORD PTR _printerror$[esp+12], 0
	je	$LN7@promptNetw
; Line 851
	lea	eax, DWORD PTR [ebx+132]
	push	eax
	lea	eax, DWORD PTR [ebx+4]
	push	eax
	push	OFFSET ??_C@_0BL@GJDCMOGN@already?5connected?5to?5?$CFs?3?$CFs@
	push	1
	push	DWORD PTR [ebp+24]
	call	_printConsoleFormatted
	add	esp, 20					; 00000014H
	xor	eax, eax
	pop	edi
; Line 874
	pop	esi
	pop	ebp
	pop	ebx
	ret	0
$LN11@promptNetw:
; Line 859
	push	12					; 0000000cH
	push	esi
	push	edi
	push	ebp
	call	_canListServer
	mov	ecx, DWORD PTR [ebx]
	add	esp, 16					; 00000010H
	test	eax, eax
	je	SHORT $LN13@promptNetw
; Line 861
	push	1
	push	esi
	push	edi
	or	ecx, 8
	push	ebx
	push	ebp
	mov	DWORD PTR [ebx], ecx
	call	_actuallyConnect
	mov	ecx, DWORD PTR [ebx]
	add	esp, 20					; 00000014H
	test	eax, eax
	je	SHORT $LN15@promptNetw
; Line 862
	or	ecx, 16					; 00000010H
	mov	DWORD PTR [ebx], ecx
; Line 863
	or	DWORD PTR [eax], 16			; 00000010H
; Line 864
	jmp	SHORT $LN14@promptNetw
$LN15@promptNetw:
; Line 865
	and	ecx, -17				; ffffffefH
; Line 866
	jmp	SHORT $LN47@promptNetw
$LN13@promptNetw:
; Line 867
	and	ecx, -25				; ffffffe7H
$LN47@promptNetw:
; Line 868
	mov	DWORD PTR [ebx], ecx
$LN14@promptNetw:
	mov	ecx, ebx
	sub	ecx, edi
$LL18@promptNetw:
	mov	al, BYTE PTR [edi]
	lea	edi, DWORD PTR [edi+1]
	mov	BYTE PTR [ecx+edi+3], al
	test	al, al
	jne	SHORT $LL18@promptNetw
; Line 869
	mov	ecx, ebx
	sub	ecx, esi
	npad	8
$LL19@promptNetw:
	mov	al, BYTE PTR [esi]
	lea	esi, DWORD PTR [esi+1]
	mov	BYTE PTR [ecx+esi+131], al
	test	al, al
	jne	SHORT $LL19@promptNetw
; Line 870
	or	DWORD PTR [ebx], 2
; Line 871
	mov	eax, DWORD PTR ds:12691892
	pop	edi
; Line 874
	pop	esi
	mov	DWORD PTR [ebx+140], eax
	mov	eax, 1
	pop	ebp
	mov	DWORD PTR [ebx+152], 0
	pop	ebx
	ret	0
$LN6@promptNetw:
; Line 842
	cmp	DWORD PTR _printerror$[esp+12], 0
	je	SHORT $LN7@promptNetw
; Line 843
	mov	eax, DWORD PTR _dsl$[esp+12]
	push	OFFSET ??_C@_0CG@EEGJAODC@invalid?5server?5address?5or?5port?5@
	push	1
	push	DWORD PTR [eax+24]
	call	_printConsoleFormatted
	add	esp, 12					; 0000000cH
$LN7@promptNetw:
; Line 874
	pop	edi
	pop	esi
	pop	ebp
	xor	eax, eax
	pop	ebx
	ret	0
_promptNetworkServer ENDP
_TEXT	ENDS
; Function compile flags: /Ogtpy
;	COMDAT _requestNetworkListing
_TEXT	SEGMENT
_dsl$ = 8						; size = 4
_ip$ = 12						; size = 4
_port$ = 16						; size = 4
_requestNetworkListing PROC				; COMDAT
; File C:\Program Files (x86)\Steam\steamapps\common\Bully Scholarship Edition\_derpy_script_loader\src\client\client.c
; Line 1109
	push	esi
	push	edi
; Line 1113
	mov	edi, DWORD PTR _dsl$[esp+4]
	mov	esi, DWORD PTR [edi+40]
; Line 1114
	test	esi, esi
	je	SHORT $LN2@requestNet
	mov	eax, DWORD PTR [esi]
	not	eax
	test	al, 32					; 00000020H
	je	SHORT $LN2@requestNet
	push	8
	push	DWORD PTR _port$[esp+8]
	push	DWORD PTR _ip$[esp+12]
	push	edi
	call	_canListServer
	add	esp, 16					; 00000010H
	test	eax, eax
	je	SHORT $LN2@requestNet
	push	1
	push	DWORD PTR _port$[esp+8]
	push	DWORD PTR _ip$[esp+12]
	push	esi
	push	edi
	call	_actuallyConnect
	add	esp, 20					; 00000014H
	test	eax, eax
	je	SHORT $LN2@requestNet
; Line 1115
	pop	edi
	add	eax, 16					; 00000010H
; Line 1117
	pop	esi
	ret	0
$LN2@requestNet:
	pop	edi
; Line 1116
	xor	eax, eax
; Line 1117
	pop	esi
	ret	0
_requestNetworkListing ENDP
_TEXT	ENDS
; Function compile flags: /Ogtpy
;	COMDAT _updateNetworkPrompt
_TEXT	SEGMENT
_dsl$ = 8						; size = 4
_net$ = 12						; size = 4
_updateNetworkPrompt PROC				; COMDAT
; File C:\Program Files (x86)\Steam\steamapps\common\Bully Scholarship Edition\_derpy_script_loader\src\client\client.c
; Line 1088
	cmp	BYTE PTR ds:12691866, 0
	push	esi
	mov	esi, DWORD PTR _net$[esp]
	mov	eax, DWORD PTR [esi]
	je	SHORT $LN9@updateNetw
; Line 1089
	and	eax, -3					; fffffffdH
	mov	DWORD PTR [esi], eax
$LN9@updateNetw:
; Line 1090
	test	al, 2
	je	SHORT $LN3@updateNetw
; Line 1091
	push	edi
	mov	edi, DWORD PTR _dsl$[esp+4]
	push	DWORD PTR [edi+12]
	push	esi
	push	edi
	call	_drawPrompt
	add	esp, 12					; 0000000cH
	test	eax, eax
	je	SHORT $LN5@updateNetw
; Line 1092
	push	DWORD PTR [edi+12]
	call	_getRenderErrorString
	push	eax
	push	OFFSET ??_C@_0CE@GHMPKMMB@failed?5to?5render?5network?5prompt@
	push	1
	push	DWORD PTR [edi+24]
	call	_printConsoleFormatted
	add	esp, 20					; 00000014H
; Line 1093
	and	DWORD PTR [esi], -5			; fffffffbH
	pop	edi
$LN7@updateNetw:
	pop	esi
; Line 1098
	ret	0
$LN5@updateNetw:
; Line 1095
	or	DWORD PTR [esi], 4
	pop	edi
	pop	esi
; Line 1098
	ret	0
$LN3@updateNetw:
; Line 1096
	test	al, 4
	je	SHORT $LN7@updateNetw
; Line 1097
	and	eax, -5					; fffffffbH
	mov	DWORD PTR [esi], eax
	pop	esi
; Line 1098
	ret	0
_updateNetworkPrompt ENDP
_TEXT	ENDS
; Function compile flags: /Ogtpy
;	COMDAT _getNetworkSendBufferBytes
_TEXT	SEGMENT
_net$ = 8						; size = 4
_getNetworkSendBufferBytes PROC				; COMDAT
; File C:\Program Files (x86)\Steam\steamapps\common\Bully Scholarship Edition\_derpy_script_loader\src\client\client.c
; Line 1131
	mov	ecx, DWORD PTR _net$[esp-4]
	lea	eax, DWORD PTR [ecx+33956]
	lea	edx, DWORD PTR [ecx+25200980]
	cmp	eax, edx
	jae	SHORT $LN12@getNetwork
$LL4@getNetwork:
; Line 1132
	cmp	DWORD PTR [eax+8], -1
	je	SHORT $LN2@getNetwork
	mov	ecx, DWORD PTR [eax]
	not	ecx
	test	cl, 2
	jne	SHORT $LN8@getNetwork
$LN2@getNetwork:
; Line 1131
	add	eax, 2097252				; 00200064H
	cmp	eax, edx
	jb	SHORT $LL4@getNetwork
$LN12@getNetwork:
; Line 1134
	or	eax, -1
; Line 1135
	ret	0
$LN8@getNetwork:
; Line 1133
	mov	eax, DWORD PTR [eax+1048668]
; Line 1135
	ret	0
_getNetworkSendBufferBytes ENDP
_TEXT	ENDS
; Function compile flags: /Ogtpy
;	COMDAT _isNetworkPlayingOnServer
_TEXT	SEGMENT
_net$ = 8						; size = 4
_isNetworkPlayingOnServer PROC				; COMDAT
; File C:\Program Files (x86)\Steam\steamapps\common\Bully Scholarship Edition\_derpy_script_loader\src\client\client.c
; Line 1126
	mov	eax, DWORD PTR _net$[esp-4]
	mov	eax, DWORD PTR [eax]
	and	eax, 32					; 00000020H
; Line 1127
	ret	0
_isNetworkPlayingOnServer ENDP
_TEXT	ENDS
; Function compile flags: /Ogtpy
;	COMDAT _shouldNetworkDisableKeys
_TEXT	SEGMENT
_net$ = 8						; size = 4
_shouldNetworkDisableKeys PROC				; COMDAT
; File C:\Program Files (x86)\Steam\steamapps\common\Bully Scholarship Edition\_derpy_script_loader\src\client\client.c
; Line 1121
	mov	eax, DWORD PTR _net$[esp-4]
	mov	eax, DWORD PTR [eax]
	and	eax, 6
; Line 1122
	ret	0
_shouldNetworkDisableKeys ENDP
_TEXT	ENDS
; Function compile flags: /Ogtpy
;	COMDAT _updateNetworking2
_TEXT	SEGMENT
_dsl$ = 8						; size = 4
_net$ = 12						; size = 4
_updateNetworking2 PROC					; COMDAT
; File C:\Program Files (x86)\Steam\steamapps\common\Bully Scholarship Edition\_derpy_script_loader\src\client\client.c
; Line 1167
	push	ebp
	push	esi
; Line 1170
	mov	esi, DWORD PTR _net$[esp+4]
	lea	ebp, DWORD PTR [esi+25200980]
	add	esi, 33956				; 000084a4H
	cmp	esi, ebp
	jae	SHORT $LN3@updateNetw
	push	ebx
	mov	ebx, DWORD PTR _dsl$[esp+8]
	push	edi
	lea	edi, DWORD PTR [esi+16]
	npad	1
$LL4@updateNetw:
; Line 1171
	mov	ecx, DWORD PTR [edi-8]
	cmp	ecx, -1
	je	SHORT $LN2@updateNetw
	mov	eax, DWORD PTR [esi]
	test	al, 4
	je	SHORT $LN2@updateNetw
; Line 1173
	test	al, 8
	je	SHORT $LN6@updateNetw
; Line 1174
	push	edi
	push	OFFSET ??_C@_0CF@BCJHNBBE@?$HL?$CFs?$HN?5send?5buffer?5space?5was?5exha@
	push	1
	push	DWORD PTR [ebx+24]
	call	_printConsoleFormatted
; Line 1175
	push	1
	push	esi
	push	ebx
	call	_disconnectFromServer
	add	esp, 28					; 0000001cH
	jmp	SHORT $LN2@updateNetw
$LN6@updateNetw:
; Line 1176
	lea	eax, DWORD PTR [edi+1048652]
	push	eax
	lea	eax, DWORD PTR [edi+76]
	push	eax
	push	edi
	push	ecx
	push	ebx
	call	_sendNetworkMessages
	add	esp, 20					; 00000014H
	test	eax, eax
	je	SHORT $LN2@updateNetw
; Line 1177
	push	1
	push	esi
	push	ebx
	call	_disconnectFromServer
	add	esp, 12					; 0000000cH
$LN2@updateNetw:
; Line 1170
	add	esi, 2097252				; 00200064H
	add	edi, 2097252				; 00200064H
	cmp	esi, ebp
	jb	SHORT $LL4@updateNetw
	pop	edi
	pop	ebx
$LN3@updateNetw:
	pop	esi
; Line 1178
	pop	ebp
	ret	0
_updateNetworking2 ENDP
_TEXT	ENDS
; Function compile flags: /Ogtpy
;	COMDAT _updateNetworking
_TEXT	SEGMENT
_dsl$ = 8						; size = 4
_net$ = 12						; size = 4
_updateNetworking PROC					; COMDAT
; File C:\Program Files (x86)\Steam\steamapps\common\Bully Scholarship Edition\_derpy_script_loader\src\client\client.c
; Line 1153
	push	ebx
	push	esi
; Line 1156
	mov	esi, DWORD PTR _net$[esp+4]
	lea	ebx, DWORD PTR [esi+25200980]
	add	esi, 33956				; 000084a4H
	cmp	esi, ebx
	jae	$LN3@updateNetw
	push	ebp
	mov	ebp, DWORD PTR __imp__WSAGetLastError@0
	push	edi
	mov	edi, DWORD PTR _dsl$[esp+12]
	npad	10
$LL4@updateNetw:
; Line 1157
	mov	eax, DWORD PTR [esi+8]
	cmp	eax, -1
	je	$LN2@updateNetw
; Line 1159
	test	BYTE PTR [esi], 4
	jne	$LN23@updateNetw
; Line 1142
	push	DWORD PTR [esi+88]
	push	DWORD PTR [esi+84]
	push	eax
	call	DWORD PTR __imp__connect@12
	test	eax, eax
	je	SHORT $LN16@updateNetw
	call	ebp
	cmp	eax, 10037				; 00002735H
	je	SHORT $LN13@updateNetw
	cmp	eax, 10022				; 00002726H
	je	SHORT $LN13@updateNetw
	cmp	eax, 10035				; 00002733H
	je	SHORT $LN13@updateNetw
	cmp	eax, 10056				; 00002748H
	je	SHORT $LN13@updateNetw
; Line 1143
	push	eax
	lea	eax, DWORD PTR [esi+16]
	push	eax
	push	OFFSET ??_C@_0CL@FAAJKDJP@?$HL?$CFs?$HN?5failed?5to?5connect?5to?5serve@
	push	1
	push	DWORD PTR [edi+24]
	call	_printConsoleFormatted
; Line 1144
	push	1
	push	esi
	push	edi
	call	_disconnectFromServer
	add	esp, 32					; 00000020H
	jmp	SHORT $LN6@updateNetw
$LN13@updateNetw:
; Line 1145
	test	eax, eax
	je	SHORT $LN16@updateNetw
	cmp	eax, 10056				; 00002748H
	jne	SHORT $LN6@updateNetw
$LN16@updateNetw:
; Line 1146
	mov	ecx, DWORD PTR [esi]
	mov	eax, ecx
	not	eax
	test	al, 32					; 00000020H
	je	SHORT $LN17@updateNetw
; Line 1147
	lea	eax, DWORD PTR [esi+16]
	push	eax
	push	OFFSET ??_C@_0BJ@BDFKLDEL@?$HL?$CFs?$HN?5connected?5to?5server@
	push	0
	push	DWORD PTR [edi+24]
	call	_printConsoleFormatted
	mov	ecx, DWORD PTR [esi]
	add	esp, 16					; 00000010H
$LN17@updateNetw:
; Line 1148
	mov	eax, DWORD PTR ds:12691892
; Line 1149
	or	ecx, 4
	mov	DWORD PTR [esi+12], eax
	mov	DWORD PTR [esi], ecx
$LN23@updateNetw:
; Line 1159
	push	esi
	push	OFFSET _processMessage
	lea	eax, DWORD PTR [esi+2097248]
	push	eax
	lea	eax, DWORD PTR [esi+1048672]
	push	eax
	lea	eax, DWORD PTR [esi+16]
	push	eax
	push	DWORD PTR [esi+8]
	push	edi
	call	_recvNetworkMessages
	add	esp, 28					; 0000001cH
	test	eax, eax
	jne	SHORT $LN10@updateNetw
$LN6@updateNetw:
; Line 1161
	mov	ecx, DWORD PTR [esi]
	test	cl, 1
	je	SHORT $LN2@updateNetw
	mov	eax, DWORD PTR ds:12691892
	sub	eax, DWORD PTR [esi+12]
	cmp	eax, 8000				; 00001f40H
	jb	SHORT $LN2@updateNetw
; Line 1162
	not	ecx
	test	cl, 32					; 00000020H
	je	SHORT $LN10@updateNetw
; Line 1163
	lea	eax, DWORD PTR [esi+16]
	push	eax
	push	OFFSET ??_C@_0BG@HEBCPLBE@?$HL?$CFs?$HN?5server?5timed?5out@
	push	0
	push	DWORD PTR [edi+24]
	call	_printConsoleFormatted
	add	esp, 16					; 00000010H
$LN10@updateNetw:
; Line 1164
	push	1
	push	esi
	push	edi
	call	_disconnectFromServer
	add	esp, 12					; 0000000cH
$LN2@updateNetw:
; Line 1156
	add	esi, 2097252				; 00200064H
	cmp	esi, ebx
	jb	$LL4@updateNetw
	pop	edi
	pop	ebp
$LN3@updateNetw:
	pop	esi
; Line 1166
	pop	ebx
	ret	0
_updateNetworking ENDP
_TEXT	ENDS
; Function compile flags: /Ogtpy
;	COMDAT _cleanupNetworking
_TEXT	SEGMENT
_dsl$ = 8						; size = 4
_net$ = 12						; size = 4
_cleanupNetworking PROC					; COMDAT
; File C:\Program Files (x86)\Steam\steamapps\common\Bully Scholarship Edition\_derpy_script_loader\src\client\client.c
; Line 1210
	push	ebx
; Line 1213
	mov	ebx, DWORD PTR _dsl$[esp]
	push	edi
	mov	edi, DWORD PTR _net$[esp+4]
	test	BYTE PTR [edi], 1
	je	SHORT $LN5@cleanupNet
; Line 1214
	push	ebp
	push	esi
	lea	ebp, DWORD PTR [edi+25200980]
	lea	esi, DWORD PTR [edi+33956]
	cmp	esi, ebp
	jae	SHORT $LN3@cleanupNet
$LL4@cleanupNet:
; Line 1215
	cmp	DWORD PTR [esi+8], -1
	je	SHORT $LN2@cleanupNet
; Line 1216
	push	0
	push	esi
	push	ebx
	call	_disconnectFromServer
	add	esp, 12					; 0000000cH
$LN2@cleanupNet:
; Line 1214
	add	esi, 2097252				; 00200064H
	cmp	esi, ebp
	jb	SHORT $LL4@cleanupNet
$LN3@cleanupNet:
; Line 1217
	mov	eax, DWORD PTR [edi+152]
	test	eax, eax
	je	SHORT $LN10@cleanupNet
; Line 96
	push	eax
	call	_free
	add	esp, 4
$LN10@cleanupNet:
; Line 1219
	mov	esi, DWORD PTR [edi+156]
	test	esi, esi
	je	SHORT $LN13@cleanupNet
; Line 138
	mov	eax, DWORD PTR [esi+4]
	test	eax, eax
	je	SHORT $LN14@cleanupNet
; Line 139
	push	eax
	call	_free
	add	esp, 4
$LN14@cleanupNet:
; Line 140
	push	esi
	call	_free
	add	esp, 4
$LN13@cleanupNet:
; Line 1221
	call	DWORD PTR __imp__WSACleanup@0
	pop	esi
	pop	ebp
$LN5@cleanupNet:
; Line 1223
	push	DWORD PTR [edi+144]
	push	DWORD PTR [ebx+12]
	call	_destroyRenderFont
; Line 1224
	push	DWORD PTR [edi+148]
	push	DWORD PTR [ebx+12]
	call	_destroyRenderFont
; Line 1225
	push	edi
	call	_free
	add	esp, 20					; 00000014H
	pop	edi
	pop	ebx
; Line 1226
	ret	0
_cleanupNetworking ENDP
_TEXT	ENDS
; Function compile flags: /Ogtpy
;	COMDAT _setupNetworking
_TEXT	SEGMENT
_dsl$ = 8						; size = 4
_setupNetworking PROC					; COMDAT
; File C:\Program Files (x86)\Steam\steamapps\common\Bully Scholarship Edition\_derpy_script_loader\src\client\client.c
; Line 1181
	push	edi
; Line 1185
	push	25200980				; 01808954H
	call	_malloc
	mov	edi, eax
	add	esp, 4
; Line 1186
	test	edi, edi
	jne	SHORT $LN5@setupNetwo
	pop	edi
; Line 1209
	ret	0
$LN5@setupNetwo:
	push	ebx
; Line 1189
	mov	ebx, DWORD PTR _dsl$[esp+4]
	push	esi
	push	OFFSET ??_C@_07IHKKODPD@Georgia@
	push	0
	push	DWORD PTR [ebx+12]
	mov	DWORD PTR [edi], 0
	call	_createRenderFont
; Line 1190
	push	OFFSET ??_C@_05MPFIAJAP@Arial@
	push	0
	push	DWORD PTR [ebx+12]
	mov	esi, eax
	mov	DWORD PTR [edi+144], esi
	call	_createRenderFont
	add	esp, 24					; 00000018H
	mov	DWORD PTR [edi+148], eax
; Line 1191
	test	esi, esi
	je	$LN8@setupNetwo
	test	eax, eax
	je	$LN14@setupNetwo
; Line 1202
	push	25167024				; 018004b0H
	lea	esi, DWORD PTR [edi+33956]
	mov	DWORD PTR [edi+152], 0
	push	0
	push	esi
	mov	DWORD PTR [edi+156], 0
	mov	DWORD PTR [edi+32928], 0
	call	_memset
; Line 1203
	lea	eax, DWORD PTR [edi+25200980]
	add	esp, 12					; 0000000cH
	cmp	esi, eax
	jae	SHORT $LN3@setupNetwo
	npad	1
$LL4@setupNetwo:
; Line 1204
	mov	DWORD PTR [esi+8], -1
	add	esi, 2097252				; 00200064H
	cmp	esi, eax
	jb	SHORT $LL4@setupNetwo
$LN3@setupNetwo:
; Line 1205
	push	1
	push	ebx
	push	OFFSET _serverConnect
	push	OFFSET ??_C@_0DN@FNKHMOED@Usage?3?5connect?5?$DMip?$DO?$FL?3port?$FN?6Conn@
	push	OFFSET ??_C@_07KAIBNCHO@connect@
	push	DWORD PTR [ebx+28]
	call	_setScriptCommandEx
; Line 1206
	push	1
	push	ebx
	push	OFFSET _serverDisconnect
	push	OFFSET ??_C@_0EF@GDLHBPOK@Usage?3?5disconnect?6Disconnect?5fr@
	push	OFFSET ??_C@_0L@KKPFIJOL@disconnect@
	push	DWORD PTR [ebx+28]
	call	_setScriptCommandEx
; Line 1207
	push	ebx
	push	OFFSET _updatePromptInput
	push	1
	push	DWORD PTR [ebx+20]
	call	_addScriptEventCallback
	add	esp, 64					; 00000040H
; Line 1208
	mov	eax, edi
	pop	esi
	pop	ebx
	pop	edi
; Line 1209
	ret	0
$LN14@setupNetwo:
; Line 1193
	push	esi
; Line 1194
	jmp	SHORT $LN18@setupNetwo
$LN8@setupNetwo:
	test	eax, eax
	je	SHORT $LN9@setupNetwo
; Line 1195
	push	eax
$LN18@setupNetwo:
; Line 1196
	push	DWORD PTR [ebx+12]
	call	_destroyRenderFont
	add	esp, 8
$LN9@setupNetwo:
	push	edi
	call	_free
	add	esp, 4
; Line 1197
	xor	eax, eax
	pop	esi
	pop	ebx
	pop	edi
; Line 1209
	ret	0
_setupNetworking ENDP
_TEXT	ENDS
; Function compile flags: /Ogtpy
;	COMDAT _sprintf
_TEXT	SEGMENT
__Buffer$ = 8						; size = 4
__Format$ = 12						; size = 4
_sprintf PROC						; COMDAT
; File C:\Program Files (x86)\Windows Kits\10\include\10.0.18362.0\ucrt\stdio.h
; Line 1390
	lea	eax, DWORD PTR __Format$[esp]
	push	eax
	push	0
	push	DWORD PTR __Format$[esp+4]
	push	-1
	push	DWORD PTR __Buffer$[esp+12]
	call	___local_stdio_printf_options
	mov	ecx, DWORD PTR [eax]
	push	DWORD PTR [eax+4]
	or	ecx, 1
	push	ecx
	call	___stdio_common_vsprintf
; Line 1394
	or	ecx, -1
	add	esp, 28					; 0000001cH
	test	eax, eax
	cmovs	eax, ecx
; Line 1793
	ret	0
_sprintf ENDP
_TEXT	ENDS
; Function compile flags: /Ogtpy
;	COMDAT __vsprintf_l
_TEXT	SEGMENT
__Buffer$ = 8						; size = 4
__Format$ = 12						; size = 4
__Locale$ = 16						; size = 4
__ArgList$ = 20						; size = 4
__vsprintf_l PROC					; COMDAT
; File C:\Program Files (x86)\Windows Kits\10\include\10.0.18362.0\ucrt\stdio.h
; Line 1390
	push	DWORD PTR __ArgList$[esp-4]
	push	DWORD PTR __Locale$[esp]
	push	DWORD PTR __Format$[esp+4]
	push	-1
	push	DWORD PTR __Buffer$[esp+12]
	call	___local_stdio_printf_options
	mov	ecx, DWORD PTR [eax]
	push	DWORD PTR [eax+4]
	or	ecx, 1
	push	ecx
	call	___stdio_common_vsprintf
; Line 1394
	or	ecx, -1
	add	esp, 28					; 0000001cH
	test	eax, eax
	cmovs	eax, ecx
; Line 1464
	ret	0
__vsprintf_l ENDP
_TEXT	ENDS
; Function compile flags: /Ogtpy
;	COMDAT __vsnprintf_l
_TEXT	SEGMENT
__Buffer$ = 8						; size = 4
__BufferCount$ = 12					; size = 4
__Format$ = 16						; size = 4
__Locale$ = 20						; size = 4
__ArgList$ = 24						; size = 4
__vsnprintf_l PROC					; COMDAT
; File C:\Program Files (x86)\Windows Kits\10\include\10.0.18362.0\ucrt\stdio.h
; Line 1390
	push	DWORD PTR __ArgList$[esp-4]
	push	DWORD PTR __Locale$[esp]
	push	DWORD PTR __Format$[esp+4]
	push	DWORD PTR __BufferCount$[esp+8]
	push	DWORD PTR __Buffer$[esp+12]
	call	___local_stdio_printf_options
	mov	ecx, DWORD PTR [eax]
	push	DWORD PTR [eax+4]
	or	ecx, 1
	push	ecx
	call	___stdio_common_vsprintf
; Line 1394
	or	ecx, -1
	add	esp, 28					; 0000001cH
	test	eax, eax
	cmovs	eax, ecx
; Line 1395
	ret	0
__vsnprintf_l ENDP
_TEXT	ENDS
; Function compile flags: /Ogtpy
;	COMDAT ___local_stdio_printf_options
_TEXT	SEGMENT
___local_stdio_printf_options PROC			; COMDAT
; File C:\Program Files (x86)\Windows Kits\10\include\10.0.18362.0\ucrt\corecrt_stdio_config.h
; Line 88
	mov	eax, OFFSET ?_OptionsStorage@?1??__local_stdio_printf_options@@9@9 ; `__local_stdio_printf_options'::`2'::_OptionsStorage
; Line 89
	ret	0
___local_stdio_printf_options ENDP
_TEXT	ENDS
END
