; Listing generated by Microsoft (R) Optimizing Compiler Version 19.23.28107.0 

	TITLE	C:\Program Files (x86)\Steam\steamapps\common\Bully Scholarship Edition\_derpy_script_loader\src\client\library\lib_camera.c
	.686P
	.XMM
	include listing.inc
	.model	flat

INCLUDELIB LIBCMT
INCLUDELIB OLDNAMES

PUBLIC	___local_stdio_printf_options
PUBLIC	__vsnprintf_l
PUBLIC	__vsprintf_l
PUBLIC	_sprintf
PUBLIC	_dslopen_camera
PUBLIC	??_C@_02BBAHNLBA@?$CFp@				; `string'
PUBLIC	??_C@_0BB@JAHPBBOH@GetCameraAddress@		; `string'
EXTRN	___stdio_common_vsprintf:PROC
EXTRN	_lua_tonumber:PROC
EXTRN	_lua_pushstring:PROC
EXTRN	_lua_pushcclosure:PROC
EXTRN	_lua_settable:PROC
EXTRN	_luaL_checktype:PROC
EXTRN	_getDslState:PROC
EXTRN	@__security_check_cookie@4:PROC
EXTRN	__ftol2_sse:PROC
EXTRN	___security_cookie:DWORD
EXTRN	__fltused:DWORD
_DATA	SEGMENT
COMM	?_OptionsStorage@?1??__local_stdio_printf_options@@9@9:QWORD							; `__local_stdio_printf_options'::`2'::_OptionsStorage
_DATA	ENDS
;	COMDAT ??_C@_0BB@JAHPBBOH@GetCameraAddress@
CONST	SEGMENT
??_C@_0BB@JAHPBBOH@GetCameraAddress@ DB 'GetCameraAddress', 00H ; `string'
CONST	ENDS
;	COMDAT ??_C@_02BBAHNLBA@?$CFp@
CONST	SEGMENT
??_C@_02BBAHNLBA@?$CFp@ DB '%p', 00H			; `string'
CONST	ENDS
; Function compile flags: /Ogtpy
;	COMDAT _dslopen_camera
_TEXT	SEGMENT
_lua$ = 8						; size = 4
_dslopen_camera PROC					; COMDAT
; File C:\Program Files (x86)\Steam\steamapps\common\Bully Scholarship Edition\_derpy_script_loader\src\client\library\lib_camera.c
; Line 21
	push	esi
; Line 23
	mov	esi, DWORD PTR _lua$[esp]
	push	1
	push	esi
	call	_getDslState
	add	esp, 8
	test	BYTE PTR [eax+340], 4
	je	SHORT $LN4@dslopen_ca
; Line 24
	push	OFFSET ??_C@_0BB@JAHPBBOH@GetCameraAddress@
	push	esi
	call	_lua_pushstring
	push	0
	push	OFFSET _GetCameraAddress
	push	esi
	call	_lua_pushcclosure
	push	-10001					; ffffd8efH
	push	esi
	call	_lua_settable
	add	esp, 28					; 0000001cH
$LN4@dslopen_ca:
; Line 26
	xor	eax, eax
	pop	esi
	ret	0
_dslopen_camera ENDP
_TEXT	ENDS
; Function compile flags: /Ogtpy
;	COMDAT _GetCameraAddress
_TEXT	SEGMENT
_buffer$ = -36						; size = 32
__$ArrayPad$ = -4					; size = 4
_lua$ = 8						; size = 4
_GetCameraAddress PROC					; COMDAT
; File C:\Program Files (x86)\Steam\steamapps\common\Bully Scholarship Edition\_derpy_script_loader\src\client\library\lib_camera.c
; Line 11
	sub	esp, 36					; 00000024H
	mov	eax, DWORD PTR ___security_cookie
	xor	eax, esp
	mov	DWORD PTR __$ArrayPad$[esp+36], eax
	push	esi
	mov	esi, DWORD PTR _lua$[esp+36]
; Line 14
	push	3
	push	1
	push	esi
	call	_luaL_checktype
; Line 15
	push	1
	push	esi
	call	_lua_tonumber
	call	__ftol2_sse
	mov	eax, DWORD PTR [eax*4+12832404]
	push	eax
	lea	eax, DWORD PTR _buffer$[esp+64]
	push	OFFSET ??_C@_02BBAHNLBA@?$CFp@
	push	eax
	call	_sprintf
; Line 16
	lea	eax, DWORD PTR _buffer$[esp+72]
	push	eax
	push	esi
	call	_lua_pushstring
; Line 18
	mov	ecx, DWORD PTR __$ArrayPad$[esp+80]
	add	esp, 40					; 00000028H
	mov	eax, 1
	pop	esi
	xor	ecx, esp
	call	@__security_check_cookie@4
	add	esp, 36					; 00000024H
	ret	0
_GetCameraAddress ENDP
_TEXT	ENDS
; Function compile flags: /Ogtpy
;	COMDAT _sprintf
_TEXT	SEGMENT
__Buffer$ = 8						; size = 4
__Format$ = 12						; size = 4
_sprintf PROC						; COMDAT
; File C:\Program Files (x86)\Windows Kits\10\include\10.0.18362.0\ucrt\stdio.h
; Line 1390
	lea	eax, DWORD PTR __Format$[esp]
	push	eax
	push	0
	push	DWORD PTR __Format$[esp+4]
	push	-1
	push	DWORD PTR __Buffer$[esp+12]
	call	___local_stdio_printf_options
	mov	ecx, DWORD PTR [eax]
	push	DWORD PTR [eax+4]
	or	ecx, 1
	push	ecx
	call	___stdio_common_vsprintf
; Line 1394
	or	ecx, -1
	add	esp, 28					; 0000001cH
	test	eax, eax
	cmovs	eax, ecx
; Line 1793
	ret	0
_sprintf ENDP
_TEXT	ENDS
; Function compile flags: /Ogtpy
;	COMDAT __vsprintf_l
_TEXT	SEGMENT
__Buffer$ = 8						; size = 4
__Format$ = 12						; size = 4
__Locale$ = 16						; size = 4
__ArgList$ = 20						; size = 4
__vsprintf_l PROC					; COMDAT
; File C:\Program Files (x86)\Windows Kits\10\include\10.0.18362.0\ucrt\stdio.h
; Line 1390
	push	DWORD PTR __ArgList$[esp-4]
	push	DWORD PTR __Locale$[esp]
	push	DWORD PTR __Format$[esp+4]
	push	-1
	push	DWORD PTR __Buffer$[esp+12]
	call	___local_stdio_printf_options
	mov	ecx, DWORD PTR [eax]
	push	DWORD PTR [eax+4]
	or	ecx, 1
	push	ecx
	call	___stdio_common_vsprintf
; Line 1394
	or	ecx, -1
	add	esp, 28					; 0000001cH
	test	eax, eax
	cmovs	eax, ecx
; Line 1464
	ret	0
__vsprintf_l ENDP
_TEXT	ENDS
; Function compile flags: /Ogtpy
;	COMDAT __vsnprintf_l
_TEXT	SEGMENT
__Buffer$ = 8						; size = 4
__BufferCount$ = 12					; size = 4
__Format$ = 16						; size = 4
__Locale$ = 20						; size = 4
__ArgList$ = 24						; size = 4
__vsnprintf_l PROC					; COMDAT
; File C:\Program Files (x86)\Windows Kits\10\include\10.0.18362.0\ucrt\stdio.h
; Line 1390
	push	DWORD PTR __ArgList$[esp-4]
	push	DWORD PTR __Locale$[esp]
	push	DWORD PTR __Format$[esp+4]
	push	DWORD PTR __BufferCount$[esp+8]
	push	DWORD PTR __Buffer$[esp+12]
	call	___local_stdio_printf_options
	mov	ecx, DWORD PTR [eax]
	push	DWORD PTR [eax+4]
	or	ecx, 1
	push	ecx
	call	___stdio_common_vsprintf
; Line 1394
	or	ecx, -1
	add	esp, 28					; 0000001cH
	test	eax, eax
	cmovs	eax, ecx
; Line 1395
	ret	0
__vsnprintf_l ENDP
_TEXT	ENDS
; Function compile flags: /Ogtpy
;	COMDAT ___local_stdio_printf_options
_TEXT	SEGMENT
___local_stdio_printf_options PROC			; COMDAT
; File C:\Program Files (x86)\Windows Kits\10\include\10.0.18362.0\ucrt\corecrt_stdio_config.h
; Line 88
	mov	eax, OFFSET ?_OptionsStorage@?1??__local_stdio_printf_options@@9@9 ; `__local_stdio_printf_options'::`2'::_OptionsStorage
; Line 89
	ret	0
___local_stdio_printf_options ENDP
_TEXT	ENDS
END
