; Listing generated by Microsoft (R) Optimizing Compiler Version 19.23.28107.0 

	TITLE	C:\Program Files (x86)\Steam\steamapps\common\Bully Scholarship Edition\_derpy_script_loader\src\client\library\lib_ped.c
	.686P
	.XMM
	include listing.inc
	.model	flat

INCLUDELIB LIBCMT
INCLUDELIB OLDNAMES

PUBLIC	___local_stdio_printf_options
PUBLIC	__vsnprintf_l
PUBLIC	__vsprintf_l
PUBLIC	_sprintf
PUBLIC	_dslopen_ped
PUBLIC	??_C@_0P@BBKBEPMD@game?5not?5ready@		; `string'
PUBLIC	??_C@_03PKAJCHBH@ped@				; `string'
PUBLIC	??_C@_02BBAHNLBA@?$CFp@				; `string'
PUBLIC	??_C@_07DDONIKGG@AllPeds@			; `string'
PUBLIC	??_C@_0BE@NEIFPNIO@PedCreateScriptless@		; `string'
PUBLIC	??_C@_0O@FGMOCMAI@PedGetModelId@		; `string'
PUBLIC	??_C@_0P@OFPGADNK@PedGetThrottle@		; `string'
PUBLIC	??_C@_0BA@DJCKLHC@PedSetPosSimple@		; `string'
PUBLIC	??_C@_0P@OKOINFFJ@PedSetThrottle@		; `string'
PUBLIC	??_C@_0O@NPBBHMIF@PedSpoofModel@		; `string'
PUBLIC	??_C@_0O@KELLGFBM@GetPedAddress@		; `string'
PUBLIC	__real@3f91df46a2529d39
EXTRN	___stdio_common_vsprintf:PROC
EXTRN	_lua_gettop:PROC
EXTRN	_lua_replace:PROC
EXTRN	_lua_type:PROC
EXTRN	_lua_tonumber:PROC
EXTRN	_lua_pushnumber:PROC
EXTRN	_lua_pushstring:PROC
EXTRN	_lua_pushcclosure:PROC
EXTRN	_lua_settable:PROC
EXTRN	_luaL_typerror:PROC
EXTRN	_luaL_checktype:PROC
EXTRN	_luaL_error:PROC
EXTRN	_getDslState:PROC
EXTRN	_startScriptBlock:PROC
EXTRN	_finishScriptBlock:PROC
EXTRN	@__security_check_cookie@4:PROC
EXTRN	__ftol2_sse:PROC
EXTRN	___security_cookie:DWORD
EXTRN	__fltused:DWORD
_DATA	SEGMENT
COMM	?_OptionsStorage@?1??__local_stdio_printf_options@@9@9:QWORD							; `__local_stdio_printf_options'::`2'::_OptionsStorage
_DATA	ENDS
;	COMDAT __real@3f91df46a2529d39
CONST	SEGMENT
__real@3f91df46a2529d39 DQ 03f91df46a2529d39r	; 0.0174533
CONST	ENDS
;	COMDAT ??_C@_0O@KELLGFBM@GetPedAddress@
CONST	SEGMENT
??_C@_0O@KELLGFBM@GetPedAddress@ DB 'GetPedAddress', 00H ; `string'
CONST	ENDS
;	COMDAT ??_C@_0O@NPBBHMIF@PedSpoofModel@
CONST	SEGMENT
??_C@_0O@NPBBHMIF@PedSpoofModel@ DB 'PedSpoofModel', 00H ; `string'
CONST	ENDS
;	COMDAT ??_C@_0P@OKOINFFJ@PedSetThrottle@
CONST	SEGMENT
??_C@_0P@OKOINFFJ@PedSetThrottle@ DB 'PedSetThrottle', 00H ; `string'
CONST	ENDS
;	COMDAT ??_C@_0BA@DJCKLHC@PedSetPosSimple@
CONST	SEGMENT
??_C@_0BA@DJCKLHC@PedSetPosSimple@ DB 'PedSetPosSimple', 00H ; `string'
CONST	ENDS
;	COMDAT ??_C@_0P@OFPGADNK@PedGetThrottle@
CONST	SEGMENT
??_C@_0P@OFPGADNK@PedGetThrottle@ DB 'PedGetThrottle', 00H ; `string'
CONST	ENDS
;	COMDAT ??_C@_0O@FGMOCMAI@PedGetModelId@
CONST	SEGMENT
??_C@_0O@FGMOCMAI@PedGetModelId@ DB 'PedGetModelId', 00H ; `string'
CONST	ENDS
;	COMDAT ??_C@_0BE@NEIFPNIO@PedCreateScriptless@
CONST	SEGMENT
??_C@_0BE@NEIFPNIO@PedCreateScriptless@ DB 'PedCreateScriptless', 00H ; `string'
CONST	ENDS
;	COMDAT ??_C@_07DDONIKGG@AllPeds@
CONST	SEGMENT
??_C@_07DDONIKGG@AllPeds@ DB 'AllPeds', 00H		; `string'
CONST	ENDS
;	COMDAT ??_C@_02BBAHNLBA@?$CFp@
CONST	SEGMENT
??_C@_02BBAHNLBA@?$CFp@ DB '%p', 00H			; `string'
CONST	ENDS
;	COMDAT ??_C@_03PKAJCHBH@ped@
CONST	SEGMENT
??_C@_03PKAJCHBH@ped@ DB 'ped', 00H			; `string'
CONST	ENDS
;	COMDAT ??_C@_0P@BBKBEPMD@game?5not?5ready@
CONST	SEGMENT
??_C@_0P@BBKBEPMD@game?5not?5ready@ DB 'game not ready', 00H ; `string'
CONST	ENDS
; Function compile flags: /Ogtpy
;	COMDAT _dslopen_ped
_TEXT	SEGMENT
_lua$ = 8						; size = 4
_dslopen_ped PROC					; COMDAT
; File C:\Program Files (x86)\Steam\steamapps\common\Bully Scholarship Edition\_derpy_script_loader\src\client\library\lib_ped.c
; Line 128
	push	esi
; Line 129
	mov	esi, DWORD PTR _lua$[esp]
	push	OFFSET ??_C@_07DDONIKGG@AllPeds@
	push	esi
	call	_lua_pushstring
	push	0
	push	OFFSET _AllPeds
	push	esi
	call	_lua_pushcclosure
	push	-10001					; ffffd8efH
	push	esi
	call	_lua_settable
; Line 130
	push	OFFSET ??_C@_0BE@NEIFPNIO@PedCreateScriptless@
	push	esi
	call	_lua_pushstring
	push	0
	push	OFFSET _PedCreateScriptless
	push	esi
	call	_lua_pushcclosure
	push	-10001					; ffffd8efH
	push	esi
	call	_lua_settable
; Line 131
	push	OFFSET ??_C@_0O@FGMOCMAI@PedGetModelId@
	push	esi
	call	_lua_pushstring
	add	esp, 64					; 00000040H
	push	0
	push	OFFSET _PedGetModelId
	push	esi
	call	_lua_pushcclosure
	push	-10001					; ffffd8efH
	push	esi
	call	_lua_settable
; Line 132
	push	OFFSET ??_C@_0P@OFPGADNK@PedGetThrottle@
	push	esi
	call	_lua_pushstring
	push	0
	push	OFFSET _PedGetThrottle
	push	esi
	call	_lua_pushcclosure
	push	-10001					; ffffd8efH
	push	esi
	call	_lua_settable
; Line 133
	push	OFFSET ??_C@_0BA@DJCKLHC@PedSetPosSimple@
	push	esi
	call	_lua_pushstring
	push	0
	push	OFFSET _PedSetPosSimple
	push	esi
	call	_lua_pushcclosure
	add	esp, 68					; 00000044H
	push	-10001					; ffffd8efH
	push	esi
	call	_lua_settable
; Line 134
	push	OFFSET ??_C@_0P@OKOINFFJ@PedSetThrottle@
	push	esi
	call	_lua_pushstring
	push	0
	push	OFFSET _PedSetThrottle
	push	esi
	call	_lua_pushcclosure
	push	-10001					; ffffd8efH
	push	esi
	call	_lua_settable
; Line 135
	push	OFFSET ??_C@_0O@NPBBHMIF@PedSpoofModel@
	push	esi
	call	_lua_pushstring
	push	0
	push	OFFSET _PedSpoofModel
	push	esi
	call	_lua_pushcclosure
	push	-10001					; ffffd8efH
	push	esi
	call	_lua_settable
	add	esp, 64					; 00000040H
; Line 136
	push	1
	push	esi
	call	_getDslState
	add	esp, 8
	test	BYTE PTR [eax+340], 4
	je	SHORT $LN4@dslopen_pe
; Line 137
	push	OFFSET ??_C@_0O@KELLGFBM@GetPedAddress@
	push	esi
	call	_lua_pushstring
	push	0
	push	OFFSET _GetPedAddress
	push	esi
	call	_lua_pushcclosure
	push	-10001					; ffffd8efH
	push	esi
	call	_lua_settable
	add	esp, 28					; 0000001cH
$LN4@dslopen_pe:
; Line 139
	xor	eax, eax
	pop	esi
	ret	0
_dslopen_ped ENDP
_TEXT	ENDS
; Function compile flags: /Ogtpy
;	COMDAT _GetPedAddress
_TEXT	SEGMENT
_buffer$ = -36						; size = 32
__$ArrayPad$ = -4					; size = 4
_lua$ = 8						; size = 4
_GetPedAddress PROC					; COMDAT
; File C:\Program Files (x86)\Steam\steamapps\common\Bully Scholarship Edition\_derpy_script_loader\src\client\library\lib_ped.c
; Line 115
	sub	esp, 36					; 00000024H
	mov	eax, DWORD PTR ___security_cookie
	xor	eax, esp
	mov	DWORD PTR __$ArrayPad$[esp+36], eax
	push	esi
	mov	esi, DWORD PTR _lua$[esp+36]
	push	edi
; Line 119
	push	0
	push	1
	push	esi
	call	_lua_tonumber
	add	esp, 8
	call	__ftol2_sse
	push	eax
	mov	eax, 6058880				; 005c7380H
	call	eax
	mov	edi, eax
	add	esp, 8
; Line 120
	test	edi, edi
	je	SHORT $LN3@GetPedAddr
	push	1
	push	esi
	call	_lua_type
	add	esp, 8
	cmp	eax, 3
	je	SHORT $LN2@GetPedAddr
$LN3@GetPedAddr:
; Line 121
	push	OFFSET ??_C@_03PKAJCHBH@ped@
	push	1
	push	esi
	call	_luaL_typerror
	add	esp, 12					; 0000000cH
$LN2@GetPedAddr:
; Line 122
	push	edi
	lea	eax, DWORD PTR _buffer$[esp+48]
	push	OFFSET ??_C@_02BBAHNLBA@?$CFp@
	push	eax
	call	_sprintf
; Line 123
	lea	eax, DWORD PTR _buffer$[esp+56]
	push	eax
	push	esi
	call	_lua_pushstring
; Line 125
	mov	ecx, DWORD PTR __$ArrayPad$[esp+64]
	add	esp, 20					; 00000014H
	mov	eax, 1
	pop	edi
	pop	esi
	xor	ecx, esp
	call	@__security_check_cookie@4
	add	esp, 36					; 00000024H
	ret	0
_GetPedAddress ENDP
_TEXT	ENDS
; Function compile flags: /Ogtpy
;	COMDAT _PedSpoofModel
_TEXT	SEGMENT
_lua$ = 8						; size = 4
_PedSpoofModel PROC					; COMDAT
; File C:\Program Files (x86)\Steam\steamapps\common\Bully Scholarship Edition\_derpy_script_loader\src\client\library\lib_ped.c
; Line 104
	push	esi
; Line 107
	mov	esi, DWORD PTR _lua$[esp]
	push	0
	push	1
	push	esi
	call	_lua_tonumber
	add	esp, 8
	call	__ftol2_sse
	push	eax
	mov	eax, 6058880				; 005c7380H
	call	eax
	add	esp, 8
; Line 108
	test	eax, eax
	je	SHORT $LN3@PedSpoofMo
	push	1
	push	esi
	call	_lua_type
	add	esp, 8
	cmp	eax, 3
	je	SHORT $LN2@PedSpoofMo
$LN3@PedSpoofMo:
; Line 109
	push	OFFSET ??_C@_03PKAJCHBH@ped@
	push	1
	push	esi
	call	_luaL_typerror
	add	esp, 12					; 0000000cH
$LN2@PedSpoofMo:
; Line 110
	push	3
	push	2
	push	esi
	call	_luaL_checktype
	add	esp, 12					; 0000000cH
; Line 111
	xor	eax, eax
	pop	esi
; Line 112
	ret	0
_PedSpoofModel ENDP
_TEXT	ENDS
; Function compile flags: /Ogtpy
;	COMDAT _PedSetThrottle
_TEXT	SEGMENT
_lua$ = 8						; size = 4
_PedSetThrottle PROC					; COMDAT
; File C:\Program Files (x86)\Steam\steamapps\common\Bully Scholarship Edition\_derpy_script_loader\src\client\library\lib_ped.c
; Line 92
	push	esi
	push	edi
; Line 96
	mov	edi, DWORD PTR _lua$[esp+4]
	push	0
	push	1
	push	edi
	call	_lua_tonumber
	add	esp, 8
	call	__ftol2_sse
	push	eax
	mov	eax, 6058880				; 005c7380H
	call	eax
	mov	esi, eax
	add	esp, 8
; Line 97
	test	esi, esi
	je	SHORT $LN3@PedSetThro
	push	1
	push	edi
	call	_lua_type
	add	esp, 8
	cmp	eax, 3
	je	SHORT $LN2@PedSetThro
$LN3@PedSetThro:
; Line 98
	push	OFFSET ??_C@_03PKAJCHBH@ped@
	push	1
	push	edi
	call	_luaL_typerror
	add	esp, 12					; 0000000cH
$LN2@PedSetThro:
; Line 99
	push	3
	push	2
	push	edi
	call	_luaL_checktype
; Line 100
	mov	esi, DWORD PTR [esi+736]
; Line 101
	push	2
	push	edi
	call	_lua_tonumber
	add	esp, 20					; 00000014H
; Line 102
	xor	eax, eax
	fstp	DWORD PTR [esi+28]
	pop	edi
	pop	esi
; Line 103
	ret	0
_PedSetThrottle ENDP
_TEXT	ENDS
; Function compile flags: /Ogtpy
;	COMDAT _PedSetPosSimple
_TEXT	SEGMENT
_lua$ = 8						; size = 4
_PedSetPosSimple PROC					; COMDAT
; File C:\Program Files (x86)\Steam\steamapps\common\Bully Scholarship Edition\_derpy_script_loader\src\client\library\lib_ped.c
; Line 78
	push	esi
; Line 81
	mov	esi, DWORD PTR _lua$[esp]
	push	edi
	push	0
	push	1
	push	esi
	call	_lua_tonumber
	add	esp, 8
	call	__ftol2_sse
	push	eax
	mov	eax, 6058880				; 005c7380H
	call	eax
	mov	edi, eax
	add	esp, 8
; Line 82
	test	edi, edi
	je	SHORT $LN3@PedSetPosS
	push	1
	push	esi
	call	_lua_type
	add	esp, 8
	cmp	eax, 3
	je	SHORT $LN2@PedSetPosS
$LN3@PedSetPosS:
; Line 83
	push	OFFSET ??_C@_03PKAJCHBH@ped@
	push	1
	push	esi
	call	_luaL_typerror
	add	esp, 12					; 0000000cH
$LN2@PedSetPosS:
; Line 84
	cmp	DWORD PTR [edi+4880], 13		; 0000000dH
	mov	eax, 6063024				; 005c83b0H
	push	esi
	jne	SHORT $LN4@PedSetPosS
; Line 85
	mov	DWORD PTR [edi+4880], 12		; 0000000cH
; Line 86
	call	eax
; Line 91
	add	esp, 4
	mov	DWORD PTR [edi+4880], 13		; 0000000dH
	xor	eax, eax
	pop	edi
	pop	esi
	ret	0
$LN4@PedSetPosS:
; Line 89
	call	eax
; Line 91
	add	esp, 4
	xor	eax, eax
	pop	edi
	pop	esi
	ret	0
_PedSetPosSimple ENDP
_TEXT	ENDS
; Function compile flags: /Ogtpy
;	COMDAT _PedGetThrottle
_TEXT	SEGMENT
_lua$ = 8						; size = 4
_PedGetThrottle PROC					; COMDAT
; File C:\Program Files (x86)\Steam\steamapps\common\Bully Scholarship Edition\_derpy_script_loader\src\client\library\lib_ped.c
; Line 67
	push	esi
; Line 71
	mov	esi, DWORD PTR _lua$[esp]
	push	edi
	push	0
	push	1
	push	esi
	call	_lua_tonumber
	add	esp, 8
	call	__ftol2_sse
	push	eax
	mov	eax, 6058880				; 005c7380H
	call	eax
	mov	edi, eax
	add	esp, 8
; Line 72
	test	edi, edi
	je	SHORT $LN3@PedGetThro
	push	1
	push	esi
	call	_lua_type
	add	esp, 8
	cmp	eax, 3
	je	SHORT $LN2@PedGetThro
$LN3@PedGetThro:
; Line 73
	push	OFFSET ??_C@_03PKAJCHBH@ped@
	push	1
	push	esi
	call	_luaL_typerror
	add	esp, 12					; 0000000cH
$LN2@PedGetThro:
; Line 75
	mov	eax, DWORD PTR [edi+736]
	push	ecx
	movss	xmm0, DWORD PTR [eax+28]
	movss	DWORD PTR [esp], xmm0
	push	esi
	call	_lua_pushnumber
	add	esp, 8
; Line 76
	mov	eax, 1
	pop	edi
	pop	esi
; Line 77
	ret	0
_PedGetThrottle ENDP
_TEXT	ENDS
; Function compile flags: /Ogtpy
;	COMDAT _PedGetModelId
_TEXT	SEGMENT
_lua$ = 8						; size = 4
_PedGetModelId PROC					; COMDAT
; File C:\Program Files (x86)\Steam\steamapps\common\Bully Scholarship Edition\_derpy_script_loader\src\client\library\lib_ped.c
; Line 58
	push	esi
; Line 61
	mov	esi, DWORD PTR _lua$[esp]
	push	edi
	push	0
	push	1
	push	esi
	call	_lua_tonumber
	add	esp, 8
	call	__ftol2_sse
	push	eax
	mov	eax, 6058880				; 005c7380H
	call	eax
	mov	edi, eax
	add	esp, 8
; Line 62
	test	edi, edi
	je	SHORT $LN3@PedGetMode
	push	1
	push	esi
	call	_lua_type
	add	esp, 8
	cmp	eax, 3
	je	SHORT $LN2@PedGetMode
$LN3@PedGetMode:
; Line 63
	push	OFFSET ??_C@_03PKAJCHBH@ped@
	push	1
	push	esi
	call	_luaL_typerror
	add	esp, 12					; 0000000cH
$LN2@PedGetMode:
; Line 64
	movsx	eax, WORD PTR [edi+270]
	push	ecx
	movd	xmm0, eax
	cvtdq2ps xmm0, xmm0
	movss	DWORD PTR [esp], xmm0
	push	esi
	call	_lua_pushnumber
	add	esp, 8
; Line 65
	mov	eax, 1
	pop	edi
	pop	esi
; Line 66
	ret	0
_PedGetModelId ENDP
_TEXT	ENDS
; Function compile flags: /Ogtpy
;	COMDAT _PedCreateScriptless
_TEXT	SEGMENT
_sm$1$ = -32						; size = 4
tv212 = -28						; size = 8
_sb$ = -20						; size = 20
_lua$ = 8						; size = 4
_PedCreateScriptless PROC				; COMDAT
; File C:\Program Files (x86)\Steam\steamapps\common\Bully Scholarship Edition\_derpy_script_loader\src\client\library\lib_ped.c
; Line 28
	sub	esp, 32					; 00000020H
	push	ebx
; Line 36
	mov	ebx, DWORD PTR _lua$[esp+32]
	push	ebp
	push	esi
	push	edi
	push	3
	push	1
	push	ebx
	call	_luaL_checktype
; Line 37
	push	3
	push	2
	push	ebx
	call	_luaL_checktype
; Line 38
	push	3
	push	3
	push	ebx
	call	_luaL_checktype
; Line 39
	push	3
	push	4
	push	ebx
	call	_luaL_checktype
; Line 40
	push	ebx
	call	_lua_gettop
	add	esp, 52					; 00000034H
	cmp	eax, 5
	jl	SHORT $LN2@PedCreateS
; Line 41
	push	3
	push	5
	push	ebx
	call	_luaL_checktype
	add	esp, 12					; 0000000cH
$LN2@PedCreateS:
; Line 42
	push	1
	push	ebx
	call	_getDslState
	add	esp, 8
; Line 44
	mov	ebp, DWORD PTR [eax]
	mov	esi, DWORD PTR [eax+32]
	mov	DWORD PTR _sm$1$[esp+48], esi
; Line 45
	test	ebp, ebp
	jne	SHORT $LN3@PedCreateS
; Line 46
	push	OFFSET ??_C@_0P@BBKBEPMD@game?5not?5ready@
	push	ebx
	call	_luaL_error
	add	esp, 8
$LN3@PedCreateS:
; Line 47
	lea	eax, DWORD PTR _sb$[esp+48]
	push	eax
	push	0
	push	esi
	call	_startScriptBlock
; Line 50
	mov	esi, DWORD PTR [ebp+27524]
	add	esp, 12					; 0000000cH
	mov	edi, DWORD PTR [ebp+27492]
	mov	DWORD PTR [ebp+27528], -1
; Line 51
	mov	DWORD PTR [ebp+27524], 0
; Line 52
	push	1
	push	5
	push	ebx
	call	_lua_tonumber
	fstp	QWORD PTR tv212[esp+60]
	movsd	xmm0, QWORD PTR tv212[esp+60]
	add	esp, 4
	mulsd	xmm0, QWORD PTR __real@3f91df46a2529d39
	cvtpd2ps xmm0, xmm0
	movss	DWORD PTR [esp], xmm0
	push	4
	push	ebx
	call	_lua_tonumber
	add	esp, 4
	fstp	DWORD PTR [esp]
	push	3
	push	ebx
	call	_lua_tonumber
	add	esp, 4
	fstp	DWORD PTR [esp]
	push	2
	push	ebx
	call	_lua_tonumber
	add	esp, 4
	fstp	DWORD PTR [esp]
	push	1
	push	ebx
	call	_lua_tonumber
	add	esp, 8
	call	__ftol2_sse
	push	eax
	push	0
	mov	eax, 6092816				; 005cf810H
	call	eax
	add	esp, 24					; 00000018H
	movd	xmm0, eax
	cvtdq2ps xmm0, xmm0
	movss	DWORD PTR [esp], xmm0
	push	ebx
	call	_lua_pushnumber
; Line 55
	push	ebx
	lea	eax, DWORD PTR _sb$[esp+60]
	mov	DWORD PTR [ebp+27524], esi
	push	eax
	push	DWORD PTR _sm$1$[esp+64]
	mov	DWORD PTR [ebp+27492], edi
	call	_finishScriptBlock
	add	esp, 20					; 00000014H
; Line 56
	mov	eax, 1
	pop	edi
	pop	esi
	pop	ebp
	pop	ebx
; Line 57
	add	esp, 32					; 00000020H
	ret	0
_PedCreateScriptless ENDP
_TEXT	ENDS
; Function compile flags: /Ogtpy
;	COMDAT _AllPeds
_TEXT	SEGMENT
_lua$ = 8						; size = 4
_AllPeds PROC						; COMDAT
; File C:\Program Files (x86)\Steam\steamapps\common\Bully Scholarship Edition\_derpy_script_loader\src\client\library\lib_ped.c
; Line 24
	push	ecx
	mov	DWORD PTR [esp], 0
	push	DWORD PTR _lua$[esp]
	call	_lua_pushnumber
; Line 25
	push	1
	push	OFFSET _iterPeds
	push	DWORD PTR _lua$[esp+12]
	call	_lua_pushcclosure
	add	esp, 20					; 00000014H
; Line 26
	mov	eax, 1
; Line 27
	ret	0
_AllPeds ENDP
_TEXT	ENDS
; Function compile flags: /Ogtpy
;	COMDAT _iterPeds
_TEXT	SEGMENT
tv188 = -4						; size = 4
_lua$ = 8						; size = 4
_iterPeds PROC						; COMDAT
; File C:\Program Files (x86)\Steam\steamapps\common\Bully Scholarship Edition\_derpy_script_loader\src\client\library\lib_ped.c
; Line 8
	push	ecx
	push	ebx
; Line 12
	mov	ebx, DWORD PTR ds:12645872
	push	ebp
; Line 13
	mov	ebp, DWORD PTR _lua$[esp+8]
	push	esi
	push	edi
	push	-10002					; ffffd8eeH
	push	ebp
	call	_lua_tonumber
	fstp	DWORD PTR tv188[esp+28]
	cvttss2si esi, DWORD PTR tv188[esp+28]
	add	esp, 8
	cmp	esi, DWORD PTR [ebx+8]
	jae	SHORT $LN3@iterPeds
; Line 12
	lea	edi, DWORD PTR [esi+1]
	npad	1
$LL4@iterPeds:
	movd	xmm0, edi
; Line 14
	cvtdq2ps xmm0, xmm0
	push	ecx
	movss	DWORD PTR [esp], xmm0
	push	ebp
	call	_lua_pushnumber
; Line 15
	push	-10002					; ffffd8eeH
	push	ebp
	call	_lua_replace
; Line 16
	mov	eax, DWORD PTR [ebx+4]
	add	esp, 16					; 00000010H
	movzx	eax, BYTE PTR [eax+esi]
	not	eax
	test	al, al
	js	SHORT $LN8@iterPeds
; Line 13
	inc	esi
	inc	edi
	cmp	esi, DWORD PTR [ebx+8]
	jb	SHORT $LL4@iterPeds
$LN3@iterPeds:
	pop	edi
; Line 22
	pop	esi
	pop	ebp
	xor	eax, eax
	pop	ebx
	pop	ecx
	ret	0
$LN8@iterPeds:
; Line 17
	mov	ecx, DWORD PTR [ebx+12]
	mov	eax, DWORD PTR [ebx]
	imul	ecx, esi
	push	ecx
	movd	xmm0, DWORD PTR [ecx+eax+7468]
	cvtdq2ps xmm0, xmm0
	movss	DWORD PTR [esp], xmm0
	push	ebp
	call	_lua_pushnumber
	add	esp, 8
; Line 18
	mov	eax, 1
	pop	edi
; Line 22
	pop	esi
	pop	ebp
	pop	ebx
	pop	ecx
	ret	0
_iterPeds ENDP
_TEXT	ENDS
; Function compile flags: /Ogtpy
;	COMDAT _sprintf
_TEXT	SEGMENT
__Buffer$ = 8						; size = 4
__Format$ = 12						; size = 4
_sprintf PROC						; COMDAT
; File C:\Program Files (x86)\Windows Kits\10\include\10.0.18362.0\ucrt\stdio.h
; Line 1390
	lea	eax, DWORD PTR __Format$[esp]
	push	eax
	push	0
	push	DWORD PTR __Format$[esp+4]
	push	-1
	push	DWORD PTR __Buffer$[esp+12]
	call	___local_stdio_printf_options
	mov	ecx, DWORD PTR [eax]
	push	DWORD PTR [eax+4]
	or	ecx, 1
	push	ecx
	call	___stdio_common_vsprintf
; Line 1394
	or	ecx, -1
	add	esp, 28					; 0000001cH
	test	eax, eax
	cmovs	eax, ecx
; Line 1793
	ret	0
_sprintf ENDP
_TEXT	ENDS
; Function compile flags: /Ogtpy
;	COMDAT __vsprintf_l
_TEXT	SEGMENT
__Buffer$ = 8						; size = 4
__Format$ = 12						; size = 4
__Locale$ = 16						; size = 4
__ArgList$ = 20						; size = 4
__vsprintf_l PROC					; COMDAT
; File C:\Program Files (x86)\Windows Kits\10\include\10.0.18362.0\ucrt\stdio.h
; Line 1390
	push	DWORD PTR __ArgList$[esp-4]
	push	DWORD PTR __Locale$[esp]
	push	DWORD PTR __Format$[esp+4]
	push	-1
	push	DWORD PTR __Buffer$[esp+12]
	call	___local_stdio_printf_options
	mov	ecx, DWORD PTR [eax]
	push	DWORD PTR [eax+4]
	or	ecx, 1
	push	ecx
	call	___stdio_common_vsprintf
; Line 1394
	or	ecx, -1
	add	esp, 28					; 0000001cH
	test	eax, eax
	cmovs	eax, ecx
; Line 1464
	ret	0
__vsprintf_l ENDP
_TEXT	ENDS
; Function compile flags: /Ogtpy
;	COMDAT __vsnprintf_l
_TEXT	SEGMENT
__Buffer$ = 8						; size = 4
__BufferCount$ = 12					; size = 4
__Format$ = 16						; size = 4
__Locale$ = 20						; size = 4
__ArgList$ = 24						; size = 4
__vsnprintf_l PROC					; COMDAT
; File C:\Program Files (x86)\Windows Kits\10\include\10.0.18362.0\ucrt\stdio.h
; Line 1390
	push	DWORD PTR __ArgList$[esp-4]
	push	DWORD PTR __Locale$[esp]
	push	DWORD PTR __Format$[esp+4]
	push	DWORD PTR __BufferCount$[esp+8]
	push	DWORD PTR __Buffer$[esp+12]
	call	___local_stdio_printf_options
	mov	ecx, DWORD PTR [eax]
	push	DWORD PTR [eax+4]
	or	ecx, 1
	push	ecx
	call	___stdio_common_vsprintf
; Line 1394
	or	ecx, -1
	add	esp, 28					; 0000001cH
	test	eax, eax
	cmovs	eax, ecx
; Line 1395
	ret	0
__vsnprintf_l ENDP
_TEXT	ENDS
; Function compile flags: /Ogtpy
;	COMDAT ___local_stdio_printf_options
_TEXT	SEGMENT
___local_stdio_printf_options PROC			; COMDAT
; File C:\Program Files (x86)\Windows Kits\10\include\10.0.18362.0\ucrt\corecrt_stdio_config.h
; Line 88
	mov	eax, OFFSET ?_OptionsStorage@?1??__local_stdio_printf_options@@9@9 ; `__local_stdio_printf_options'::`2'::_OptionsStorage
; Line 89
	ret	0
___local_stdio_printf_options ENDP
_TEXT	ENDS
END
