; Listing generated by Microsoft (R) Optimizing Compiler Version 19.23.28107.0 

	TITLE	C:\Program Files (x86)\Steam\steamapps\common\Bully Scholarship Edition\_derpy_script_loader\src\client\library\lib_locale.c
	.686P
	.XMM
	include listing.inc
	.model	flat

INCLUDELIB LIBCMT
INCLUDELIB OLDNAMES

PUBLIC	_dslopen_locale
PUBLIC	??_C@_0GP@PBNFKABC@?$CFsA?5script?5is?5using?5the?5custom?5@ ; `string'
PUBLIC	??_C@_08OCHDMOAM@DSL_TEXT@			; `string'
PUBLIC	??_C@_0BM@NCPIKGAF@failed?5to?5setup?5custom?5text@ ; `string'
PUBLIC	??_C@_0DN@BLABJLHP@text?5label?5?$CC?$CFs?$CC?5was?5already?5reg@ ; `string'
PUBLIC	??_C@_0BI@MJMHAJHN@failed?5to?5register?5text@	; `string'
PUBLIC	??_C@_0CH@DGJIBAD@no?5text?5label?5?$CC?$CFs?$CC?5is?5currently@ ; `string'
PUBLIC	??_C@_0BB@JEBPPNGD@GetLocalizedText@		; `string'
PUBLIC	??_C@_0BG@EGMJMOIA@RegisterLocalizedText@	; `string'
PUBLIC	??_C@_0BF@OHNIAPOK@ReplaceLocalizedText@	; `string'
EXTRN	_strncpy:PROC
EXTRN	_lua_tonumber:PROC
EXTRN	_lua_tostring:PROC
EXTRN	_lua_pushstring:PROC
EXTRN	_lua_pushcclosure:PROC
EXTRN	_lua_settable:PROC
EXTRN	_luaL_checklstring:PROC
EXTRN	_luaL_checktype:PROC
EXTRN	_luaL_error:PROC
EXTRN	_getDslState:PROC
EXTRN	_getDslPrintPrefix:PROC
EXTRN	_printConsoleFormatted:PROC
EXTRN	__ftoui3:PROC
EXTRN	_memcpy:PROC
EXTRN	_memset:PROC
EXTRN	__fltused:DWORD
;	COMDAT ??_C@_0BF@OHNIAPOK@ReplaceLocalizedText@
CONST	SEGMENT
??_C@_0BF@OHNIAPOK@ReplaceLocalizedText@ DB 'ReplaceLocalizedText', 00H ; `string'
CONST	ENDS
;	COMDAT ??_C@_0BG@EGMJMOIA@RegisterLocalizedText@
CONST	SEGMENT
??_C@_0BG@EGMJMOIA@RegisterLocalizedText@ DB 'RegisterLocalizedText', 00H ; `string'
CONST	ENDS
;	COMDAT ??_C@_0BB@JEBPPNGD@GetLocalizedText@
CONST	SEGMENT
??_C@_0BB@JEBPPNGD@GetLocalizedText@ DB 'GetLocalizedText', 00H ; `string'
CONST	ENDS
;	COMDAT ??_C@_0CH@DGJIBAD@no?5text?5label?5?$CC?$CFs?$CC?5is?5currently@
CONST	SEGMENT
??_C@_0CH@DGJIBAD@no?5text?5label?5?$CC?$CFs?$CC?5is?5currently@ DB 'no t'
	DB	'ext label "%s" is currently loaded', 00H	; `string'
CONST	ENDS
;	COMDAT ??_C@_0BI@MJMHAJHN@failed?5to?5register?5text@
CONST	SEGMENT
??_C@_0BI@MJMHAJHN@failed?5to?5register?5text@ DB 'failed to register tex'
	DB	't', 00H					; `string'
CONST	ENDS
;	COMDAT ??_C@_0DN@BLABJLHP@text?5label?5?$CC?$CFs?$CC?5was?5already?5reg@
CONST	SEGMENT
??_C@_0DN@BLABJLHP@text?5label?5?$CC?$CFs?$CC?5was?5already?5reg@ DB 'tex'
	DB	't label "%s" was already registered with a smaller length', 00H ; `string'
CONST	ENDS
;	COMDAT ??_C@_0BM@NCPIKGAF@failed?5to?5setup?5custom?5text@
CONST	SEGMENT
??_C@_0BM@NCPIKGAF@failed?5to?5setup?5custom?5text@ DB 'failed to setup c'
	DB	'ustom text', 00H				; `string'
CONST	ENDS
;	COMDAT ??_C@_08OCHDMOAM@DSL_TEXT@
CONST	SEGMENT
??_C@_08OCHDMOAM@DSL_TEXT@ DB 'DSL_TEXT', 00H		; `string'
CONST	ENDS
;	COMDAT ??_C@_0GP@PBNFKABC@?$CFsA?5script?5is?5using?5the?5custom?5@
CONST	SEGMENT
??_C@_0GP@PBNFKABC@?$CFsA?5script?5is?5using?5the?5custom?5@ DB '%sA scri'
	DB	'pt is using the custom text registration system, which is ver'
	DB	'y unstable and experimental at this time.', 00H ; `string'
CONST	ENDS
; Function compile flags: /Ogtpy
;	COMDAT _dslopen_locale
_TEXT	SEGMENT
_lua$ = 8						; size = 4
_dslopen_locale PROC					; COMDAT
; File C:\Program Files (x86)\Steam\steamapps\common\Bully Scholarship Edition\_derpy_script_loader\src\client\library\lib_locale.c
; Line 221
	push	esi
; Line 222
	mov	esi, DWORD PTR _lua$[esp]
	push	OFFSET ??_C@_0BB@JEBPPNGD@GetLocalizedText@
	push	esi
	call	_lua_pushstring
	push	0
	push	OFFSET _GetLocalizedText
	push	esi
	call	_lua_pushcclosure
	push	-10001					; ffffd8efH
	push	esi
	call	_lua_settable
; Line 223
	push	OFFSET ??_C@_0BG@EGMJMOIA@RegisterLocalizedText@
	push	esi
	call	_lua_pushstring
	push	0
	push	OFFSET _RegisterLocalizedText
	push	esi
	call	_lua_pushcclosure
	push	-10001					; ffffd8efH
	push	esi
	call	_lua_settable
; Line 224
	push	OFFSET ??_C@_0BF@OHNIAPOK@ReplaceLocalizedText@
	push	esi
	call	_lua_pushstring
	add	esp, 64					; 00000040H
	push	0
	push	OFFSET _ReplaceLocalizedText
	push	esi
	call	_lua_pushcclosure
	push	-10001					; ffffd8efH
	push	esi
	call	_lua_settable
	add	esp, 20					; 00000014H
; Line 225
	xor	eax, eax
	pop	esi
; Line 226
	ret	0
_dslopen_locale ENDP
_TEXT	ENDS
; Function compile flags: /Ogtpy
;	COMDAT _ReplaceLocalizedText
_TEXT	SEGMENT
_lua$ = 8						; size = 4
_ReplaceLocalizedText PROC				; COMDAT
; File C:\Program Files (x86)\Steam\steamapps\common\Bully Scholarship Edition\_derpy_script_loader\src\client\library\lib_locale.c
; Line 197
	push	ebx
; Line 204
	mov	ebx, DWORD PTR _lua$[esp]
	push	ebp
	push	esi
	push	edi
	push	4
	push	1
	push	ebx
	call	_luaL_checktype
; Line 206
	push	1
	push	ebx
	call	_lua_tostring
	push	eax
	mov	eax, 5730000				; 00576ed0H
	call	eax
	add	esp, 24					; 00000018H
	mov	ecx, eax
; Line 207
	xor	esi, esi
; Line 208
	mov	edi, 7
	npad	2
$LL2@ReplaceLoc:
; Line 210
	mov	eax, DWORD PTR [edi*4+34353056]
	dec	edi
	test	eax, eax
	je	SHORT $LN4@ReplaceLoc
; Line 54
	mov	edx, DWORD PTR [eax+40]
; Line 55
	mov	eax, DWORD PTR [eax+20]
; Line 56
	test	eax, eax
	je	SHORT $LN9@ReplaceLoc
; Line 54
	lea	esi, DWORD PTR [edx+eax*8]
	npad	7
$LL8@ReplaceLoc:
; Line 57
	sub	esi, 8
	dec	eax
	cmp	DWORD PTR [esi], ecx
	je	SHORT $LN22@ReplaceLoc
; Line 56
	test	eax, eax
	jne	SHORT $LL8@ReplaceLoc
$LN9@ReplaceLoc:
; Line 59
	xor	esi, esi
$LN4@ReplaceLoc:
; Line 209
	test	edi, edi
	jne	SHORT $LL2@ReplaceLoc
; Line 212
	test	esi, esi
	jne	SHORT $LN5@ReplaceLoc
; Line 213
	push	1
	push	ebx
	call	_lua_tostring
	push	eax
	push	OFFSET ??_C@_0CH@DGJIBAD@no?5text?5label?5?$CC?$CFs?$CC?5is?5currently@
	push	ebx
	call	_luaL_error
	add	esp, 20					; 00000014H
$LN5@ReplaceLoc:
; Line 214
	mov	eax, DWORD PTR [edi*4+34353060]
; Line 37
	xor	edi, edi
; Line 39
	mov	ebp, DWORD PTR [esi+4]
; Line 40
	mov	ebx, DWORD PTR [eax+44]
	lea	edx, DWORD PTR [edi+1]
	add	ebx, DWORD PTR [eax+12]
; Line 41
	cmp	ebp, ebx
	jae	SHORT $LN32@ReplaceLoc
; Line 214
	mov	eax, ebp
$LL13@ReplaceLoc:
; Line 42
	mov	cl, BYTE PTR [eax]
	test	edx, edx
	je	SHORT $LN15@ReplaceLoc
; Line 43
	movsx	edx, cl
	jmp	SHORT $LN17@ReplaceLoc
$LN22@ReplaceLoc:
; Line 210
	test	esi, esi
	jne	SHORT $LN5@ReplaceLoc
	jmp	SHORT $LN4@ReplaceLoc
$LN15@ReplaceLoc:
; Line 44
	test	cl, cl
	jne	SHORT $LN32@ReplaceLoc
$LN17@ReplaceLoc:
; Line 46
	inc	eax
	inc	edi
	cmp	eax, ebx
	jb	SHORT $LL13@ReplaceLoc
$LN32@ReplaceLoc:
; Line 48
	add	edi, -3					; fffffffdH
; Line 215
	lea	eax, DWORD PTR [edi+1]
	push	eax
	lea	eax, DWORD PTR [ebp+2]
	push	0
	push	eax
	call	_memset
	add	esp, 12					; 0000000cH
; Line 216
	push	edi
	push	0
	push	2
	push	DWORD PTR _lua$[esp+24]
	call	_luaL_checklstring
	add	esp, 12					; 0000000cH
	push	eax
	mov	eax, DWORD PTR [esi+4]
	add	eax, 2
	push	eax
	call	_strncpy
	add	esp, 12					; 0000000cH
; Line 217
	xor	eax, eax
	pop	edi
	pop	esi
	pop	ebp
	pop	ebx
; Line 218
	ret	0
_ReplaceLocalizedText ENDP
_TEXT	ENDS
; Function compile flags: /Ogtpy
;	COMDAT _RegisterLocalizedText
_TEXT	SEGMENT
tv539 = -8						; size = 4
_length$1$ = -8						; size = 4
_hash$1$ = -4						; size = 4
_lua$ = 8						; size = 4
_RegisterLocalizedText PROC				; COMDAT
; File C:\Program Files (x86)\Steam\steamapps\common\Bully Scholarship Edition\_derpy_script_loader\src\client\library\lib_locale.c
; Line 164
	sub	esp, 8
	push	ebx
	push	ebp
; Line 171
	mov	ebp, DWORD PTR _lua$[esp+12]
	push	esi
	push	edi
	push	1
	push	ebp
	call	_getDslState
	mov	esi, eax
	add	esp, 8
; Line 172
	mov	ecx, DWORD PTR [esi+340]
	not	ecx
	test	cl, 64					; 00000040H
	je	SHORT $LN2@RegisterLo
; Line 173
	push	1
	push	esi
	call	_getDslPrintPrefix
	push	eax
	push	OFFSET ??_C@_0GP@PBNFKABC@?$CFsA?5script?5is?5using?5the?5custom?5@
	push	2
	push	DWORD PTR [esi+24]
	call	_printConsoleFormatted
	add	esp, 24					; 00000018H
; Line 174
	or	DWORD PTR [esi+340], 64			; 00000040H
$LN2@RegisterLo:
; Line 176
	push	4
	push	1
	push	ebp
	call	_luaL_checktype
; Line 177
	push	3
	push	2
	push	ebp
	call	_luaL_checktype
; Line 178
	push	1
	push	ebp
	call	_lua_tostring
	push	eax
	mov	esi, 5730000				; 00576ed0H
	call	esi
; Line 179
	push	2
	push	ebp
	mov	DWORD PTR _hash$1$[esp+68], eax
	call	_lua_tonumber
	add	esp, 44					; 0000002cH
	fstp	DWORD PTR tv539[esp+24]
	movss	xmm0, DWORD PTR tv539[esp+24]
	call	__ftoui3
; Line 180
	push	OFFSET ??_C@_08OCHDMOAM@DSL_TEXT@
	mov	DWORD PTR _length$1$[esp+28], eax
	call	esi
	add	esp, 4
	mov	ebx, eax
; Line 67
	xor	esi, esi
	npad	5
$LL13@RegisterLo:
; Line 68
	mov	edi, DWORD PTR [esi*4+34353060]
	test	edi, edi
	je	SHORT $LN11@RegisterLo
	cmp	DWORD PTR [edi+48], ebx
	je	SHORT $LN10@RegisterLo
$LN11@RegisterLo:
; Line 67
	inc	esi
	cmp	esi, 7
	jl	SHORT $LL13@RegisterLo
	npad	10
$LL14@RegisterLo:
; Line 71
	dec	esi
	cmp	DWORD PTR [esi*4+34353060], 0
	je	SHORT $LN37@RegisterLo
; Line 70
	test	esi, esi
	jne	SHORT $LL14@RegisterLo
; Line 83
	xor	edi, edi
; Line 181
	jmp	SHORT $LN50@RegisterLo
$LN37@RegisterLo:
; Line 72
	push	56					; 00000038H
	mov	eax, 6220448				; 005eeaa0H
	call	eax
	mov	edi, eax
	add	esp, 4
; Line 73
	test	edi, edi
	je	SHORT $LN50@RegisterLo
$LN18@RegisterLo:
; Line 75
	push	ebx
	mov	eax, 6881760				; 006901e0H
	xor	edx, edx
	mov	ecx, edi
	call	eax
; Line 76
	mov	DWORD PTR [edi+44], 0
; Line 77
	mov	DWORD PTR [edi+40], 0
; Line 78
	mov	DWORD PTR [edi+20], 0
; Line 79
	mov	DWORD PTR [edi+12], 0
; Line 80
	mov	DWORD PTR [edi+16], 0
; Line 81
	mov	DWORD PTR [esi*4+34353060], edi
$LN10@RegisterLo:
; Line 181
	test	edi, edi
	jne	SHORT $LN3@RegisterLo
$LN50@RegisterLo:
; Line 182
	push	OFFSET ??_C@_0BM@NCPIKGAF@failed?5to?5setup?5custom?5text@
	push	ebp
	call	_luaL_error
	add	esp, 8
$LN3@RegisterLo:
; Line 55
	mov	eax, DWORD PTR [edi+20]
	mov	ecx, DWORD PTR [edi+40]
; Line 56
	test	eax, eax
	je	SHORT $LN71@RegisterLo
	mov	edx, DWORD PTR _hash$1$[esp+24]
; Line 54
	lea	ecx, DWORD PTR [ecx+eax*8]
	npad	2
$LL21@RegisterLo:
; Line 57
	sub	ecx, 8
	dec	eax
	cmp	DWORD PTR [ecx], edx
	je	SHORT $LN20@RegisterLo
; Line 56
	test	eax, eax
	jne	SHORT $LL21@RegisterLo
$LN71@RegisterLo:
; Line 190
	mov	esi, DWORD PTR _length$1$[esp+24]
$LN4@RegisterLo:
	push	esi
	push	DWORD PTR _hash$1$[esp+28]
	push	edi
	call	_addTextDataString
	add	esp, 12					; 0000000cH
	test	eax, eax
	jne	SHORT $LN64@RegisterLo
; Line 191
	cmp	DWORD PTR [edi+44], eax
	jne	SHORT $LN8@RegisterLo
; Line 192
	push	edi
	call	_removeTextDataPtr
	add	esp, 4
$LN8@RegisterLo:
; Line 193
	push	OFFSET ??_C@_0BI@MJMHAJHN@failed?5to?5register?5text@
	push	ebp
	call	_luaL_error
	add	esp, 8
$LN64@RegisterLo:
; Line 196
	pop	edi
	pop	esi
	pop	ebp
	xor	eax, eax
	pop	ebx
	add	esp, 8
	ret	0
$LN20@RegisterLo:
; Line 183
	test	ecx, ecx
	je	SHORT $LN71@RegisterLo
; Line 39
	mov	eax, DWORD PTR [ecx+4]
	xor	edx, edx
; Line 40
	mov	ebx, DWORD PTR [edi+12]
	mov	ecx, DWORD PTR [edi+44]
	add	ebx, ecx
	lea	esi, DWORD PTR [edx+1]
; Line 41
	cmp	eax, ebx
	jae	SHORT $LN39@RegisterLo
$LL26@RegisterLo:
; Line 42
	mov	cl, BYTE PTR [eax]
	test	esi, esi
	je	SHORT $LN28@RegisterLo
; Line 43
	movsx	esi, cl
	jmp	SHORT $LN30@RegisterLo
$LN28@RegisterLo:
; Line 44
	test	cl, cl
	jne	SHORT $LN69@RegisterLo
$LN30@RegisterLo:
; Line 46
	inc	eax
	inc	edx
	cmp	eax, ebx
	jb	SHORT $LL26@RegisterLo
$LN69@RegisterLo:
	mov	ecx, DWORD PTR [edi+44]
$LN39@RegisterLo:
; Line 184
	mov	esi, DWORD PTR _length$1$[esp+24]
; Line 48
	lea	eax, DWORD PTR [edx-3]
; Line 184
	cmp	eax, esi
	jae	SHORT $LN64@RegisterLo
; Line 186
	test	ecx, ecx
	jne	SHORT $LN6@RegisterLo
; Line 187
	push	edi
	call	_removeTextDataPtr
	add	esp, 4
$LN6@RegisterLo:
; Line 188
	push	1
	push	ebp
	call	_lua_tostring
	push	eax
	push	OFFSET ??_C@_0DN@BLABJLHP@text?5label?5?$CC?$CFs?$CC?5was?5already?5reg@
	push	ebp
	call	_luaL_error
	add	esp, 20					; 00000014H
	jmp	$LN4@RegisterLo
_RegisterLocalizedText ENDP
_TEXT	ENDS
; Function compile flags: /Ogtpy
;	COMDAT _GetLocalizedText
_TEXT	SEGMENT
_lua$ = 8						; size = 4
_GetLocalizedText PROC					; COMDAT
; File C:\Program Files (x86)\Steam\steamapps\common\Bully Scholarship Edition\_derpy_script_loader\src\client\library\lib_locale.c
; Line 145
	push	esi
	push	edi
; Line 151
	mov	edi, DWORD PTR _lua$[esp+4]
	push	4
	push	1
	push	edi
	call	_luaL_checktype
; Line 153
	push	1
	push	edi
	call	_lua_tostring
	push	eax
	mov	eax, 5730000				; 00576ed0H
	call	eax
	add	esp, 24					; 00000018H
	mov	edx, eax
; Line 154
	xor	ecx, ecx
	mov	esi, 34353088				; 020c2fc0H
	npad	4
$LL2@GetLocaliz:
; Line 157
	mov	eax, DWORD PTR [esi-4]
	sub	esi, 4
	test	eax, eax
	je	SHORT $LN4@GetLocaliz
; Line 54
	mov	ecx, DWORD PTR [eax+40]
; Line 55
	mov	eax, DWORD PTR [eax+20]
; Line 56
	test	eax, eax
	je	SHORT $LN9@GetLocaliz
; Line 54
	lea	ecx, DWORD PTR [ecx+eax*8]
$LL8@GetLocaliz:
; Line 57
	sub	ecx, 8
	dec	eax
	cmp	DWORD PTR [ecx], edx
	je	SHORT $LN14@GetLocaliz
; Line 56
	test	eax, eax
	jne	SHORT $LL8@GetLocaliz
$LN9@GetLocaliz:
; Line 59
	xor	ecx, ecx
$LN4@GetLocaliz:
; Line 156
	cmp	esi, 34353060				; 020c2fa4H
	jne	SHORT $LL2@GetLocaliz
; Line 159
	test	ecx, ecx
	jne	SHORT $LN5@GetLocaliz
; Line 160
	pop	edi
	xor	eax, eax
; Line 163
	pop	esi
	ret	0
$LN14@GetLocaliz:
; Line 157
	test	ecx, ecx
	je	SHORT $LN4@GetLocaliz
$LN5@GetLocaliz:
; Line 161
	mov	eax, DWORD PTR [ecx+4]
	add	eax, 2
	push	eax
	push	edi
	call	_lua_pushstring
	add	esp, 8
; Line 162
	mov	eax, 1
	pop	edi
; Line 163
	pop	esi
	ret	0
_GetLocalizedText ENDP
_TEXT	ENDS
; Function compile flags: /Ogtpy
;	COMDAT _addTextDataString
_TEXT	SEGMENT
_index$1$ = -12						; size = 4
_count$1$ = -8						; size = 4
_pairs_bytes$1$ = -4					; size = 4
_offset$ = 8						; size = 4
_data$ = 8						; size = 4
_hash$ = 12						; size = 4
_length$ = 16						; size = 4
_addTextDataString PROC					; COMDAT
; File C:\Program Files (x86)\Steam\steamapps\common\Bully Scholarship Edition\_derpy_script_loader\src\client\library\lib_locale.c
; Line 97
	sub	esp, 12					; 0000000cH
	push	ebp
	push	esi
; Line 106
	mov	esi, DWORD PTR _data$[esp+16]
; Line 107
	mov	ebp, 6220448				; 005eeaa0H
	push	edi
	mov	eax, DWORD PTR [esi+16]
	add	eax, 8
	mov	DWORD PTR _pairs_bytes$1$[esp+24], eax
	add	eax, 4
	push	eax
	call	ebp
	mov	edi, eax
	add	esp, 4
; Line 108
	test	edi, edi
	jne	SHORT $LN7@addTextDat
; Line 142
	pop	edi
	pop	esi
	pop	ebp
	add	esp, 12					; 0000000cH
	ret	0
$LN7@addTextDat:
	push	ebx
; Line 110
	mov	ebx, DWORD PTR _length$[esp+24]
	add	ebx, 3
	add	ebx, DWORD PTR [esi+12]
; Line 111
	test	bl, 3
	je	SHORT $LN3@addTextDat
	npad	1
$LL2@addTextDat:
; Line 112
	inc	ebx
	test	bl, 3
	jne	SHORT $LL2@addTextDat
$LN3@addTextDat:
; Line 113
	push	ebx
	call	ebp
	mov	ebp, eax
	add	esp, 4
; Line 114
	test	ebp, ebp
	jne	SHORT $LN8@addTextDat
; Line 115
	push	edi
	mov	eax, 6220464				; 005eeab0H
	call	eax
	add	esp, 4
; Line 116
	xor	eax, eax
	pop	ebx
	pop	edi
; Line 142
	pop	esi
	pop	ebp
	add	esp, 12					; 0000000cH
	ret	0
$LN8@addTextDat:
; Line 118
	mov	ecx, DWORD PTR [esi+40]
	test	ecx, ecx
	je	SHORT $LN9@addTextDat
; Line 119
	mov	eax, DWORD PTR [esi+16]
	add	eax, 4
	push	eax
	lea	eax, DWORD PTR [ecx-4]
	push	eax
	push	edi
	call	_memcpy
; Line 120
	mov	eax, DWORD PTR [esi+40]
	sub	eax, 4
	push	eax
	mov	eax, 6220464				; 005eeab0H
	call	eax
	add	esp, 16					; 00000010H
; Line 121
	jmp	SHORT $LN10@addTextDat
$LN9@addTextDat:
; Line 122
	mov	DWORD PTR [edi], 0
$LN10@addTextDat:
; Line 123
	mov	eax, DWORD PTR [esi+44]
	test	eax, eax
	je	SHORT $LN21@addTextDat
; Line 124
	push	DWORD PTR [esi+12]
	push	eax
	push	ebp
	call	_memcpy
; Line 125
	push	DWORD PTR [esi+44]
	mov	eax, 6220464				; 005eeab0H
	call	eax
; Line 126
	mov	edx, ebp
	add	esp, 16					; 00000010H
	sub	edx, DWORD PTR [esi+44]
	jmp	SHORT $LN11@addTextDat
$LN21@addTextDat:
; Line 123
	mov	edx, DWORD PTR _offset$[esp+24]
$LN11@addTextDat:
; Line 129
	mov	ecx, DWORD PTR [esi+20]
	add	edi, 4
	mov	DWORD PTR _count$1$[esp+28], ecx
; Line 130
	mov	DWORD PTR _index$1$[esp+28], 0
	test	ecx, ecx
	jle	SHORT $LN5@addTextDat
; Line 128
	mov	esi, ecx
	lea	eax, DWORD PTR [edi+4]
	mov	DWORD PTR _index$1$[esp+28], esi
	mov	esi, DWORD PTR _data$[esp+24]
$LL6@addTextDat:
; Line 131
	add	DWORD PTR [eax], edx
	lea	eax, DWORD PTR [eax+8]
	sub	ecx, 1
	jne	SHORT $LL6@addTextDat
$LN5@addTextDat:
; Line 132
	mov	ecx, DWORD PTR _index$1$[esp+28]
	mov	eax, DWORD PTR _hash$[esp+24]
	mov	DWORD PTR [edi+ecx*8], eax
; Line 133
	mov	eax, DWORD PTR [esi+12]
	add	eax, ebp
	mov	DWORD PTR [edi+ecx*8+4], eax
; Line 134
	or	ecx, -1
	mov	eax, DWORD PTR [esi+12]
	mov	WORD PTR [eax+ebp], cx
; Line 135
	mov	eax, DWORD PTR _length$[esp+24]
	inc	eax
	push	eax
	mov	eax, DWORD PTR [esi+12]
	add	eax, 2
	add	eax, ebp
	push	0
	push	eax
	call	_memset
; Line 136
	mov	eax, DWORD PTR _pairs_bytes$1$[esp+40]
	add	esp, 12					; 0000000cH
	mov	DWORD PTR [esi+16], eax
; Line 138
	mov	eax, DWORD PTR _count$1$[esp+28]
	mov	DWORD PTR [esi+12], ebx
	inc	eax
	pop	ebx
; Line 139
	mov	DWORD PTR [esi+40], edi
	pop	edi
	mov	DWORD PTR [esi+20], eax
; Line 141
	mov	eax, 1
	mov	DWORD PTR [esi+44], ebp
; Line 142
	pop	esi
	pop	ebp
	add	esp, 12					; 0000000cH
	ret	0
_addTextDataString ENDP
_TEXT	ENDS
; Function compile flags: /Ogtpy
;	COMDAT _removeTextDataPtr
_TEXT	SEGMENT
_data$ = 8						; size = 4
_removeTextDataPtr PROC					; COMDAT
; File C:\Program Files (x86)\Steam\steamapps\common\Bully Scholarship Edition\_derpy_script_loader\src\client\library\lib_locale.c
; Line 90
	mov	ecx, DWORD PTR _data$[esp-4]
	xor	eax, eax
$LL4@removeText:
; Line 91
	cmp	DWORD PTR [eax*4+34353060], ecx
	je	SHORT $LN8@removeText
; Line 90
	inc	eax
	cmp	eax, 7
	jl	SHORT $LL4@removeText
; Line 91
	jmp	SHORT $LN3@removeText
$LN8@removeText:
; Line 92
	mov	DWORD PTR [eax*4+34353060], 0
$LN3@removeText:
; Line 95
	mov	DWORD PTR _data$[esp-4], ecx
	mov	eax, 6220464				; 005eeab0H
	jmp	eax
_removeTextDataPtr ENDP
_TEXT	ENDS
; Function compile flags: /Ogtpy
;	COMDAT _getTextDataPtr
_TEXT	SEGMENT
_hash$ = 8						; size = 4
_getTextDataPtr PROC					; COMDAT
; File C:\Program Files (x86)\Steam\steamapps\common\Bully Scholarship Edition\_derpy_script_loader\src\client\library\lib_locale.c
; Line 61
	push	ebx
; Line 67
	mov	ebx, DWORD PTR _hash$[esp]
	push	esi
	xor	esi, esi
	npad	8
$LL4@getTextDat:
; Line 68
	mov	eax, DWORD PTR [esi*4+34353060]
	test	eax, eax
	je	SHORT $LN2@getTextDat
	cmp	DWORD PTR [eax+48], ebx
	je	SHORT $LN1@getTextDat
$LN2@getTextDat:
; Line 67
	inc	esi
	cmp	esi, 7
	jl	SHORT $LL4@getTextDat
	push	edi
	npad	9
$LL5@getTextDat:
; Line 71
	dec	esi
	cmp	DWORD PTR [esi*4+34353060], 0
	je	SHORT $LN14@getTextDat
; Line 70
	test	esi, esi
	jne	SHORT $LL5@getTextDat
$LN6@getTextDat:
; Line 83
	xor	eax, eax
	pop	edi
$LN1@getTextDat:
; Line 84
	pop	esi
	pop	ebx
	ret	0
$LN14@getTextDat:
; Line 72
	push	56					; 00000038H
	mov	eax, 6220448				; 005eeaa0H
	call	eax
	mov	edi, eax
	add	esp, 4
; Line 73
	test	edi, edi
	je	SHORT $LN6@getTextDat
; Line 75
	push	ebx
	mov	eax, 6881760				; 006901e0H
	xor	edx, edx
	mov	ecx, edi
	call	eax
; Line 76
	mov	DWORD PTR [edi+44], 0
; Line 81
	mov	eax, edi
	mov	DWORD PTR [edi+40], 0
	mov	DWORD PTR [edi+20], 0
	mov	DWORD PTR [edi+12], 0
	mov	DWORD PTR [edi+16], 0
	mov	DWORD PTR [esi*4+34353060], edi
	pop	edi
	pop	esi
; Line 84
	pop	ebx
	ret	0
_getTextDataPtr ENDP
_TEXT	ENDS
; Function compile flags: /Ogtpy
;	COMDAT _getTextPair
_TEXT	SEGMENT
_data$ = 8						; size = 4
_hash$ = 12						; size = 4
_getTextPair PROC					; COMDAT
; File C:\Program Files (x86)\Steam\steamapps\common\Bully Scholarship Edition\_derpy_script_loader\src\client\library\lib_locale.c
; Line 54
	mov	eax, DWORD PTR _data$[esp-4]
	mov	ecx, DWORD PTR [eax+40]
; Line 55
	mov	eax, DWORD PTR [eax+20]
; Line 56
	test	eax, eax
	je	SHORT $LN3@getTextPai
; Line 54
	mov	edx, DWORD PTR _hash$[esp-4]
	lea	ecx, DWORD PTR [ecx+eax*8]
$LL2@getTextPai:
; Line 57
	sub	ecx, 8
	dec	eax
	cmp	DWORD PTR [ecx], edx
	je	SHORT $LN7@getTextPai
; Line 56
	test	eax, eax
	jne	SHORT $LL2@getTextPai
$LN3@getTextPai:
; Line 59
	xor	eax, eax
; Line 60
	ret	0
$LN7@getTextPai:
; Line 58
	mov	eax, ecx
; Line 60
	ret	0
_getTextPair ENDP
_TEXT	ENDS
; Function compile flags: /Ogtpy
;	COMDAT _getMaxTextLength
_TEXT	SEGMENT
_data$ = 8						; size = 4
_pair$ = 12						; size = 4
_getMaxTextLength PROC					; COMDAT
; File C:\Program Files (x86)\Steam\steamapps\common\Bully Scholarship Edition\_derpy_script_loader\src\client\library\lib_locale.c
; Line 40
	mov	ecx, DWORD PTR _data$[esp-4]
	xor	edx, edx
	mov	eax, DWORD PTR _pair$[esp-4]
	push	esi
	push	edi
	mov	edi, DWORD PTR [ecx+44]
	lea	esi, DWORD PTR [edx+1]
	add	edi, DWORD PTR [ecx+12]
	mov	eax, DWORD PTR [eax+4]
; Line 41
	cmp	eax, edi
	jae	SHORT $LN14@getMaxText
	npad	4
$LL2@getMaxText:
; Line 42
	mov	cl, BYTE PTR [eax]
	test	esi, esi
	je	SHORT $LN4@getMaxText
; Line 43
	movsx	esi, cl
	jmp	SHORT $LN6@getMaxText
$LN4@getMaxText:
; Line 44
	test	cl, cl
	jne	SHORT $LN14@getMaxText
$LN6@getMaxText:
; Line 46
	inc	eax
	inc	edx
	cmp	eax, edi
	jb	SHORT $LL2@getMaxText
$LN14@getMaxText:
	pop	edi
; Line 49
	lea	eax, DWORD PTR [edx-3]
	pop	esi
	ret	0
_getMaxTextLength ENDP
_TEXT	ENDS
END
