; Listing generated by Microsoft (R) Optimizing Compiler Version 19.23.28107.0 

	TITLE	C:\Program Files (x86)\Steam\steamapps\common\Bully Scholarship Edition\_derpy_script_loader\src\client\library\lib_input.c
	.686P
	.XMM
	include listing.inc
	.model	flat

INCLUDELIB LIBCMT
INCLUDELIB OLDNAMES

PUBLIC	??_C@_06CDPDIIDH@ESCAPE@			; `string'
PUBLIC	??_C@_01HIHLOKLC@1@				; `string'
PUBLIC	??_C@_01FDFGLJHB@2@				; `string'
PUBLIC	??_C@_01EKENIIDA@3@				; `string'
PUBLIC	??_C@_01FAMBOPH@4@				; `string'
PUBLIC	??_C@_01BMBHCPLG@5@				; `string'
PUBLIC	??_C@_01DHDKHMHF@6@				; `string'
PUBLIC	??_C@_01COCBENDE@7@				; `string'
PUBLIC	??_C@_01KJLJFBPL@8@				; `string'
PUBLIC	??_C@_01LAKCGALK@9@				; `string'
PUBLIC	??_C@_01GBGANLPD@0@				; `string'
PUBLIC	??_C@_05CIDCLABE@MINUS@				; `string'
PUBLIC	??_C@_06IIDPKENN@EQUALS@			; `string'
PUBLIC	??_C@_04FJBHJJME@BACK@				; `string'
PUBLIC	??_C@_03CJMDHCGG@TAB@				; `string'
PUBLIC	??_C@_01BNIGIBBF@Q@				; `string'
PUBLIC	??_C@_01ELNMCGJD@W@				; `string'
PUBLIC	??_C@_01DDCIFGEA@E@				; `string'
PUBLIC	??_C@_01DGKLNCNG@R@				; `string'
PUBLIC	??_C@_01GAPBHFFA@T@				; `string'
PUBLIC	??_C@_01NFFPALBN@Y@				; `string'
PUBLIC	??_C@_01HJOKEEBB@U@				; `string'
PUBLIC	??_C@_01JPJNBJEM@I@				; `string'
PUBLIC	??_C@_01MJMHLOMK@O@				; `string'
PUBLIC	??_C@_01EJNLAFE@P@				; `string'
PUBLIC	??_C@_08MBGGNFFL@LBRACKET@			; `string'
PUBLIC	??_C@_08KFGEEMLI@RBRACKET@			; `string'
PUBLIC	??_C@_06LJMOENAO@RETURN@			; `string'
PUBLIC	??_C@_08IKMONEBG@LCONTROL@			; `string'
PUBLIC	??_C@_01FHEEJDEE@A@				; `string'
PUBLIC	??_C@_01CPLAODJH@S@				; `string'
PUBLIC	??_C@_01CKDDGHAB@D@				; `string'
PUBLIC	??_C@_01BIAFAFID@F@				; `string'
PUBLIC	??_C@_01BBODEMC@G@				; `string'
PUBLIC	??_C@_01IGIGCIAN@H@				; `string'
PUBLIC	??_C@_01LELAEKIP@J@				; `string'
PUBLIC	??_C@_01KNKLHLMO@K@				; `string'
PUBLIC	??_C@_01OCOKONAJ@L@				; `string'
PUBLIC	??_C@_09COMJPDLF@SEMICOLON@			; `string'
PUBLIC	??_C@_0L@JENNPFNN@APOSTROPHE@			; `string'
PUBLIC	??_C@_05NICECODJ@GRAVE@				; `string'
PUBLIC	??_C@_06EPHNCIMI@LSHIFT@			; `string'
PUBLIC	??_C@_09MMCGBGHA@BACKSLASH@			; `string'
PUBLIC	??_C@_01POHCFINO@Z@				; `string'
PUBLIC	??_C@_01MMEEDKFM@X@				; `string'
PUBLIC	??_C@_01GFHCPBMG@C@				; `string'
PUBLIC	??_C@_01FCMHBHNC@V@				; `string'
PUBLIC	??_C@_01HMGJMAIH@B@				; `string'
PUBLIC	??_C@_01NANMIPIL@N@				; `string'
PUBLIC	??_C@_01PLPBNMEI@M@				; `string'
PUBLIC	??_C@_05OFAMAJDB@COMMA@				; `string'
PUBLIC	??_C@_06FFMPJJAJ@PERIOD@			; `string'
PUBLIC	??_C@_05CMNGPLPB@SLASH@				; `string'
PUBLIC	??_C@_06HIJMMPFL@RSHIFT@			; `string'
PUBLIC	??_C@_08LDEOAAGM@MULTIPLY@			; `string'
PUBLIC	??_C@_05IHMGKJGH@LMENU@				; `string'
PUBLIC	??_C@_05CAEOFMEP@SPACE@				; `string'
PUBLIC	??_C@_07OPCFNGJB@CAPITAL@			; `string'
PUBLIC	??_C@_02LCPENACN@F1@				; `string'
PUBLIC	??_C@_02JJNJIDOO@F2@				; `string'
PUBLIC	??_C@_02IAMCLCKP@F3@				; `string'
PUBLIC	??_C@_02MPIDCEGI@F4@				; `string'
PUBLIC	??_C@_02NGJIBFCJ@F5@				; `string'
PUBLIC	??_C@_02PNLFEGOK@F6@				; `string'
PUBLIC	??_C@_02OEKOHHKL@F7@				; `string'
PUBLIC	??_C@_02GDDGGLGE@F8@				; `string'
PUBLIC	??_C@_02HKCNFKCF@F9@				; `string'
PUBLIC	??_C@_03JKCLJOFG@F10@				; `string'
PUBLIC	??_C@_07FLMEHHJP@NUMLOCK@			; `string'
PUBLIC	??_C@_06FNIKALAE@SCROLL@			; `string'
PUBLIC	??_C@_07JIMOFKFA@NUMPAD7@			; `string'
PUBLIC	??_C@_07BPFGEGJP@NUMPAD8@			; `string'
PUBLIC	??_C@_07GENHHNO@NUMPAD9@			; `string'
PUBLIC	??_C@_08MGBEENML@SUBTRACT@			; `string'
PUBLIC	??_C@_07LDODAJJD@NUMPAD4@			; `string'
PUBLIC	??_C@_07KKPIDINC@NUMPAD5@			; `string'
PUBLIC	??_C@_07IBNFGLBB@NUMPAD6@			; `string'
PUBLIC	??_C@_03BOJFLAKG@ADD@				; `string'
PUBLIC	??_C@_07MOJEPNNG@NUMPAD1@			; `string'
PUBLIC	??_C@_07OFLJKOBF@NUMPAD2@			; `string'
PUBLIC	??_C@_07PMKCJPFE@NUMPAD3@			; `string'
PUBLIC	??_C@_07NHIPMMJH@NUMPAD0@			; `string'
PUBLIC	??_C@_07LJPMJDLL@DECIMAL@			; `string'
PUBLIC	??_C@_07PEFKMFIE@OEM_102@			; `string'
PUBLIC	??_C@_03IDDAKPBH@F11@				; `string'
PUBLIC	??_C@_03KIBNPMNE@F12@				; `string'
PUBLIC	??_C@_03LBAGMNJF@F13@				; `string'
PUBLIC	??_C@_03POEHFLFC@F14@				; `string'
PUBLIC	??_C@_03OHFMGKBD@F15@				; `string'
PUBLIC	??_C@_04KGDAIAGM@KANA@				; `string'
PUBLIC	??_C@_07HDFAKPHN@ABNT_C1@			; `string'
PUBLIC	??_C@_07BAKIHLPO@CONVERT@			; `string'
PUBLIC	??_C@_09BHFIDHCE@NOCONVERT@			; `string'
PUBLIC	??_C@_03HABFENGL@YEN@				; `string'
PUBLIC	??_C@_07FIHNPMLO@ABNT_C2@			; `string'
PUBLIC	??_C@_0N@DJGCIENF@NUMPADEQUALS@			; `string'
PUBLIC	??_C@_09EPIICEHA@PREVTRACK@			; `string'
PUBLIC	??_C@_02KPDBFJEK@AT@				; `string'
PUBLIC	??_C@_05NJKMKGPF@COLON@				; `string'
PUBLIC	??_C@_09CDKPIEFA@UNDERLINE@			; `string'
PUBLIC	??_C@_05GJEMAGFO@KANJI@				; `string'
PUBLIC	??_C@_04MDHMLCKF@STOP@				; `string'
PUBLIC	??_C@_02DIEBGEG@AX@				; `string'
PUBLIC	??_C@_09CIFDPFIO@UNLABELED@			; `string'
PUBLIC	??_C@_09MOGPIPEA@NEXTTRACK@			; `string'
PUBLIC	??_C@_0M@BKBBOHJI@NUMPADENTER@			; `string'
PUBLIC	??_C@_08OOMMENPF@RCONTROL@			; `string'
PUBLIC	??_C@_04IDNGFGKG@MUTE@				; `string'
PUBLIC	??_C@_0L@OONOHIFO@CALCULATOR@			; `string'
PUBLIC	??_C@_09LIIHCCPC@PLAYPAUSE@			; `string'
PUBLIC	??_C@_09KBNFMCOC@MEDIASTOP@			; `string'
PUBLIC	??_C@_0L@FNOGGLNC@VOLUMEDOWN@			; `string'
PUBLIC	??_C@_08OLIOAAFN@VOLUMEUP@			; `string'
PUBLIC	??_C@_07MPCFNFMA@WEBHOME@			; `string'
PUBLIC	??_C@_0M@LDMFCFAK@NUMPADCOMMA@			; `string'
PUBLIC	??_C@_06FBFCJJMP@DIVIDE@			; `string'
PUBLIC	??_C@_05OEAELPDI@SYSRQ@				; `string'
PUBLIC	??_C@_05LOBKMKIM@RMENU@				; `string'
PUBLIC	??_C@_05DIAHPDGL@PAUSE@				; `string'
PUBLIC	??_C@_04GHGFPGNC@HOME@				; `string'
PUBLIC	??_C@_02NAHCJHOC@UP@				; `string'
PUBLIC	??_C@_05BFDHCIJM@PRIOR@				; `string'
PUBLIC	??_C@_04KCNEHMIH@LEFT@				; `string'
PUBLIC	??_C@_05PMAFOJDE@RIGHT@				; `string'
PUBLIC	??_C@_03JMGAKCCH@END@				; `string'
PUBLIC	??_C@_04FANAOELO@DOWN@				; `string'
PUBLIC	??_C@_04MOKMKBJN@NEXT@				; `string'
PUBLIC	??_C@_06OEMEAEKN@INSERT@			; `string'
PUBLIC	??_C@_06FKDAMKFP@DELETE@			; `string'
PUBLIC	??_C@_04ODLFFOHF@LWIN@				; `string'
PUBLIC	??_C@_04DMGFHHJG@RWIN@				; `string'
PUBLIC	??_C@_04GKGJFGJO@APPS@				; `string'
PUBLIC	??_C@_05DABGNONF@POWER@				; `string'
PUBLIC	??_C@_05DJAECLDN@SLEEP@				; `string'
PUBLIC	??_C@_04GBIHPNAA@WAKE@				; `string'
PUBLIC	??_C@_09LLEDKBNB@WEBSEARCH@			; `string'
PUBLIC	??_C@_0N@GONMDNGF@WEBFAVORITES@			; `string'
PUBLIC	??_C@_0L@CNHIEHIF@WEBREFRESH@			; `string'
PUBLIC	??_C@_07GLDMJBLH@WEBSTOP@			; `string'
PUBLIC	??_C@_0L@DELFKIL@WEBFORWARD@			; `string'
PUBLIC	??_C@_07PBFHLKNG@WEBBACK@			; `string'
PUBLIC	??_C@_0L@LIBFOMAH@MYCOMPUTER@			; `string'
PUBLIC	??_C@_04JJJBBNAE@MAIL@				; `string'
PUBLIC	??_C@_0M@FNMEDEKN@MEDIASELECT@			; `string'
PUBLIC	??_C@_09MALOLBMO@BACKSPACE@			; `string'
PUBLIC	??_C@_0L@IBDMOFBI@NUMPADSTAR@			; `string'
PUBLIC	??_C@_04CACBGOAG@LALT@				; `string'
PUBLIC	??_C@_08INDENNHK@CAPSLOCK@			; `string'
PUBLIC	??_C@_0M@HOPLJMCP@NUMPADMINUS@			; `string'
PUBLIC	??_C@_0L@FBAFNKFF@NUMPADPLUS@			; `string'
PUBLIC	??_C@_0N@OEJCLJAB@NUMPADPERIOD@			; `string'
PUBLIC	??_C@_0M@HKBPNHMK@NUMPADSLASH@			; `string'
PUBLIC	??_C@_04PPPBEHOF@RALT@				; `string'
PUBLIC	??_C@_07MNCBLHKG@UPARROW@			; `string'
PUBLIC	??_C@_04NHMBBGKC@PGUP@				; `string'
PUBLIC	??_C@_09FNHBLDAE@LEFTARROW@			; `string'
PUBLIC	??_C@_0L@CIPLPPIL@RIGHTARROW@			; `string'
PUBLIC	??_C@_09KIDHILFL@DOWNARROW@			; `string'
PUBLIC	??_C@_04BOGEOADK@PGDN@				; `string'
PUBLIC	??_C@_0L@ICKCLMNA@CIRCUMFLEX@			; `string'
;	COMDAT ??_C@_0L@ICKCLMNA@CIRCUMFLEX@
CONST	SEGMENT
??_C@_0L@ICKCLMNA@CIRCUMFLEX@ DB 'CIRCUMFLEX', 00H	; `string'
CONST	ENDS
;	COMDAT ??_C@_04BOGEOADK@PGDN@
CONST	SEGMENT
??_C@_04BOGEOADK@PGDN@ DB 'PGDN', 00H			; `string'
CONST	ENDS
;	COMDAT ??_C@_09KIDHILFL@DOWNARROW@
CONST	SEGMENT
??_C@_09KIDHILFL@DOWNARROW@ DB 'DOWNARROW', 00H		; `string'
CONST	ENDS
;	COMDAT ??_C@_0L@CIPLPPIL@RIGHTARROW@
CONST	SEGMENT
??_C@_0L@CIPLPPIL@RIGHTARROW@ DB 'RIGHTARROW', 00H	; `string'
CONST	ENDS
;	COMDAT ??_C@_09FNHBLDAE@LEFTARROW@
CONST	SEGMENT
??_C@_09FNHBLDAE@LEFTARROW@ DB 'LEFTARROW', 00H		; `string'
CONST	ENDS
;	COMDAT ??_C@_04NHMBBGKC@PGUP@
CONST	SEGMENT
??_C@_04NHMBBGKC@PGUP@ DB 'PGUP', 00H			; `string'
CONST	ENDS
;	COMDAT ??_C@_07MNCBLHKG@UPARROW@
CONST	SEGMENT
??_C@_07MNCBLHKG@UPARROW@ DB 'UPARROW', 00H		; `string'
CONST	ENDS
;	COMDAT ??_C@_04PPPBEHOF@RALT@
CONST	SEGMENT
??_C@_04PPPBEHOF@RALT@ DB 'RALT', 00H			; `string'
CONST	ENDS
;	COMDAT ??_C@_0M@HKBPNHMK@NUMPADSLASH@
CONST	SEGMENT
??_C@_0M@HKBPNHMK@NUMPADSLASH@ DB 'NUMPADSLASH', 00H	; `string'
CONST	ENDS
;	COMDAT ??_C@_0N@OEJCLJAB@NUMPADPERIOD@
CONST	SEGMENT
??_C@_0N@OEJCLJAB@NUMPADPERIOD@ DB 'NUMPADPERIOD', 00H	; `string'
CONST	ENDS
;	COMDAT ??_C@_0L@FBAFNKFF@NUMPADPLUS@
CONST	SEGMENT
??_C@_0L@FBAFNKFF@NUMPADPLUS@ DB 'NUMPADPLUS', 00H	; `string'
CONST	ENDS
;	COMDAT ??_C@_0M@HOPLJMCP@NUMPADMINUS@
CONST	SEGMENT
??_C@_0M@HOPLJMCP@NUMPADMINUS@ DB 'NUMPADMINUS', 00H	; `string'
CONST	ENDS
;	COMDAT ??_C@_08INDENNHK@CAPSLOCK@
CONST	SEGMENT
??_C@_08INDENNHK@CAPSLOCK@ DB 'CAPSLOCK', 00H		; `string'
CONST	ENDS
;	COMDAT ??_C@_04CACBGOAG@LALT@
CONST	SEGMENT
??_C@_04CACBGOAG@LALT@ DB 'LALT', 00H			; `string'
CONST	ENDS
;	COMDAT ??_C@_0L@IBDMOFBI@NUMPADSTAR@
CONST	SEGMENT
??_C@_0L@IBDMOFBI@NUMPADSTAR@ DB 'NUMPADSTAR', 00H	; `string'
CONST	ENDS
;	COMDAT ??_C@_09MALOLBMO@BACKSPACE@
CONST	SEGMENT
??_C@_09MALOLBMO@BACKSPACE@ DB 'BACKSPACE', 00H		; `string'
CONST	ENDS
;	COMDAT ??_C@_0M@FNMEDEKN@MEDIASELECT@
CONST	SEGMENT
??_C@_0M@FNMEDEKN@MEDIASELECT@ DB 'MEDIASELECT', 00H	; `string'
CONST	ENDS
;	COMDAT ??_C@_04JJJBBNAE@MAIL@
CONST	SEGMENT
??_C@_04JJJBBNAE@MAIL@ DB 'MAIL', 00H			; `string'
CONST	ENDS
;	COMDAT ??_C@_0L@LIBFOMAH@MYCOMPUTER@
CONST	SEGMENT
??_C@_0L@LIBFOMAH@MYCOMPUTER@ DB 'MYCOMPUTER', 00H	; `string'
CONST	ENDS
;	COMDAT ??_C@_07PBFHLKNG@WEBBACK@
CONST	SEGMENT
??_C@_07PBFHLKNG@WEBBACK@ DB 'WEBBACK', 00H		; `string'
CONST	ENDS
;	COMDAT ??_C@_0L@DELFKIL@WEBFORWARD@
CONST	SEGMENT
??_C@_0L@DELFKIL@WEBFORWARD@ DB 'WEBFORWARD', 00H	; `string'
CONST	ENDS
;	COMDAT ??_C@_07GLDMJBLH@WEBSTOP@
CONST	SEGMENT
??_C@_07GLDMJBLH@WEBSTOP@ DB 'WEBSTOP', 00H		; `string'
CONST	ENDS
;	COMDAT ??_C@_0L@CNHIEHIF@WEBREFRESH@
CONST	SEGMENT
??_C@_0L@CNHIEHIF@WEBREFRESH@ DB 'WEBREFRESH', 00H	; `string'
CONST	ENDS
;	COMDAT ??_C@_0N@GONMDNGF@WEBFAVORITES@
CONST	SEGMENT
??_C@_0N@GONMDNGF@WEBFAVORITES@ DB 'WEBFAVORITES', 00H	; `string'
CONST	ENDS
;	COMDAT ??_C@_09LLEDKBNB@WEBSEARCH@
CONST	SEGMENT
??_C@_09LLEDKBNB@WEBSEARCH@ DB 'WEBSEARCH', 00H		; `string'
CONST	ENDS
;	COMDAT ??_C@_04GBIHPNAA@WAKE@
CONST	SEGMENT
??_C@_04GBIHPNAA@WAKE@ DB 'WAKE', 00H			; `string'
CONST	ENDS
;	COMDAT ??_C@_05DJAECLDN@SLEEP@
CONST	SEGMENT
??_C@_05DJAECLDN@SLEEP@ DB 'SLEEP', 00H			; `string'
CONST	ENDS
;	COMDAT ??_C@_05DABGNONF@POWER@
CONST	SEGMENT
??_C@_05DABGNONF@POWER@ DB 'POWER', 00H			; `string'
CONST	ENDS
;	COMDAT ??_C@_04GKGJFGJO@APPS@
CONST	SEGMENT
??_C@_04GKGJFGJO@APPS@ DB 'APPS', 00H			; `string'
CONST	ENDS
;	COMDAT ??_C@_04DMGFHHJG@RWIN@
CONST	SEGMENT
??_C@_04DMGFHHJG@RWIN@ DB 'RWIN', 00H			; `string'
CONST	ENDS
;	COMDAT ??_C@_04ODLFFOHF@LWIN@
CONST	SEGMENT
??_C@_04ODLFFOHF@LWIN@ DB 'LWIN', 00H			; `string'
CONST	ENDS
;	COMDAT ??_C@_06FKDAMKFP@DELETE@
CONST	SEGMENT
??_C@_06FKDAMKFP@DELETE@ DB 'DELETE', 00H		; `string'
CONST	ENDS
;	COMDAT ??_C@_06OEMEAEKN@INSERT@
CONST	SEGMENT
??_C@_06OEMEAEKN@INSERT@ DB 'INSERT', 00H		; `string'
CONST	ENDS
;	COMDAT ??_C@_04MOKMKBJN@NEXT@
CONST	SEGMENT
??_C@_04MOKMKBJN@NEXT@ DB 'NEXT', 00H			; `string'
CONST	ENDS
;	COMDAT ??_C@_04FANAOELO@DOWN@
CONST	SEGMENT
??_C@_04FANAOELO@DOWN@ DB 'DOWN', 00H			; `string'
CONST	ENDS
;	COMDAT ??_C@_03JMGAKCCH@END@
CONST	SEGMENT
??_C@_03JMGAKCCH@END@ DB 'END', 00H			; `string'
CONST	ENDS
;	COMDAT ??_C@_05PMAFOJDE@RIGHT@
CONST	SEGMENT
??_C@_05PMAFOJDE@RIGHT@ DB 'RIGHT', 00H			; `string'
CONST	ENDS
;	COMDAT ??_C@_04KCNEHMIH@LEFT@
CONST	SEGMENT
??_C@_04KCNEHMIH@LEFT@ DB 'LEFT', 00H			; `string'
CONST	ENDS
;	COMDAT ??_C@_05BFDHCIJM@PRIOR@
CONST	SEGMENT
??_C@_05BFDHCIJM@PRIOR@ DB 'PRIOR', 00H			; `string'
CONST	ENDS
;	COMDAT ??_C@_02NAHCJHOC@UP@
CONST	SEGMENT
??_C@_02NAHCJHOC@UP@ DB 'UP', 00H			; `string'
CONST	ENDS
;	COMDAT ??_C@_04GHGFPGNC@HOME@
CONST	SEGMENT
??_C@_04GHGFPGNC@HOME@ DB 'HOME', 00H			; `string'
CONST	ENDS
;	COMDAT ??_C@_05DIAHPDGL@PAUSE@
CONST	SEGMENT
??_C@_05DIAHPDGL@PAUSE@ DB 'PAUSE', 00H			; `string'
CONST	ENDS
;	COMDAT ??_C@_05LOBKMKIM@RMENU@
CONST	SEGMENT
??_C@_05LOBKMKIM@RMENU@ DB 'RMENU', 00H			; `string'
CONST	ENDS
;	COMDAT ??_C@_05OEAELPDI@SYSRQ@
CONST	SEGMENT
??_C@_05OEAELPDI@SYSRQ@ DB 'SYSRQ', 00H			; `string'
CONST	ENDS
;	COMDAT ??_C@_06FBFCJJMP@DIVIDE@
CONST	SEGMENT
??_C@_06FBFCJJMP@DIVIDE@ DB 'DIVIDE', 00H		; `string'
CONST	ENDS
;	COMDAT ??_C@_0M@LDMFCFAK@NUMPADCOMMA@
CONST	SEGMENT
??_C@_0M@LDMFCFAK@NUMPADCOMMA@ DB 'NUMPADCOMMA', 00H	; `string'
CONST	ENDS
;	COMDAT ??_C@_07MPCFNFMA@WEBHOME@
CONST	SEGMENT
??_C@_07MPCFNFMA@WEBHOME@ DB 'WEBHOME', 00H		; `string'
CONST	ENDS
;	COMDAT ??_C@_08OLIOAAFN@VOLUMEUP@
CONST	SEGMENT
??_C@_08OLIOAAFN@VOLUMEUP@ DB 'VOLUMEUP', 00H		; `string'
CONST	ENDS
;	COMDAT ??_C@_0L@FNOGGLNC@VOLUMEDOWN@
CONST	SEGMENT
??_C@_0L@FNOGGLNC@VOLUMEDOWN@ DB 'VOLUMEDOWN', 00H	; `string'
CONST	ENDS
;	COMDAT ??_C@_09KBNFMCOC@MEDIASTOP@
CONST	SEGMENT
??_C@_09KBNFMCOC@MEDIASTOP@ DB 'MEDIASTOP', 00H		; `string'
CONST	ENDS
;	COMDAT ??_C@_09LIIHCCPC@PLAYPAUSE@
CONST	SEGMENT
??_C@_09LIIHCCPC@PLAYPAUSE@ DB 'PLAYPAUSE', 00H		; `string'
CONST	ENDS
;	COMDAT ??_C@_0L@OONOHIFO@CALCULATOR@
CONST	SEGMENT
??_C@_0L@OONOHIFO@CALCULATOR@ DB 'CALCULATOR', 00H	; `string'
CONST	ENDS
;	COMDAT ??_C@_04IDNGFGKG@MUTE@
CONST	SEGMENT
??_C@_04IDNGFGKG@MUTE@ DB 'MUTE', 00H			; `string'
CONST	ENDS
;	COMDAT ??_C@_08OOMMENPF@RCONTROL@
CONST	SEGMENT
??_C@_08OOMMENPF@RCONTROL@ DB 'RCONTROL', 00H		; `string'
CONST	ENDS
;	COMDAT ??_C@_0M@BKBBOHJI@NUMPADENTER@
CONST	SEGMENT
??_C@_0M@BKBBOHJI@NUMPADENTER@ DB 'NUMPADENTER', 00H	; `string'
CONST	ENDS
;	COMDAT ??_C@_09MOGPIPEA@NEXTTRACK@
CONST	SEGMENT
??_C@_09MOGPIPEA@NEXTTRACK@ DB 'NEXTTRACK', 00H		; `string'
CONST	ENDS
;	COMDAT ??_C@_09CIFDPFIO@UNLABELED@
CONST	SEGMENT
??_C@_09CIFDPFIO@UNLABELED@ DB 'UNLABELED', 00H		; `string'
CONST	ENDS
;	COMDAT ??_C@_02DIEBGEG@AX@
CONST	SEGMENT
??_C@_02DIEBGEG@AX@ DB 'AX', 00H			; `string'
CONST	ENDS
;	COMDAT ??_C@_04MDHMLCKF@STOP@
CONST	SEGMENT
??_C@_04MDHMLCKF@STOP@ DB 'STOP', 00H			; `string'
CONST	ENDS
;	COMDAT ??_C@_05GJEMAGFO@KANJI@
CONST	SEGMENT
??_C@_05GJEMAGFO@KANJI@ DB 'KANJI', 00H			; `string'
CONST	ENDS
;	COMDAT ??_C@_09CDKPIEFA@UNDERLINE@
CONST	SEGMENT
??_C@_09CDKPIEFA@UNDERLINE@ DB 'UNDERLINE', 00H		; `string'
CONST	ENDS
;	COMDAT ??_C@_05NJKMKGPF@COLON@
CONST	SEGMENT
??_C@_05NJKMKGPF@COLON@ DB 'COLON', 00H			; `string'
CONST	ENDS
;	COMDAT ??_C@_02KPDBFJEK@AT@
CONST	SEGMENT
??_C@_02KPDBFJEK@AT@ DB 'AT', 00H			; `string'
CONST	ENDS
;	COMDAT ??_C@_09EPIICEHA@PREVTRACK@
CONST	SEGMENT
??_C@_09EPIICEHA@PREVTRACK@ DB 'PREVTRACK', 00H		; `string'
CONST	ENDS
;	COMDAT ??_C@_0N@DJGCIENF@NUMPADEQUALS@
CONST	SEGMENT
??_C@_0N@DJGCIENF@NUMPADEQUALS@ DB 'NUMPADEQUALS', 00H	; `string'
CONST	ENDS
;	COMDAT ??_C@_07FIHNPMLO@ABNT_C2@
CONST	SEGMENT
??_C@_07FIHNPMLO@ABNT_C2@ DB 'ABNT_C2', 00H		; `string'
CONST	ENDS
;	COMDAT ??_C@_03HABFENGL@YEN@
CONST	SEGMENT
??_C@_03HABFENGL@YEN@ DB 'YEN', 00H			; `string'
CONST	ENDS
;	COMDAT ??_C@_09BHFIDHCE@NOCONVERT@
CONST	SEGMENT
??_C@_09BHFIDHCE@NOCONVERT@ DB 'NOCONVERT', 00H		; `string'
CONST	ENDS
;	COMDAT ??_C@_07BAKIHLPO@CONVERT@
CONST	SEGMENT
??_C@_07BAKIHLPO@CONVERT@ DB 'CONVERT', 00H		; `string'
CONST	ENDS
;	COMDAT ??_C@_07HDFAKPHN@ABNT_C1@
CONST	SEGMENT
??_C@_07HDFAKPHN@ABNT_C1@ DB 'ABNT_C1', 00H		; `string'
CONST	ENDS
;	COMDAT ??_C@_04KGDAIAGM@KANA@
CONST	SEGMENT
??_C@_04KGDAIAGM@KANA@ DB 'KANA', 00H			; `string'
CONST	ENDS
;	COMDAT ??_C@_03OHFMGKBD@F15@
CONST	SEGMENT
??_C@_03OHFMGKBD@F15@ DB 'F15', 00H			; `string'
CONST	ENDS
;	COMDAT ??_C@_03POEHFLFC@F14@
CONST	SEGMENT
??_C@_03POEHFLFC@F14@ DB 'F14', 00H			; `string'
CONST	ENDS
;	COMDAT ??_C@_03LBAGMNJF@F13@
CONST	SEGMENT
??_C@_03LBAGMNJF@F13@ DB 'F13', 00H			; `string'
CONST	ENDS
;	COMDAT ??_C@_03KIBNPMNE@F12@
CONST	SEGMENT
??_C@_03KIBNPMNE@F12@ DB 'F12', 00H			; `string'
CONST	ENDS
;	COMDAT ??_C@_03IDDAKPBH@F11@
CONST	SEGMENT
??_C@_03IDDAKPBH@F11@ DB 'F11', 00H			; `string'
CONST	ENDS
;	COMDAT ??_C@_07PEFKMFIE@OEM_102@
CONST	SEGMENT
??_C@_07PEFKMFIE@OEM_102@ DB 'OEM_102', 00H		; `string'
CONST	ENDS
;	COMDAT ??_C@_07LJPMJDLL@DECIMAL@
CONST	SEGMENT
??_C@_07LJPMJDLL@DECIMAL@ DB 'DECIMAL', 00H		; `string'
CONST	ENDS
;	COMDAT ??_C@_07NHIPMMJH@NUMPAD0@
CONST	SEGMENT
??_C@_07NHIPMMJH@NUMPAD0@ DB 'NUMPAD0', 00H		; `string'
CONST	ENDS
;	COMDAT ??_C@_07PMKCJPFE@NUMPAD3@
CONST	SEGMENT
??_C@_07PMKCJPFE@NUMPAD3@ DB 'NUMPAD3', 00H		; `string'
CONST	ENDS
;	COMDAT ??_C@_07OFLJKOBF@NUMPAD2@
CONST	SEGMENT
??_C@_07OFLJKOBF@NUMPAD2@ DB 'NUMPAD2', 00H		; `string'
CONST	ENDS
;	COMDAT ??_C@_07MOJEPNNG@NUMPAD1@
CONST	SEGMENT
??_C@_07MOJEPNNG@NUMPAD1@ DB 'NUMPAD1', 00H		; `string'
CONST	ENDS
;	COMDAT ??_C@_03BOJFLAKG@ADD@
CONST	SEGMENT
??_C@_03BOJFLAKG@ADD@ DB 'ADD', 00H			; `string'
CONST	ENDS
;	COMDAT ??_C@_07IBNFGLBB@NUMPAD6@
CONST	SEGMENT
??_C@_07IBNFGLBB@NUMPAD6@ DB 'NUMPAD6', 00H		; `string'
CONST	ENDS
;	COMDAT ??_C@_07KKPIDINC@NUMPAD5@
CONST	SEGMENT
??_C@_07KKPIDINC@NUMPAD5@ DB 'NUMPAD5', 00H		; `string'
CONST	ENDS
;	COMDAT ??_C@_07LDODAJJD@NUMPAD4@
CONST	SEGMENT
??_C@_07LDODAJJD@NUMPAD4@ DB 'NUMPAD4', 00H		; `string'
CONST	ENDS
;	COMDAT ??_C@_08MGBEENML@SUBTRACT@
CONST	SEGMENT
??_C@_08MGBEENML@SUBTRACT@ DB 'SUBTRACT', 00H		; `string'
CONST	ENDS
;	COMDAT ??_C@_07GENHHNO@NUMPAD9@
CONST	SEGMENT
??_C@_07GENHHNO@NUMPAD9@ DB 'NUMPAD9', 00H		; `string'
CONST	ENDS
;	COMDAT ??_C@_07BPFGEGJP@NUMPAD8@
CONST	SEGMENT
??_C@_07BPFGEGJP@NUMPAD8@ DB 'NUMPAD8', 00H		; `string'
CONST	ENDS
;	COMDAT ??_C@_07JIMOFKFA@NUMPAD7@
CONST	SEGMENT
??_C@_07JIMOFKFA@NUMPAD7@ DB 'NUMPAD7', 00H		; `string'
CONST	ENDS
;	COMDAT ??_C@_06FNIKALAE@SCROLL@
CONST	SEGMENT
??_C@_06FNIKALAE@SCROLL@ DB 'SCROLL', 00H		; `string'
CONST	ENDS
;	COMDAT ??_C@_07FLMEHHJP@NUMLOCK@
CONST	SEGMENT
??_C@_07FLMEHHJP@NUMLOCK@ DB 'NUMLOCK', 00H		; `string'
CONST	ENDS
;	COMDAT ??_C@_03JKCLJOFG@F10@
CONST	SEGMENT
??_C@_03JKCLJOFG@F10@ DB 'F10', 00H			; `string'
CONST	ENDS
;	COMDAT ??_C@_02HKCNFKCF@F9@
CONST	SEGMENT
??_C@_02HKCNFKCF@F9@ DB 'F9', 00H			; `string'
CONST	ENDS
;	COMDAT ??_C@_02GDDGGLGE@F8@
CONST	SEGMENT
??_C@_02GDDGGLGE@F8@ DB 'F8', 00H			; `string'
CONST	ENDS
;	COMDAT ??_C@_02OEKOHHKL@F7@
CONST	SEGMENT
??_C@_02OEKOHHKL@F7@ DB 'F7', 00H			; `string'
CONST	ENDS
;	COMDAT ??_C@_02PNLFEGOK@F6@
CONST	SEGMENT
??_C@_02PNLFEGOK@F6@ DB 'F6', 00H			; `string'
CONST	ENDS
;	COMDAT ??_C@_02NGJIBFCJ@F5@
CONST	SEGMENT
??_C@_02NGJIBFCJ@F5@ DB 'F5', 00H			; `string'
CONST	ENDS
;	COMDAT ??_C@_02MPIDCEGI@F4@
CONST	SEGMENT
??_C@_02MPIDCEGI@F4@ DB 'F4', 00H			; `string'
CONST	ENDS
;	COMDAT ??_C@_02IAMCLCKP@F3@
CONST	SEGMENT
??_C@_02IAMCLCKP@F3@ DB 'F3', 00H			; `string'
CONST	ENDS
;	COMDAT ??_C@_02JJNJIDOO@F2@
CONST	SEGMENT
??_C@_02JJNJIDOO@F2@ DB 'F2', 00H			; `string'
CONST	ENDS
;	COMDAT ??_C@_02LCPENACN@F1@
CONST	SEGMENT
??_C@_02LCPENACN@F1@ DB 'F1', 00H			; `string'
CONST	ENDS
;	COMDAT ??_C@_07OPCFNGJB@CAPITAL@
CONST	SEGMENT
??_C@_07OPCFNGJB@CAPITAL@ DB 'CAPITAL', 00H		; `string'
CONST	ENDS
;	COMDAT ??_C@_05CAEOFMEP@SPACE@
CONST	SEGMENT
??_C@_05CAEOFMEP@SPACE@ DB 'SPACE', 00H			; `string'
CONST	ENDS
;	COMDAT ??_C@_05IHMGKJGH@LMENU@
CONST	SEGMENT
??_C@_05IHMGKJGH@LMENU@ DB 'LMENU', 00H			; `string'
CONST	ENDS
;	COMDAT ??_C@_08LDEOAAGM@MULTIPLY@
CONST	SEGMENT
??_C@_08LDEOAAGM@MULTIPLY@ DB 'MULTIPLY', 00H		; `string'
CONST	ENDS
;	COMDAT ??_C@_06HIJMMPFL@RSHIFT@
CONST	SEGMENT
??_C@_06HIJMMPFL@RSHIFT@ DB 'RSHIFT', 00H		; `string'
CONST	ENDS
;	COMDAT ??_C@_05CMNGPLPB@SLASH@
CONST	SEGMENT
??_C@_05CMNGPLPB@SLASH@ DB 'SLASH', 00H			; `string'
CONST	ENDS
;	COMDAT ??_C@_06FFMPJJAJ@PERIOD@
CONST	SEGMENT
??_C@_06FFMPJJAJ@PERIOD@ DB 'PERIOD', 00H		; `string'
CONST	ENDS
;	COMDAT ??_C@_05OFAMAJDB@COMMA@
CONST	SEGMENT
??_C@_05OFAMAJDB@COMMA@ DB 'COMMA', 00H			; `string'
CONST	ENDS
;	COMDAT ??_C@_01PLPBNMEI@M@
CONST	SEGMENT
??_C@_01PLPBNMEI@M@ DB 'M', 00H				; `string'
CONST	ENDS
;	COMDAT ??_C@_01NANMIPIL@N@
CONST	SEGMENT
??_C@_01NANMIPIL@N@ DB 'N', 00H				; `string'
CONST	ENDS
;	COMDAT ??_C@_01HMGJMAIH@B@
CONST	SEGMENT
??_C@_01HMGJMAIH@B@ DB 'B', 00H				; `string'
CONST	ENDS
;	COMDAT ??_C@_01FCMHBHNC@V@
CONST	SEGMENT
??_C@_01FCMHBHNC@V@ DB 'V', 00H				; `string'
CONST	ENDS
;	COMDAT ??_C@_01GFHCPBMG@C@
CONST	SEGMENT
??_C@_01GFHCPBMG@C@ DB 'C', 00H				; `string'
CONST	ENDS
;	COMDAT ??_C@_01MMEEDKFM@X@
CONST	SEGMENT
??_C@_01MMEEDKFM@X@ DB 'X', 00H				; `string'
CONST	ENDS
;	COMDAT ??_C@_01POHCFINO@Z@
CONST	SEGMENT
??_C@_01POHCFINO@Z@ DB 'Z', 00H				; `string'
CONST	ENDS
;	COMDAT ??_C@_09MMCGBGHA@BACKSLASH@
CONST	SEGMENT
??_C@_09MMCGBGHA@BACKSLASH@ DB 'BACKSLASH', 00H		; `string'
CONST	ENDS
;	COMDAT ??_C@_06EPHNCIMI@LSHIFT@
CONST	SEGMENT
??_C@_06EPHNCIMI@LSHIFT@ DB 'LSHIFT', 00H		; `string'
CONST	ENDS
;	COMDAT ??_C@_05NICECODJ@GRAVE@
CONST	SEGMENT
??_C@_05NICECODJ@GRAVE@ DB 'GRAVE', 00H			; `string'
CONST	ENDS
;	COMDAT ??_C@_0L@JENNPFNN@APOSTROPHE@
CONST	SEGMENT
??_C@_0L@JENNPFNN@APOSTROPHE@ DB 'APOSTROPHE', 00H	; `string'
CONST	ENDS
;	COMDAT ??_C@_09COMJPDLF@SEMICOLON@
CONST	SEGMENT
??_C@_09COMJPDLF@SEMICOLON@ DB 'SEMICOLON', 00H		; `string'
CONST	ENDS
;	COMDAT ??_C@_01OCOKONAJ@L@
CONST	SEGMENT
??_C@_01OCOKONAJ@L@ DB 'L', 00H				; `string'
CONST	ENDS
;	COMDAT ??_C@_01KNKLHLMO@K@
CONST	SEGMENT
??_C@_01KNKLHLMO@K@ DB 'K', 00H				; `string'
CONST	ENDS
;	COMDAT ??_C@_01LELAEKIP@J@
CONST	SEGMENT
??_C@_01LELAEKIP@J@ DB 'J', 00H				; `string'
CONST	ENDS
;	COMDAT ??_C@_01IGIGCIAN@H@
CONST	SEGMENT
??_C@_01IGIGCIAN@H@ DB 'H', 00H				; `string'
CONST	ENDS
;	COMDAT ??_C@_01BBODEMC@G@
CONST	SEGMENT
??_C@_01BBODEMC@G@ DB 'G', 00H				; `string'
CONST	ENDS
;	COMDAT ??_C@_01BIAFAFID@F@
CONST	SEGMENT
??_C@_01BIAFAFID@F@ DB 'F', 00H				; `string'
CONST	ENDS
;	COMDAT ??_C@_01CKDDGHAB@D@
CONST	SEGMENT
??_C@_01CKDDGHAB@D@ DB 'D', 00H				; `string'
CONST	ENDS
;	COMDAT ??_C@_01CPLAODJH@S@
CONST	SEGMENT
??_C@_01CPLAODJH@S@ DB 'S', 00H				; `string'
CONST	ENDS
;	COMDAT ??_C@_01FHEEJDEE@A@
CONST	SEGMENT
??_C@_01FHEEJDEE@A@ DB 'A', 00H				; `string'
CONST	ENDS
;	COMDAT ??_C@_08IKMONEBG@LCONTROL@
CONST	SEGMENT
??_C@_08IKMONEBG@LCONTROL@ DB 'LCONTROL', 00H		; `string'
CONST	ENDS
;	COMDAT ??_C@_06LJMOENAO@RETURN@
CONST	SEGMENT
??_C@_06LJMOENAO@RETURN@ DB 'RETURN', 00H		; `string'
CONST	ENDS
;	COMDAT ??_C@_08KFGEEMLI@RBRACKET@
CONST	SEGMENT
??_C@_08KFGEEMLI@RBRACKET@ DB 'RBRACKET', 00H		; `string'
CONST	ENDS
;	COMDAT ??_C@_08MBGGNFFL@LBRACKET@
CONST	SEGMENT
??_C@_08MBGGNFFL@LBRACKET@ DB 'LBRACKET', 00H		; `string'
CONST	ENDS
;	COMDAT ??_C@_01EJNLAFE@P@
CONST	SEGMENT
??_C@_01EJNLAFE@P@ DB 'P', 00H				; `string'
CONST	ENDS
;	COMDAT ??_C@_01MJMHLOMK@O@
CONST	SEGMENT
??_C@_01MJMHLOMK@O@ DB 'O', 00H				; `string'
CONST	ENDS
;	COMDAT ??_C@_01JPJNBJEM@I@
CONST	SEGMENT
??_C@_01JPJNBJEM@I@ DB 'I', 00H				; `string'
CONST	ENDS
;	COMDAT ??_C@_01HJOKEEBB@U@
CONST	SEGMENT
??_C@_01HJOKEEBB@U@ DB 'U', 00H				; `string'
CONST	ENDS
;	COMDAT ??_C@_01NFFPALBN@Y@
CONST	SEGMENT
??_C@_01NFFPALBN@Y@ DB 'Y', 00H				; `string'
CONST	ENDS
;	COMDAT ??_C@_01GAPBHFFA@T@
CONST	SEGMENT
??_C@_01GAPBHFFA@T@ DB 'T', 00H				; `string'
CONST	ENDS
;	COMDAT ??_C@_01DGKLNCNG@R@
CONST	SEGMENT
??_C@_01DGKLNCNG@R@ DB 'R', 00H				; `string'
CONST	ENDS
;	COMDAT ??_C@_01DDCIFGEA@E@
CONST	SEGMENT
??_C@_01DDCIFGEA@E@ DB 'E', 00H				; `string'
CONST	ENDS
;	COMDAT ??_C@_01ELNMCGJD@W@
CONST	SEGMENT
??_C@_01ELNMCGJD@W@ DB 'W', 00H				; `string'
CONST	ENDS
;	COMDAT ??_C@_01BNIGIBBF@Q@
CONST	SEGMENT
??_C@_01BNIGIBBF@Q@ DB 'Q', 00H				; `string'
CONST	ENDS
;	COMDAT ??_C@_03CJMDHCGG@TAB@
CONST	SEGMENT
??_C@_03CJMDHCGG@TAB@ DB 'TAB', 00H			; `string'
CONST	ENDS
;	COMDAT ??_C@_04FJBHJJME@BACK@
CONST	SEGMENT
??_C@_04FJBHJJME@BACK@ DB 'BACK', 00H			; `string'
CONST	ENDS
;	COMDAT ??_C@_06IIDPKENN@EQUALS@
CONST	SEGMENT
??_C@_06IIDPKENN@EQUALS@ DB 'EQUALS', 00H		; `string'
CONST	ENDS
;	COMDAT ??_C@_05CIDCLABE@MINUS@
CONST	SEGMENT
??_C@_05CIDCLABE@MINUS@ DB 'MINUS', 00H			; `string'
CONST	ENDS
;	COMDAT ??_C@_01GBGANLPD@0@
CONST	SEGMENT
??_C@_01GBGANLPD@0@ DB '0', 00H				; `string'
CONST	ENDS
;	COMDAT ??_C@_01LAKCGALK@9@
CONST	SEGMENT
??_C@_01LAKCGALK@9@ DB '9', 00H				; `string'
CONST	ENDS
;	COMDAT ??_C@_01KJLJFBPL@8@
CONST	SEGMENT
??_C@_01KJLJFBPL@8@ DB '8', 00H				; `string'
CONST	ENDS
;	COMDAT ??_C@_01COCBENDE@7@
CONST	SEGMENT
??_C@_01COCBENDE@7@ DB '7', 00H				; `string'
CONST	ENDS
;	COMDAT ??_C@_01DHDKHMHF@6@
CONST	SEGMENT
??_C@_01DHDKHMHF@6@ DB '6', 00H				; `string'
CONST	ENDS
;	COMDAT ??_C@_01BMBHCPLG@5@
CONST	SEGMENT
??_C@_01BMBHCPLG@5@ DB '5', 00H				; `string'
CONST	ENDS
;	COMDAT ??_C@_01FAMBOPH@4@
CONST	SEGMENT
??_C@_01FAMBOPH@4@ DB '4', 00H				; `string'
CONST	ENDS
;	COMDAT ??_C@_01EKENIIDA@3@
CONST	SEGMENT
??_C@_01EKENIIDA@3@ DB '3', 00H				; `string'
CONST	ENDS
;	COMDAT ??_C@_01FDFGLJHB@2@
CONST	SEGMENT
??_C@_01FDFGLJHB@2@ DB '2', 00H				; `string'
CONST	ENDS
;	COMDAT ??_C@_01HIHLOKLC@1@
CONST	SEGMENT
??_C@_01HIHLOKLC@1@ DB '1', 00H				; `string'
CONST	ENDS
;	COMDAT ??_C@_06CDPDIIDH@ESCAPE@
CONST	SEGMENT
??_C@_06CDPDIIDH@ESCAPE@ DB 'ESCAPE', 00H		; `string'
CONST	ENDS
CONST	SEGMENT
_dik_keys DD	FLAT:??_C@_06CDPDIIDH@ESCAPE@
	DD	01H
	DD	FLAT:??_C@_01HIHLOKLC@1@
	DD	02H
	DD	FLAT:??_C@_01FDFGLJHB@2@
	DD	03H
	DD	FLAT:??_C@_01EKENIIDA@3@
	DD	04H
	DD	FLAT:??_C@_01FAMBOPH@4@
	DD	05H
	DD	FLAT:??_C@_01BMBHCPLG@5@
	DD	06H
	DD	FLAT:??_C@_01DHDKHMHF@6@
	DD	07H
	DD	FLAT:??_C@_01COCBENDE@7@
	DD	08H
	DD	FLAT:??_C@_01KJLJFBPL@8@
	DD	09H
	DD	FLAT:??_C@_01LAKCGALK@9@
	DD	0aH
	DD	FLAT:??_C@_01GBGANLPD@0@
	DD	0bH
	DD	FLAT:??_C@_05CIDCLABE@MINUS@
	DD	0cH
	DD	FLAT:??_C@_06IIDPKENN@EQUALS@
	DD	0dH
	DD	FLAT:??_C@_04FJBHJJME@BACK@
	DD	0eH
	DD	FLAT:??_C@_03CJMDHCGG@TAB@
	DD	0fH
	DD	FLAT:??_C@_01BNIGIBBF@Q@
	DD	010H
	DD	FLAT:??_C@_01ELNMCGJD@W@
	DD	011H
	DD	FLAT:??_C@_01DDCIFGEA@E@
	DD	012H
	DD	FLAT:??_C@_01DGKLNCNG@R@
	DD	013H
	DD	FLAT:??_C@_01GAPBHFFA@T@
	DD	014H
	DD	FLAT:??_C@_01NFFPALBN@Y@
	DD	015H
	DD	FLAT:??_C@_01HJOKEEBB@U@
	DD	016H
	DD	FLAT:??_C@_01JPJNBJEM@I@
	DD	017H
	DD	FLAT:??_C@_01MJMHLOMK@O@
	DD	018H
	DD	FLAT:??_C@_01EJNLAFE@P@
	DD	019H
	DD	FLAT:??_C@_08MBGGNFFL@LBRACKET@
	DD	01aH
	DD	FLAT:??_C@_08KFGEEMLI@RBRACKET@
	DD	01bH
	DD	FLAT:??_C@_06LJMOENAO@RETURN@
	DD	01cH
	DD	FLAT:??_C@_08IKMONEBG@LCONTROL@
	DD	01dH
	DD	FLAT:??_C@_01FHEEJDEE@A@
	DD	01eH
	DD	FLAT:??_C@_01CPLAODJH@S@
	DD	01fH
	DD	FLAT:??_C@_01CKDDGHAB@D@
	DD	020H
	DD	FLAT:??_C@_01BIAFAFID@F@
	DD	021H
	DD	FLAT:??_C@_01BBODEMC@G@
	DD	022H
	DD	FLAT:??_C@_01IGIGCIAN@H@
	DD	023H
	DD	FLAT:??_C@_01LELAEKIP@J@
	DD	024H
	DD	FLAT:??_C@_01KNKLHLMO@K@
	DD	025H
	DD	FLAT:??_C@_01OCOKONAJ@L@
	DD	026H
	DD	FLAT:??_C@_09COMJPDLF@SEMICOLON@
	DD	027H
	DD	FLAT:??_C@_0L@JENNPFNN@APOSTROPHE@
	DD	028H
	DD	FLAT:??_C@_05NICECODJ@GRAVE@
	DD	029H
	DD	FLAT:??_C@_06EPHNCIMI@LSHIFT@
	DD	02aH
	DD	FLAT:??_C@_09MMCGBGHA@BACKSLASH@
	DD	02bH
	DD	FLAT:??_C@_01POHCFINO@Z@
	DD	02cH
	DD	FLAT:??_C@_01MMEEDKFM@X@
	DD	02dH
	DD	FLAT:??_C@_01GFHCPBMG@C@
	DD	02eH
	DD	FLAT:??_C@_01FCMHBHNC@V@
	DD	02fH
	DD	FLAT:??_C@_01HMGJMAIH@B@
	DD	030H
	DD	FLAT:??_C@_01NANMIPIL@N@
	DD	031H
	DD	FLAT:??_C@_01PLPBNMEI@M@
	DD	032H
	DD	FLAT:??_C@_05OFAMAJDB@COMMA@
	DD	033H
	DD	FLAT:??_C@_06FFMPJJAJ@PERIOD@
	DD	034H
	DD	FLAT:??_C@_05CMNGPLPB@SLASH@
	DD	035H
	DD	FLAT:??_C@_06HIJMMPFL@RSHIFT@
	DD	036H
	DD	FLAT:??_C@_08LDEOAAGM@MULTIPLY@
	DD	037H
	DD	FLAT:??_C@_05IHMGKJGH@LMENU@
	DD	038H
	DD	FLAT:??_C@_05CAEOFMEP@SPACE@
	DD	039H
	DD	FLAT:??_C@_07OPCFNGJB@CAPITAL@
	DD	03aH
	DD	FLAT:??_C@_02LCPENACN@F1@
	DD	03bH
	DD	FLAT:??_C@_02JJNJIDOO@F2@
	DD	03cH
	DD	FLAT:??_C@_02IAMCLCKP@F3@
	DD	03dH
	DD	FLAT:??_C@_02MPIDCEGI@F4@
	DD	03eH
	DD	FLAT:??_C@_02NGJIBFCJ@F5@
	DD	03fH
	DD	FLAT:??_C@_02PNLFEGOK@F6@
	DD	040H
	DD	FLAT:??_C@_02OEKOHHKL@F7@
	DD	041H
	DD	FLAT:??_C@_02GDDGGLGE@F8@
	DD	042H
	DD	FLAT:??_C@_02HKCNFKCF@F9@
	DD	043H
	DD	FLAT:??_C@_03JKCLJOFG@F10@
	DD	044H
	DD	FLAT:??_C@_07FLMEHHJP@NUMLOCK@
	DD	045H
	DD	FLAT:??_C@_06FNIKALAE@SCROLL@
	DD	046H
	DD	FLAT:??_C@_07JIMOFKFA@NUMPAD7@
	DD	047H
	DD	FLAT:??_C@_07BPFGEGJP@NUMPAD8@
	DD	048H
	DD	FLAT:??_C@_07GENHHNO@NUMPAD9@
	DD	049H
	DD	FLAT:??_C@_08MGBEENML@SUBTRACT@
	DD	04aH
	DD	FLAT:??_C@_07LDODAJJD@NUMPAD4@
	DD	04bH
	DD	FLAT:??_C@_07KKPIDINC@NUMPAD5@
	DD	04cH
	DD	FLAT:??_C@_07IBNFGLBB@NUMPAD6@
	DD	04dH
	DD	FLAT:??_C@_03BOJFLAKG@ADD@
	DD	04eH
	DD	FLAT:??_C@_07MOJEPNNG@NUMPAD1@
	DD	04fH
	DD	FLAT:??_C@_07OFLJKOBF@NUMPAD2@
	DD	050H
	DD	FLAT:??_C@_07PMKCJPFE@NUMPAD3@
	DD	051H
	DD	FLAT:??_C@_07NHIPMMJH@NUMPAD0@
	DD	052H
	DD	FLAT:??_C@_07LJPMJDLL@DECIMAL@
	DD	053H
	DD	FLAT:??_C@_07PEFKMFIE@OEM_102@
	DD	056H
	DD	FLAT:??_C@_03IDDAKPBH@F11@
	DD	057H
	DD	FLAT:??_C@_03KIBNPMNE@F12@
	DD	058H
	DD	FLAT:??_C@_03LBAGMNJF@F13@
	DD	064H
	DD	FLAT:??_C@_03POEHFLFC@F14@
	DD	065H
	DD	FLAT:??_C@_03OHFMGKBD@F15@
	DD	066H
	DD	FLAT:??_C@_04KGDAIAGM@KANA@
	DD	070H
	DD	FLAT:??_C@_07HDFAKPHN@ABNT_C1@
	DD	073H
	DD	FLAT:??_C@_07BAKIHLPO@CONVERT@
	DD	079H
	DD	FLAT:??_C@_09BHFIDHCE@NOCONVERT@
	DD	07bH
	DD	FLAT:??_C@_03HABFENGL@YEN@
	DD	07dH
	DD	FLAT:??_C@_07FIHNPMLO@ABNT_C2@
	DD	07eH
	DD	FLAT:??_C@_0N@DJGCIENF@NUMPADEQUALS@
	DD	08dH
	DD	FLAT:??_C@_09EPIICEHA@PREVTRACK@
	DD	090H
	DD	FLAT:??_C@_02KPDBFJEK@AT@
	DD	091H
	DD	FLAT:??_C@_05NJKMKGPF@COLON@
	DD	092H
	DD	FLAT:??_C@_09CDKPIEFA@UNDERLINE@
	DD	093H
	DD	FLAT:??_C@_05GJEMAGFO@KANJI@
	DD	094H
	DD	FLAT:??_C@_04MDHMLCKF@STOP@
	DD	095H
	DD	FLAT:??_C@_02DIEBGEG@AX@
	DD	096H
	DD	FLAT:??_C@_09CIFDPFIO@UNLABELED@
	DD	097H
	DD	FLAT:??_C@_09MOGPIPEA@NEXTTRACK@
	DD	099H
	DD	FLAT:??_C@_0M@BKBBOHJI@NUMPADENTER@
	DD	09cH
	DD	FLAT:??_C@_08OOMMENPF@RCONTROL@
	DD	09dH
	DD	FLAT:??_C@_04IDNGFGKG@MUTE@
	DD	0a0H
	DD	FLAT:??_C@_0L@OONOHIFO@CALCULATOR@
	DD	0a1H
	DD	FLAT:??_C@_09LIIHCCPC@PLAYPAUSE@
	DD	0a2H
	DD	FLAT:??_C@_09KBNFMCOC@MEDIASTOP@
	DD	0a4H
	DD	FLAT:??_C@_0L@FNOGGLNC@VOLUMEDOWN@
	DD	0aeH
	DD	FLAT:??_C@_08OLIOAAFN@VOLUMEUP@
	DD	0b0H
	DD	FLAT:??_C@_07MPCFNFMA@WEBHOME@
	DD	0b2H
	DD	FLAT:??_C@_0M@LDMFCFAK@NUMPADCOMMA@
	DD	0b3H
	DD	FLAT:??_C@_06FBFCJJMP@DIVIDE@
	DD	0b5H
	DD	FLAT:??_C@_05OEAELPDI@SYSRQ@
	DD	0b7H
	DD	FLAT:??_C@_05LOBKMKIM@RMENU@
	DD	0b8H
	DD	FLAT:??_C@_05DIAHPDGL@PAUSE@
	DD	0c5H
	DD	FLAT:??_C@_04GHGFPGNC@HOME@
	DD	0c7H
	DD	FLAT:??_C@_02NAHCJHOC@UP@
	DD	0c8H
	DD	FLAT:??_C@_05BFDHCIJM@PRIOR@
	DD	0c9H
	DD	FLAT:??_C@_04KCNEHMIH@LEFT@
	DD	0cbH
	DD	FLAT:??_C@_05PMAFOJDE@RIGHT@
	DD	0cdH
	DD	FLAT:??_C@_03JMGAKCCH@END@
	DD	0cfH
	DD	FLAT:??_C@_04FANAOELO@DOWN@
	DD	0d0H
	DD	FLAT:??_C@_04MOKMKBJN@NEXT@
	DD	0d1H
	DD	FLAT:??_C@_06OEMEAEKN@INSERT@
	DD	0d2H
	DD	FLAT:??_C@_06FKDAMKFP@DELETE@
	DD	0d3H
	DD	FLAT:??_C@_04ODLFFOHF@LWIN@
	DD	0dbH
	DD	FLAT:??_C@_04DMGFHHJG@RWIN@
	DD	0dcH
	DD	FLAT:??_C@_04GKGJFGJO@APPS@
	DD	0ddH
	DD	FLAT:??_C@_05DABGNONF@POWER@
	DD	0deH
	DD	FLAT:??_C@_05DJAECLDN@SLEEP@
	DD	0dfH
	DD	FLAT:??_C@_04GBIHPNAA@WAKE@
	DD	0e3H
	DD	FLAT:??_C@_09LLEDKBNB@WEBSEARCH@
	DD	0e5H
	DD	FLAT:??_C@_0N@GONMDNGF@WEBFAVORITES@
	DD	0e6H
	DD	FLAT:??_C@_0L@CNHIEHIF@WEBREFRESH@
	DD	0e7H
	DD	FLAT:??_C@_07GLDMJBLH@WEBSTOP@
	DD	0e8H
	DD	FLAT:??_C@_0L@DELFKIL@WEBFORWARD@
	DD	0e9H
	DD	FLAT:??_C@_07PBFHLKNG@WEBBACK@
	DD	0eaH
	DD	FLAT:??_C@_0L@LIBFOMAH@MYCOMPUTER@
	DD	0ebH
	DD	FLAT:??_C@_04JJJBBNAE@MAIL@
	DD	0ecH
	DD	FLAT:??_C@_0M@FNMEDEKN@MEDIASELECT@
	DD	0edH
	DD	FLAT:??_C@_09MALOLBMO@BACKSPACE@
	DD	0eH
	DD	FLAT:??_C@_0L@IBDMOFBI@NUMPADSTAR@
	DD	037H
	DD	FLAT:??_C@_04CACBGOAG@LALT@
	DD	038H
	DD	FLAT:??_C@_08INDENNHK@CAPSLOCK@
	DD	03aH
	DD	FLAT:??_C@_0M@HOPLJMCP@NUMPADMINUS@
	DD	04aH
	DD	FLAT:??_C@_0L@FBAFNKFF@NUMPADPLUS@
	DD	04eH
	DD	FLAT:??_C@_0N@OEJCLJAB@NUMPADPERIOD@
	DD	053H
	DD	FLAT:??_C@_0M@HKBPNHMK@NUMPADSLASH@
	DD	0b5H
	DD	FLAT:??_C@_04PPPBEHOF@RALT@
	DD	0b8H
	DD	FLAT:??_C@_07MNCBLHKG@UPARROW@
	DD	0c8H
	DD	FLAT:??_C@_04NHMBBGKC@PGUP@
	DD	0c9H
	DD	FLAT:??_C@_09FNHBLDAE@LEFTARROW@
	DD	0cbH
	DD	FLAT:??_C@_0L@CIPLPPIL@RIGHTARROW@
	DD	0cdH
	DD	FLAT:??_C@_09KIDHILFL@DOWNARROW@
	DD	0d0H
	DD	FLAT:??_C@_04BOGEOADK@PGDN@
	DD	0d1H
	DD	FLAT:??_C@_0L@ICKCLMNA@CIRCUMFLEX@
	DD	090H
CONST	ENDS
PUBLIC	_dslopen_input
PUBLIC	??_C@_0BD@GAFPKPMG@invalid?5controller@		; `string'
PUBLIC	??_C@_0L@KCOHFILK@VK_LBUTTON@			; `string'
PUBLIC	??_C@_0L@MLNGHLKD@VK_RBUTTON@			; `string'
PUBLIC	??_C@_09INKGPFMC@VK_CANCEL@			; `string'
PUBLIC	??_C@_0L@GOENFICE@VK_MBUTTON@			; `string'
PUBLIC	??_C@_0M@BMGHKJAF@VK_XBUTTON1@			; `string'
PUBLIC	??_C@_0M@DHEKPKMG@VK_XBUTTON2@			; `string'
PUBLIC	??_C@_07NCIKNAFA@VK_BACK@			; `string'
PUBLIC	??_C@_06KDCAMDM@VK_TAB@				; `string'
PUBLIC	??_C@_08PIAECJOM@VK_CLEAR@			; `string'
PUBLIC	??_C@_09KDODHALJ@VK_RETURN@			; `string'
PUBLIC	??_C@_08BHJBIDAM@VK_SHIFT@			; `string'
PUBLIC	??_C@_0L@GEFMOENA@VK_CONTROL@			; `string'
PUBLIC	??_C@_07DCBHMFK@VK_MENU@			; `string'
PUBLIC	??_C@_08MPOODJHP@VK_PAUSE@			; `string'
PUBLIC	??_C@_0L@LKDKNNID@VK_CAPITAL@			; `string'
PUBLIC	??_C@_07CNKNMJPI@VK_KANA@			; `string'
PUBLIC	??_C@_0L@JCDGCHAJ@VK_HANGEUL@			; `string'
PUBLIC	??_C@_09BMOFJFBP@VK_HANGUL@			; `string'
PUBLIC	??_C@_09MKKFEJF@VK_IME_ON@			; `string'
PUBLIC	??_C@_08IEAKEKF@VK_JUNJA@			; `string'
PUBLIC	??_C@_08GDGJIPPB@VK_FINAL@			; `string'
PUBLIC	??_C@_08NAOIDEOM@VK_HANJA@			; `string'
PUBLIC	??_C@_08JOKFMMEK@VK_KANJI@			; `string'
PUBLIC	??_C@_0L@CIFJHEKE@VK_IME_OFF@			; `string'
PUBLIC	??_C@_09DJNOLFIA@VK_ESCAPE@			; `string'
PUBLIC	??_C@_0L@EFLHHAOM@VK_CONVERT@			; `string'
PUBLIC	??_C@_0O@JCIMAAFP@VK_NONCONVERT@		; `string'
PUBLIC	??_C@_09BCPMCHEP@VK_ACCEPT@			; `string'
PUBLIC	??_C@_0O@FCDOCDG@VK_MODECHANGE@			; `string'
PUBLIC	??_C@_08NHKHJGFL@VK_SPACE@			; `string'
PUBLIC	??_C@_08OCNOOCII@VK_PRIOR@			; `string'
PUBLIC	??_C@_07EFDBOIAJ@VK_NEXT@			; `string'
PUBLIC	??_C@_06LPJBNMHN@VK_END@			; `string'
PUBLIC	??_C@_07OMPILPEG@VK_HOME@			; `string'
PUBLIC	??_C@_07CJEJDFBD@VK_LEFT@			; `string'
PUBLIC	??_C@_05PIGLHCBF@VK_UP@				; `string'
PUBLIC	??_C@_08LOMCDCA@VK_RIGHT@			; `string'
PUBLIC	??_C@_07NLENKNCK@VK_DOWN@			; `string'
PUBLIC	??_C@_09KINEMDEN@VK_SELECT@			; `string'
PUBLIC	??_C@_08LFEGCPDJ@VK_PRINT@			; `string'
PUBLIC	??_C@_0L@OECLDLCH@VK_EXECUTE@			; `string'
PUBLIC	??_C@_0M@PHCCMJCA@VK_SNAPSHOT@			; `string'
PUBLIC	??_C@_09POOJDJBK@VK_INSERT@			; `string'
PUBLIC	??_C@_09EABNPHOI@VK_DELETE@			; `string'
PUBLIC	??_C@_07LFDCNDAB@VK_HELP@			; `string'
PUBLIC	??_C@_07GICIBHOB@VK_LWIN@			; `string'
PUBLIC	??_C@_07LHPIDOAC@VK_RWIN@			; `string'
PUBLIC	??_C@_07OBPEBPAK@VK_APPS@			; `string'
PUBLIC	??_C@_08MOONOBCJ@VK_SLEEP@			; `string'
PUBLIC	??_C@_0L@ICJAMHIF@VK_NUMPAD0@			; `string'
PUBLIC	??_C@_0L@JLILPGME@VK_NUMPAD1@			; `string'
PUBLIC	??_C@_0L@LAKGKFAH@VK_NUMPAD2@			; `string'
PUBLIC	??_C@_0L@KJLNJEEG@VK_NUMPAD3@			; `string'
PUBLIC	??_C@_0L@OGPMACIB@VK_NUMPAD4@			; `string'
PUBLIC	??_C@_0L@PPOHDDMA@VK_NUMPAD5@			; `string'
PUBLIC	??_C@_0L@NEMKGAAD@VK_NUMPAD6@			; `string'
PUBLIC	??_C@_0L@MNNBFBEC@VK_NUMPAD7@			; `string'
PUBLIC	??_C@_0L@EKEJENIN@VK_NUMPAD8@			; `string'
PUBLIC	??_C@_0L@FDFCHMMM@VK_NUMPAD9@			; `string'
PUBLIC	??_C@_0M@EAKCGOCP@VK_MULTIPLY@			; `string'
PUBLIC	??_C@_06DNGEMOPM@VK_ADD@			; `string'
PUBLIC	??_C@_0N@BBNOCIBO@VK_SEPARATOR@			; `string'
PUBLIC	??_C@_0M@DFPICDII@VK_SUBTRACT@			; `string'
PUBLIC	??_C@_0L@OMODJIKJ@VK_DECIMAL@			; `string'
PUBLIC	??_C@_09ELHPKEHI@VK_DIVIDE@			; `string'
PUBLIC	??_C@_05JKONDFNK@VK_F1@				; `string'
PUBLIC	??_C@_05LBMAGGBJ@VK_F2@				; `string'
PUBLIC	??_C@_05KINLFHFI@VK_F3@				; `string'
PUBLIC	??_C@_05OHJKMBJP@VK_F4@				; `string'
PUBLIC	??_C@_05POIBPANO@VK_F5@				; `string'
PUBLIC	??_C@_05NFKMKDBN@VK_F6@				; `string'
PUBLIC	??_C@_05MMLHJCFM@VK_F7@				; `string'
PUBLIC	??_C@_05ELCPIOJD@VK_F8@				; `string'
PUBLIC	??_C@_05FCDELPNC@VK_F9@				; `string'
PUBLIC	??_C@_06LJNKOAAM@VK_F10@			; `string'
PUBLIC	??_C@_06KAMBNBEN@VK_F11@			; `string'
PUBLIC	??_C@_06ILOMICIO@VK_F12@			; `string'
PUBLIC	??_C@_06JCPHLDMP@VK_F13@			; `string'
PUBLIC	??_C@_06NNLGCFAI@VK_F14@			; `string'
PUBLIC	??_C@_06MEKNBEEJ@VK_F15@			; `string'
PUBLIC	??_C@_06OPIAEHIK@VK_F16@			; `string'
PUBLIC	??_C@_06PGJLHGML@VK_F17@			; `string'
PUBLIC	??_C@_06HBADGKAE@VK_F18@			; `string'
PUBLIC	??_C@_06GIBIFLEF@VK_F19@			; `string'
PUBLIC	??_C@_06LLJMFOFF@VK_F20@			; `string'
PUBLIC	??_C@_06KCIHGPBE@VK_F21@			; `string'
PUBLIC	??_C@_06IJKKDMNH@VK_F22@			; `string'
PUBLIC	??_C@_06JALBANJG@VK_F23@			; `string'
PUBLIC	??_C@_06NPPAJLFB@VK_F24@			; `string'
PUBLIC	??_C@_0BD@OPMFFLEC@VK_NAVIGATION_VIEW@		; `string'
PUBLIC	??_C@_0BD@IMEAMPAK@VK_NAVIGATION_MENU@		; `string'
PUBLIC	??_C@_0BB@OOCLLJD@VK_NAVIGATION_UP@		; `string'
PUBLIC	??_C@_0BD@FECMBOHK@VK_NAVIGATION_DOWN@		; `string'
PUBLIC	??_C@_0BD@KGCIIGED@VK_NAVIGATION_LEFT@		; `string'
PUBLIC	??_C@_0BE@GAAIBDGH@VK_NAVIGATION_RIGHT@		; `string'
PUBLIC	??_C@_0BF@PKCPBHEM@VK_NAVIGATION_ACCEPT@	; `string'
PUBLIC	??_C@_0BF@GFHFMFMB@VK_NAVIGATION_CANCEL@	; `string'
PUBLIC	??_C@_0L@ONLHMIN@VK_NUMLOCK@			; `string'
PUBLIC	??_C@_09EHKHDGLD@VK_SCROLL@			; `string'
PUBLIC	??_C@_0BB@GKNKAJKJ@VK_OEM_NEC_EQUAL@		; `string'
PUBLIC	??_C@_0BA@GBFKLLKL@VK_OEM_FJ_JISHO@		; `string'
PUBLIC	??_C@_0BC@BOIHNEME@VK_OEM_FJ_MASSHOU@		; `string'
PUBLIC	??_C@_0BC@FMKLNPFB@VK_OEM_FJ_TOUROKU@		; `string'
PUBLIC	??_C@_0P@KBFJLADM@VK_OEM_FJ_LOYA@		; `string'
PUBLIC	??_C@_0P@HOIJJJNP@VK_OEM_FJ_ROYA@		; `string'
PUBLIC	??_C@_09FFFABFHP@VK_LSHIFT@			; `string'
PUBLIC	??_C@_09GCLBPCOM@VK_RSHIFT@			; `string'
PUBLIC	??_C@_0M@HJCCLKFF@VK_LCONTROL@			; `string'
PUBLIC	??_C@_0M@BNCACDLG@VK_RCONTROL@			; `string'
PUBLIC	??_C@_08HACPGDHD@VK_LMENU@			; `string'
PUBLIC	??_C@_08EJPDAAJI@VK_RMENU@			; `string'
PUBLIC	??_C@_0BA@PNAPEFAJ@VK_BROWSER_BACK@		; `string'
PUBLIC	??_C@_0BD@HDAKAMDO@VK_BROWSER_FORWARD@		; `string'
PUBLIC	??_C@_0BD@FNDJBBDA@VK_BROWSER_REFRESH@		; `string'
PUBLIC	??_C@_0BA@GHGEGOGI@VK_BROWSER_STOP@		; `string'
PUBLIC	??_C@_0BC@JAOBJLNE@VK_BROWSER_SEARCH@		; `string'
PUBLIC	??_C@_0BF@HFGGODBI@VK_BROWSER_FAVORITES@	; `string'
PUBLIC	??_C@_0BA@MDHNCKBP@VK_BROWSER_HOME@		; `string'
PUBLIC	??_C@_0P@GNPJHKNG@VK_VOLUME_MUTE@		; `string'
PUBLIC	??_C@_0P@LOPPMIMO@VK_VOLUME_DOWN@		; `string'
PUBLIC	??_C@_0N@CJNKCANG@VK_VOLUME_UP@			; `string'
PUBLIC	??_C@_0BE@BIDJEODC@VK_MEDIA_NEXT_TRACK@		; `string'
PUBLIC	??_C@_0BE@DOGBJJDF@VK_MEDIA_PREV_TRACK@		; `string'
PUBLIC	??_C@_0O@NAMAIAAP@VK_MEDIA_STOP@		; `string'
PUBLIC	??_C@_0BE@GCMFIKLM@VK_MEDIA_PLAY_PAUSE@		; `string'
PUBLIC	??_C@_0P@ECJEBKJD@VK_LAUNCH_MAIL@		; `string'
PUBLIC	??_C@_0BH@HNFLLKIH@VK_LAUNCH_MEDIA_SELECT@	; `string'
PUBLIC	??_C@_0P@OGKHFICM@VK_LAUNCH_APP1@		; `string'
PUBLIC	??_C@_0P@MNIKALOP@VK_LAUNCH_APP2@		; `string'
PUBLIC	??_C@_08BPAKBFBH@VK_OEM_1@			; `string'
PUBLIC	??_C@_0M@EAHIOBFE@VK_OEM_PLUS@			; `string'
PUBLIC	??_C@_0N@MENDGIKH@VK_OEM_COMMA@			; `string'
PUBLIC	??_C@_0N@JONNBIC@VK_OEM_MINUS@			; `string'
PUBLIC	??_C@_0O@EMICHABJ@VK_OEM_PERIOD@		; `string'
PUBLIC	??_C@_08DECHEGNE@VK_OEM_2@			; `string'
PUBLIC	??_C@_08CNDMHHJF@VK_OEM_3@			; `string'
PUBLIC	??_C@_0N@BBJOEMBP@VK_GAMEPAD_A@			; `string'
PUBLIC	??_C@_0N@DKLDBPNM@VK_GAMEPAD_B@			; `string'
PUBLIC	??_C@_0N@IKJOOFAH@VK_GAMEPAD_X@			; `string'
PUBLIC	??_C@_0N@JDIFNEEG@VK_GAMEPAD_Y@			; `string'
PUBLIC	??_C@_0BK@BAEFDOD@VK_GAMEPAD_RIGHT_SHOULDER@	; `string'
PUBLIC	??_C@_0BJ@KGHHBGLN@VK_GAMEPAD_LEFT_SHOULDER@	; `string'
PUBLIC	??_C@_0BI@JIHGGOLL@VK_GAMEPAD_LEFT_TRIGGER@	; `string'
PUBLIC	??_C@_0BJ@IMBFFBFP@VK_GAMEPAD_RIGHT_TRIGGER@	; `string'
PUBLIC	??_C@_0BD@GOBIDELO@VK_GAMEPAD_DPAD_UP@		; `string'
PUBLIC	??_C@_0BF@JABLKNO@VK_GAMEPAD_DPAD_DOWN@		; `string'
PUBLIC	??_C@_0BF@PLAFCCOH@VK_GAMEPAD_DPAD_LEFT@	; `string'
PUBLIC	??_C@_0BG@LBOOFJDC@VK_GAMEPAD_DPAD_RIGHT@	; `string'
PUBLIC	??_C@_0BA@IIPDBGMD@VK_GAMEPAD_MENU@		; `string'
PUBLIC	??_C@_0BA@OLHGICIL@VK_GAMEPAD_VIEW@		; `string'
PUBLIC	??_C@_0CC@DDPKKNLP@VK_GAMEPAD_LEFT_THUMBSTICK_BUTT@ ; `string'
PUBLIC	??_C@_0CD@DBIOBADC@VK_GAMEPAD_RIGHT_THUMBSTICK_BUT@ ; `string'
PUBLIC	??_C@_0BO@EFPMHCGE@VK_GAMEPAD_LEFT_THUMBSTICK_UP@ ; `string'
PUBLIC	??_C@_0CA@ONGJFIAK@VK_GAMEPAD_LEFT_THUMBSTICK_DOWN@ ; `string'
PUBLIC	??_C@_0CB@DALECHBN@VK_GAMEPAD_LEFT_THUMBSTICK_RIGH@ ; `string'
PUBLIC	??_C@_0CA@BPGNMADD@VK_GAMEPAD_LEFT_THUMBSTICK_LEFT@ ; `string'
PUBLIC	??_C@_0BP@NJOEFHOG@VK_GAMEPAD_RIGHT_THUMBSTICK_UP@ ; `string'
PUBLIC	??_C@_0CB@KPNIOKJM@VK_GAMEPAD_RIGHT_THUMBSTICK_DOW@ ; `string'
PUBLIC	??_C@_0CC@CJJKKANO@VK_GAMEPAD_RIGHT_THUMBSTICK_RIG@ ; `string'
PUBLIC	??_C@_0CB@FNNMHCKF@VK_GAMEPAD_RIGHT_THUMBSTICK_LEF@ ; `string'
PUBLIC	??_C@_08GCHNOBFC@VK_OEM_4@			; `string'
PUBLIC	??_C@_08HLGGNABD@VK_OEM_5@			; `string'
PUBLIC	??_C@_08FAELIDNA@VK_OEM_6@			; `string'
PUBLIC	??_C@_08EJFALCJB@VK_OEM_7@			; `string'
PUBLIC	??_C@_08MOMIKOFO@VK_OEM_8@			; `string'
PUBLIC	??_C@_09KFFPDANO@VK_OEM_AX@			; `string'
PUBLIC	??_C@_0L@KBEFMOJG@VK_OEM_102@			; `string'
PUBLIC	??_C@_0M@HHNANIIF@VK_ICO_HELP@			; `string'
PUBLIC	??_C@_09JCABFGFB@VK_ICO_00@			; `string'
PUBLIC	??_C@_0O@DEOHIMHJ@VK_PROCESSKEY@		; `string'
PUBLIC	??_C@_0N@BCBDIMNO@VK_ICO_CLEAR@			; `string'
PUBLIC	??_C@_09GEKPAHJG@VK_PACKET@			; `string'
PUBLIC	??_C@_0N@MPIJDGDI@VK_OEM_RESET@			; `string'
PUBLIC	??_C@_0M@HOCBNHGJ@VK_OEM_JUMP@			; `string'
PUBLIC	??_C@_0L@FMMBAPFE@VK_OEM_PA1@			; `string'
PUBLIC	??_C@_0L@HHOMFMJH@VK_OEM_PA2@			; `string'
PUBLIC	??_C@_0L@GOPHGNNG@VK_OEM_PA3@			; `string'
PUBLIC	??_C@_0O@HPHOCEEK@VK_OEM_WSCTRL@		; `string'
PUBLIC	??_C@_0N@OFPIOINN@VK_OEM_CUSEL@			; `string'
PUBLIC	??_C@_0M@HGPLCGDN@VK_OEM_ATTN@			; `string'
PUBLIC	??_C@_0O@CDNHHGAN@VK_OEM_FINISH@		; `string'
PUBLIC	??_C@_0M@IJKJIJIJ@VK_OEM_COPY@			; `string'
PUBLIC	??_C@_0M@NHFMHABJ@VK_OEM_AUTO@			; `string'
PUBLIC	??_C@_0M@DFOKGMNG@VK_OEM_ENLW@			; `string'
PUBLIC	??_C@_0P@FPCAIFFJ@VK_OEM_BACKTAB@		; `string'
PUBLIC	??_C@_07JGPDEMJN@VK_ATTN@			; `string'
PUBLIC	??_C@_08IBOOJPEP@VK_CRSEL@			; `string'
PUBLIC	??_C@_08BNAHGEPD@VK_EXSEL@			; `string'
PUBLIC	??_C@_08NFLNBJEN@VK_EREOF@			; `string'
PUBLIC	??_C@_07EBLAGINC@VK_PLAY@			; `string'
PUBLIC	??_C@_07DNIFCFMC@VK_ZOOM@			; `string'
PUBLIC	??_C@_09KDKDNHAI@VK_NONAME@			; `string'
PUBLIC	??_C@_06IBECLBFO@VK_PA1@			; `string'
PUBLIC	??_C@_0N@CODCICGO@VK_OEM_CLEAR@			; `string'
PUBLIC	??_C@_0BB@MIGJAJLK@number?5or?5string@		; `string'
PUBLIC	??_C@_0O@MIKDCOGE@unknown?5key?3?5@		; `string'
PUBLIC	??_C@_0BD@JEHFGECB@unsupported?5button@		; `string'
PUBLIC	??_C@_0BC@JBMJOOOL@unsupported?5stick@		; `string'
PUBLIC	??_C@_0BC@OBDEIJHM@unsupported?5input@		; `string'
PUBLIC	??_C@_06HFKPFKMP@button@			; `string'
PUBLIC	??_C@_0O@NHKKLPML@unbound?5input@		; `string'
PUBLIC	??_C@_07BELCMIIP@special@			; `string'
PUBLIC	??_C@_06MBDJGOMB@analog@			; `string'
PUBLIC	??_C@_08KNBLADDJ@keyboard@			; `string'
PUBLIC	??_C@_0N@PMFHGPMB@mouse_button@			; `string'
PUBLIC	??_C@_0P@MGOAMKAN@mouse_movement@		; `string'
PUBLIC	??_C@_09CECBMBFC@dsl_input@			; `string'
PUBLIC	??_C@_04BDLIKKMN@__gc@				; `string'
PUBLIC	??_C@_00CNPNBAHC@@				; `string'
PUBLIC	??_C@_0BF@MCMAAGIF@invalid?5mouse?5button@	; `string'
PUBLIC	??_C@_0BL@MFAHGOMP@sizeof?$CIDIJOYSTATE?$CJ?5?$DN?50x?$CFzX@ ; `string'
PUBLIC	??_C@_0BN@NKFBNNCH@sizeof?$CIDIMOUSESTATE?$CJ?5?$DN?50x?$CFzX@ ; `string'
PUBLIC	??_C@_0BJ@KINGGKA@sizeof?$CIgame_joy?$CJ?5?$DN?50x?$CFzX@ ; `string'
PUBLIC	??_C@_0BL@MONHFLIF@sizeof?$CIgame_input?$CJ?5?$DN?50x?$CFzX@ ; `string'
PUBLIC	??_C@_0CA@DLOANBPJ@sizeof?$CIgame_controller?$CJ?5?$DN?50x?$CFzX@ ; `string'
PUBLIC	??_C@_0CI@KMLLJIHL@offsetof?$CIgame_controller?0input?$CJ@ ; `string'
PUBLIC	??_C@_0CN@JMABKBON@offsetof?$CIgame_controller?0last_i@ ; `string'
PUBLIC	??_C@_0P@GGCFOHEE@ZeroController@		; `string'
PUBLIC	??_C@_0BB@MEMOLKMD@SetButtonPressed@		; `string'
PUBLIC	??_C@_0O@DNJAGFDC@SetStickValue@		; `string'
PUBLIC	??_C@_0BB@NNJFHOEK@GetInputHardware@		; `string'
PUBLIC	??_C@_0BA@OHEBFFMF@IsUsingJoystick@		; `string'
PUBLIC	??_C@_0L@NANNFCLP@IsKeyValid@			; `string'
PUBLIC	??_C@_0N@PJHNMLAD@IsKeyPressed@			; `string'
PUBLIC	??_C@_0BC@ODGJHGCB@IsKeyBeingPressed@		; `string'
PUBLIC	??_C@_0BD@DLBEMFPM@IsKeyBeingReleased@		; `string'
PUBLIC	??_C@_0BB@HFIGDJJG@GetAnyKeyPressed@		; `string'
PUBLIC	??_C@_0BG@PIEHELBL@GetAnyKeyBeingPressed@	; `string'
PUBLIC	??_C@_0BH@PNADDCHD@GetAnyKeyBeingReleased@	; `string'
PUBLIC	??_C@_0M@GFOAFJML@StartTyping@			; `string'
PUBLIC	??_C@_0P@IBLCBIHE@IsTypingActive@		; `string'
PUBLIC	??_C@_0BA@IAHBLJNN@GetTypingString@		; `string'
PUBLIC	??_C@_0BB@PNKOAHC@WasTypingAborted@		; `string'
PUBLIC	??_C@_0L@IJLCNNJA@StopTyping@			; `string'
PUBLIC	??_C@_0O@DOPGFECM@GetMouseInput@		; `string'
PUBLIC	??_C@_0P@NDMPHIBB@GetMouseScroll@		; `string'
PUBLIC	??_C@_0P@NIKOJONB@IsMousePressed@		; `string'
PUBLIC	??_C@_0BE@OPNPDLAC@IsMouseBeingPressed@		; `string'
PUBLIC	??_C@_0BF@JJHPACMD@IsMouseBeingReleased@	; `string'
PUBLIC	??_C@_0P@OLIEGPLI@GetStickValue2@		; `string'
PUBLIC	??_C@_0BA@MGLIGIFL@PrintInputDebug@		; `string'
PUBLIC	__real@00000000
PUBLIC	__real@3f800000
PUBLIC	__real@3f80000000000000
PUBLIC	__xmm@80000000800000008000000080000000
EXTRN	_free:PROC
EXTRN	_malloc:PROC
EXTRN	_isprint:PROC
EXTRN	_toupper:PROC
EXTRN	_strncpy:PROC
EXTRN	__imp__OpenClipboard@4:PROC
EXTRN	__imp__CloseClipboard@0:PROC
EXTRN	__imp__GetClipboardData@4:PROC
EXTRN	__imp__GetKeyboardState@4:PROC
EXTRN	__imp__ToAscii@20:PROC
EXTRN	__imp__MapVirtualKeyA@8:PROC
EXTRN	_lua_gettop:PROC
EXTRN	_lua_settop:PROC
EXTRN	_lua_pushvalue:PROC
EXTRN	_lua_type:PROC
EXTRN	_lua_tonumber:PROC
EXTRN	_lua_toboolean:PROC
EXTRN	_lua_tostring:PROC
EXTRN	_lua_touserdata:PROC
EXTRN	_lua_pushnumber:PROC
EXTRN	_lua_pushlstring:PROC
EXTRN	_lua_pushstring:PROC
EXTRN	_lua_pushcclosure:PROC
EXTRN	_lua_pushboolean:PROC
EXTRN	_lua_rawget:PROC
EXTRN	_lua_newtable:PROC
EXTRN	_lua_newuserdata:PROC
EXTRN	_lua_settable:PROC
EXTRN	_lua_rawset:PROC
EXTRN	_lua_setmetatable:PROC
EXTRN	_lua_concat:PROC
EXTRN	_luaL_typerror:PROC
EXTRN	_luaL_argerror:PROC
EXTRN	_luaL_checktype:PROC
EXTRN	_luaL_error:PROC
EXTRN	_getDslState:PROC
EXTRN	_dslisenum:PROC
EXTRN	_shouldNetworkDisableKeys:PROC
EXTRN	_addScriptEventCallback:PROC
EXTRN	_printConsoleFormatted:PROC
EXTRN	@__security_check_cookie@4:PROC
EXTRN	_memcpy:PROC
EXTRN	_memset:PROC
EXTRN	___security_cookie:DWORD
EXTRN	__fltused:DWORD
;	COMDAT __xmm@80000000800000008000000080000000
CONST	SEGMENT
__xmm@80000000800000008000000080000000 DB 00H, 00H, 00H, 080H, 00H, 00H, 00H
	DB	080H, 00H, 00H, 00H, 080H, 00H, 00H, 00H, 080H
CONST	ENDS
;	COMDAT __real@3f80000000000000
CONST	SEGMENT
__real@3f80000000000000 DQ 03f80000000000000r	; 0.0078125
CONST	ENDS
;	COMDAT __real@3f800000
CONST	SEGMENT
__real@3f800000 DD 03f800000r			; 1
CONST	ENDS
;	COMDAT __real@00000000
CONST	SEGMENT
__real@00000000 DD 000000000r			; 0
CONST	ENDS
;	COMDAT ??_C@_0BA@MGLIGIFL@PrintInputDebug@
CONST	SEGMENT
??_C@_0BA@MGLIGIFL@PrintInputDebug@ DB 'PrintInputDebug', 00H ; `string'
CONST	ENDS
;	COMDAT ??_C@_0P@OLIEGPLI@GetStickValue2@
CONST	SEGMENT
??_C@_0P@OLIEGPLI@GetStickValue2@ DB 'GetStickValue2', 00H ; `string'
CONST	ENDS
;	COMDAT ??_C@_0BF@JJHPACMD@IsMouseBeingReleased@
CONST	SEGMENT
??_C@_0BF@JJHPACMD@IsMouseBeingReleased@ DB 'IsMouseBeingReleased', 00H ; `string'
CONST	ENDS
;	COMDAT ??_C@_0BE@OPNPDLAC@IsMouseBeingPressed@
CONST	SEGMENT
??_C@_0BE@OPNPDLAC@IsMouseBeingPressed@ DB 'IsMouseBeingPressed', 00H ; `string'
CONST	ENDS
;	COMDAT ??_C@_0P@NIKOJONB@IsMousePressed@
CONST	SEGMENT
??_C@_0P@NIKOJONB@IsMousePressed@ DB 'IsMousePressed', 00H ; `string'
CONST	ENDS
;	COMDAT ??_C@_0P@NDMPHIBB@GetMouseScroll@
CONST	SEGMENT
??_C@_0P@NDMPHIBB@GetMouseScroll@ DB 'GetMouseScroll', 00H ; `string'
CONST	ENDS
;	COMDAT ??_C@_0O@DOPGFECM@GetMouseInput@
CONST	SEGMENT
??_C@_0O@DOPGFECM@GetMouseInput@ DB 'GetMouseInput', 00H ; `string'
CONST	ENDS
;	COMDAT ??_C@_0L@IJLCNNJA@StopTyping@
CONST	SEGMENT
??_C@_0L@IJLCNNJA@StopTyping@ DB 'StopTyping', 00H	; `string'
CONST	ENDS
;	COMDAT ??_C@_0BB@PNKOAHC@WasTypingAborted@
CONST	SEGMENT
??_C@_0BB@PNKOAHC@WasTypingAborted@ DB 'WasTypingAborted', 00H ; `string'
CONST	ENDS
;	COMDAT ??_C@_0BA@IAHBLJNN@GetTypingString@
CONST	SEGMENT
??_C@_0BA@IAHBLJNN@GetTypingString@ DB 'GetTypingString', 00H ; `string'
CONST	ENDS
;	COMDAT ??_C@_0P@IBLCBIHE@IsTypingActive@
CONST	SEGMENT
??_C@_0P@IBLCBIHE@IsTypingActive@ DB 'IsTypingActive', 00H ; `string'
CONST	ENDS
;	COMDAT ??_C@_0M@GFOAFJML@StartTyping@
CONST	SEGMENT
??_C@_0M@GFOAFJML@StartTyping@ DB 'StartTyping', 00H	; `string'
CONST	ENDS
;	COMDAT ??_C@_0BH@PNADDCHD@GetAnyKeyBeingReleased@
CONST	SEGMENT
??_C@_0BH@PNADDCHD@GetAnyKeyBeingReleased@ DB 'GetAnyKeyBeingReleased', 00H ; `string'
CONST	ENDS
;	COMDAT ??_C@_0BG@PIEHELBL@GetAnyKeyBeingPressed@
CONST	SEGMENT
??_C@_0BG@PIEHELBL@GetAnyKeyBeingPressed@ DB 'GetAnyKeyBeingPressed', 00H ; `string'
CONST	ENDS
;	COMDAT ??_C@_0BB@HFIGDJJG@GetAnyKeyPressed@
CONST	SEGMENT
??_C@_0BB@HFIGDJJG@GetAnyKeyPressed@ DB 'GetAnyKeyPressed', 00H ; `string'
CONST	ENDS
;	COMDAT ??_C@_0BD@DLBEMFPM@IsKeyBeingReleased@
CONST	SEGMENT
??_C@_0BD@DLBEMFPM@IsKeyBeingReleased@ DB 'IsKeyBeingReleased', 00H ; `string'
CONST	ENDS
;	COMDAT ??_C@_0BC@ODGJHGCB@IsKeyBeingPressed@
CONST	SEGMENT
??_C@_0BC@ODGJHGCB@IsKeyBeingPressed@ DB 'IsKeyBeingPressed', 00H ; `string'
CONST	ENDS
;	COMDAT ??_C@_0N@PJHNMLAD@IsKeyPressed@
CONST	SEGMENT
??_C@_0N@PJHNMLAD@IsKeyPressed@ DB 'IsKeyPressed', 00H	; `string'
CONST	ENDS
;	COMDAT ??_C@_0L@NANNFCLP@IsKeyValid@
CONST	SEGMENT
??_C@_0L@NANNFCLP@IsKeyValid@ DB 'IsKeyValid', 00H	; `string'
CONST	ENDS
;	COMDAT ??_C@_0BA@OHEBFFMF@IsUsingJoystick@
CONST	SEGMENT
??_C@_0BA@OHEBFFMF@IsUsingJoystick@ DB 'IsUsingJoystick', 00H ; `string'
CONST	ENDS
;	COMDAT ??_C@_0BB@NNJFHOEK@GetInputHardware@
CONST	SEGMENT
??_C@_0BB@NNJFHOEK@GetInputHardware@ DB 'GetInputHardware', 00H ; `string'
CONST	ENDS
;	COMDAT ??_C@_0O@DNJAGFDC@SetStickValue@
CONST	SEGMENT
??_C@_0O@DNJAGFDC@SetStickValue@ DB 'SetStickValue', 00H ; `string'
CONST	ENDS
;	COMDAT ??_C@_0BB@MEMOLKMD@SetButtonPressed@
CONST	SEGMENT
??_C@_0BB@MEMOLKMD@SetButtonPressed@ DB 'SetButtonPressed', 00H ; `string'
CONST	ENDS
;	COMDAT ??_C@_0P@GGCFOHEE@ZeroController@
CONST	SEGMENT
??_C@_0P@GGCFOHEE@ZeroController@ DB 'ZeroController', 00H ; `string'
CONST	ENDS
;	COMDAT ??_C@_0CN@JMABKBON@offsetof?$CIgame_controller?0last_i@
CONST	SEGMENT
??_C@_0CN@JMABKBON@offsetof?$CIgame_controller?0last_i@ DB 'offsetof(game'
	DB	'_controller,last_input) = 0x%zX', 00H	; `string'
CONST	ENDS
;	COMDAT ??_C@_0CI@KMLLJIHL@offsetof?$CIgame_controller?0input?$CJ@
CONST	SEGMENT
??_C@_0CI@KMLLJIHL@offsetof?$CIgame_controller?0input?$CJ@ DB 'offsetof(g'
	DB	'ame_controller,input) = 0x%zX', 00H		; `string'
CONST	ENDS
;	COMDAT ??_C@_0CA@DLOANBPJ@sizeof?$CIgame_controller?$CJ?5?$DN?50x?$CFzX@
CONST	SEGMENT
??_C@_0CA@DLOANBPJ@sizeof?$CIgame_controller?$CJ?5?$DN?50x?$CFzX@ DB 'siz'
	DB	'eof(game_controller) = 0x%zX', 00H		; `string'
CONST	ENDS
;	COMDAT ??_C@_0BL@MONHFLIF@sizeof?$CIgame_input?$CJ?5?$DN?50x?$CFzX@
CONST	SEGMENT
??_C@_0BL@MONHFLIF@sizeof?$CIgame_input?$CJ?5?$DN?50x?$CFzX@ DB 'sizeof(g'
	DB	'ame_input) = 0x%zX', 00H			; `string'
CONST	ENDS
;	COMDAT ??_C@_0BJ@KINGGKA@sizeof?$CIgame_joy?$CJ?5?$DN?50x?$CFzX@
CONST	SEGMENT
??_C@_0BJ@KINGGKA@sizeof?$CIgame_joy?$CJ?5?$DN?50x?$CFzX@ DB 'sizeof(game'
	DB	'_joy) = 0x%zX', 00H				; `string'
CONST	ENDS
;	COMDAT ??_C@_0BN@NKFBNNCH@sizeof?$CIDIMOUSESTATE?$CJ?5?$DN?50x?$CFzX@
CONST	SEGMENT
??_C@_0BN@NKFBNNCH@sizeof?$CIDIMOUSESTATE?$CJ?5?$DN?50x?$CFzX@ DB 'sizeof'
	DB	'(DIMOUSESTATE) = 0x%zX', 00H		; `string'
CONST	ENDS
;	COMDAT ??_C@_0BL@MFAHGOMP@sizeof?$CIDIJOYSTATE?$CJ?5?$DN?50x?$CFzX@
CONST	SEGMENT
??_C@_0BL@MFAHGOMP@sizeof?$CIDIJOYSTATE?$CJ?5?$DN?50x?$CFzX@ DB 'sizeof(D'
	DB	'IJOYSTATE) = 0x%zX', 00H			; `string'
CONST	ENDS
;	COMDAT ??_C@_0BF@MCMAAGIF@invalid?5mouse?5button@
CONST	SEGMENT
??_C@_0BF@MCMAAGIF@invalid?5mouse?5button@ DB 'invalid mouse button', 00H ; `string'
CONST	ENDS
;	COMDAT ??_C@_00CNPNBAHC@@
CONST	SEGMENT
??_C@_00CNPNBAHC@@ DB 00H				; `string'
CONST	ENDS
;	COMDAT ??_C@_04BDLIKKMN@__gc@
CONST	SEGMENT
??_C@_04BDLIKKMN@__gc@ DB '__gc', 00H			; `string'
CONST	ENDS
;	COMDAT ??_C@_09CECBMBFC@dsl_input@
CONST	SEGMENT
??_C@_09CECBMBFC@dsl_input@ DB 'dsl_input', 00H		; `string'
CONST	ENDS
;	COMDAT ??_C@_0P@MGOAMKAN@mouse_movement@
CONST	SEGMENT
??_C@_0P@MGOAMKAN@mouse_movement@ DB 'mouse_movement', 00H ; `string'
CONST	ENDS
;	COMDAT ??_C@_0N@PMFHGPMB@mouse_button@
CONST	SEGMENT
??_C@_0N@PMFHGPMB@mouse_button@ DB 'mouse_button', 00H	; `string'
CONST	ENDS
;	COMDAT ??_C@_08KNBLADDJ@keyboard@
CONST	SEGMENT
??_C@_08KNBLADDJ@keyboard@ DB 'keyboard', 00H		; `string'
CONST	ENDS
;	COMDAT ??_C@_06MBDJGOMB@analog@
CONST	SEGMENT
??_C@_06MBDJGOMB@analog@ DB 'analog', 00H		; `string'
CONST	ENDS
;	COMDAT ??_C@_07BELCMIIP@special@
CONST	SEGMENT
??_C@_07BELCMIIP@special@ DB 'special', 00H		; `string'
CONST	ENDS
;	COMDAT ??_C@_0O@NHKKLPML@unbound?5input@
CONST	SEGMENT
??_C@_0O@NHKKLPML@unbound?5input@ DB 'unbound input', 00H ; `string'
CONST	ENDS
;	COMDAT ??_C@_06HFKPFKMP@button@
CONST	SEGMENT
??_C@_06HFKPFKMP@button@ DB 'button', 00H		; `string'
CONST	ENDS
;	COMDAT ??_C@_0BC@OBDEIJHM@unsupported?5input@
CONST	SEGMENT
??_C@_0BC@OBDEIJHM@unsupported?5input@ DB 'unsupported input', 00H ; `string'
CONST	ENDS
;	COMDAT ??_C@_0BC@JBMJOOOL@unsupported?5stick@
CONST	SEGMENT
??_C@_0BC@JBMJOOOL@unsupported?5stick@ DB 'unsupported stick', 00H ; `string'
CONST	ENDS
;	COMDAT ??_C@_0BD@JEHFGECB@unsupported?5button@
CONST	SEGMENT
??_C@_0BD@JEHFGECB@unsupported?5button@ DB 'unsupported button', 00H ; `string'
CONST	ENDS
;	COMDAT ??_C@_0O@MIKDCOGE@unknown?5key?3?5@
CONST	SEGMENT
??_C@_0O@MIKDCOGE@unknown?5key?3?5@ DB 'unknown key: ', 00H ; `string'
CONST	ENDS
;	COMDAT ??_C@_0BB@MIGJAJLK@number?5or?5string@
CONST	SEGMENT
??_C@_0BB@MIGJAJLK@number?5or?5string@ DB 'number or string', 00H ; `string'
CONST	ENDS
;	COMDAT ??_C@_0N@CODCICGO@VK_OEM_CLEAR@
CONST	SEGMENT
??_C@_0N@CODCICGO@VK_OEM_CLEAR@ DB 'VK_OEM_CLEAR', 00H	; `string'
CONST	ENDS
;	COMDAT ??_C@_06IBECLBFO@VK_PA1@
CONST	SEGMENT
??_C@_06IBECLBFO@VK_PA1@ DB 'VK_PA1', 00H		; `string'
CONST	ENDS
;	COMDAT ??_C@_09KDKDNHAI@VK_NONAME@
CONST	SEGMENT
??_C@_09KDKDNHAI@VK_NONAME@ DB 'VK_NONAME', 00H		; `string'
CONST	ENDS
;	COMDAT ??_C@_07DNIFCFMC@VK_ZOOM@
CONST	SEGMENT
??_C@_07DNIFCFMC@VK_ZOOM@ DB 'VK_ZOOM', 00H		; `string'
CONST	ENDS
;	COMDAT ??_C@_07EBLAGINC@VK_PLAY@
CONST	SEGMENT
??_C@_07EBLAGINC@VK_PLAY@ DB 'VK_PLAY', 00H		; `string'
CONST	ENDS
;	COMDAT ??_C@_08NFLNBJEN@VK_EREOF@
CONST	SEGMENT
??_C@_08NFLNBJEN@VK_EREOF@ DB 'VK_EREOF', 00H		; `string'
CONST	ENDS
;	COMDAT ??_C@_08BNAHGEPD@VK_EXSEL@
CONST	SEGMENT
??_C@_08BNAHGEPD@VK_EXSEL@ DB 'VK_EXSEL', 00H		; `string'
CONST	ENDS
;	COMDAT ??_C@_08IBOOJPEP@VK_CRSEL@
CONST	SEGMENT
??_C@_08IBOOJPEP@VK_CRSEL@ DB 'VK_CRSEL', 00H		; `string'
CONST	ENDS
;	COMDAT ??_C@_07JGPDEMJN@VK_ATTN@
CONST	SEGMENT
??_C@_07JGPDEMJN@VK_ATTN@ DB 'VK_ATTN', 00H		; `string'
CONST	ENDS
;	COMDAT ??_C@_0P@FPCAIFFJ@VK_OEM_BACKTAB@
CONST	SEGMENT
??_C@_0P@FPCAIFFJ@VK_OEM_BACKTAB@ DB 'VK_OEM_BACKTAB', 00H ; `string'
CONST	ENDS
;	COMDAT ??_C@_0M@DFOKGMNG@VK_OEM_ENLW@
CONST	SEGMENT
??_C@_0M@DFOKGMNG@VK_OEM_ENLW@ DB 'VK_OEM_ENLW', 00H	; `string'
CONST	ENDS
;	COMDAT ??_C@_0M@NHFMHABJ@VK_OEM_AUTO@
CONST	SEGMENT
??_C@_0M@NHFMHABJ@VK_OEM_AUTO@ DB 'VK_OEM_AUTO', 00H	; `string'
CONST	ENDS
;	COMDAT ??_C@_0M@IJKJIJIJ@VK_OEM_COPY@
CONST	SEGMENT
??_C@_0M@IJKJIJIJ@VK_OEM_COPY@ DB 'VK_OEM_COPY', 00H	; `string'
CONST	ENDS
;	COMDAT ??_C@_0O@CDNHHGAN@VK_OEM_FINISH@
CONST	SEGMENT
??_C@_0O@CDNHHGAN@VK_OEM_FINISH@ DB 'VK_OEM_FINISH', 00H ; `string'
CONST	ENDS
;	COMDAT ??_C@_0M@HGPLCGDN@VK_OEM_ATTN@
CONST	SEGMENT
??_C@_0M@HGPLCGDN@VK_OEM_ATTN@ DB 'VK_OEM_ATTN', 00H	; `string'
CONST	ENDS
;	COMDAT ??_C@_0N@OFPIOINN@VK_OEM_CUSEL@
CONST	SEGMENT
??_C@_0N@OFPIOINN@VK_OEM_CUSEL@ DB 'VK_OEM_CUSEL', 00H	; `string'
CONST	ENDS
;	COMDAT ??_C@_0O@HPHOCEEK@VK_OEM_WSCTRL@
CONST	SEGMENT
??_C@_0O@HPHOCEEK@VK_OEM_WSCTRL@ DB 'VK_OEM_WSCTRL', 00H ; `string'
CONST	ENDS
;	COMDAT ??_C@_0L@GOPHGNNG@VK_OEM_PA3@
CONST	SEGMENT
??_C@_0L@GOPHGNNG@VK_OEM_PA3@ DB 'VK_OEM_PA3', 00H	; `string'
CONST	ENDS
;	COMDAT ??_C@_0L@HHOMFMJH@VK_OEM_PA2@
CONST	SEGMENT
??_C@_0L@HHOMFMJH@VK_OEM_PA2@ DB 'VK_OEM_PA2', 00H	; `string'
CONST	ENDS
;	COMDAT ??_C@_0L@FMMBAPFE@VK_OEM_PA1@
CONST	SEGMENT
??_C@_0L@FMMBAPFE@VK_OEM_PA1@ DB 'VK_OEM_PA1', 00H	; `string'
CONST	ENDS
;	COMDAT ??_C@_0M@HOCBNHGJ@VK_OEM_JUMP@
CONST	SEGMENT
??_C@_0M@HOCBNHGJ@VK_OEM_JUMP@ DB 'VK_OEM_JUMP', 00H	; `string'
CONST	ENDS
;	COMDAT ??_C@_0N@MPIJDGDI@VK_OEM_RESET@
CONST	SEGMENT
??_C@_0N@MPIJDGDI@VK_OEM_RESET@ DB 'VK_OEM_RESET', 00H	; `string'
CONST	ENDS
;	COMDAT ??_C@_09GEKPAHJG@VK_PACKET@
CONST	SEGMENT
??_C@_09GEKPAHJG@VK_PACKET@ DB 'VK_PACKET', 00H		; `string'
CONST	ENDS
;	COMDAT ??_C@_0N@BCBDIMNO@VK_ICO_CLEAR@
CONST	SEGMENT
??_C@_0N@BCBDIMNO@VK_ICO_CLEAR@ DB 'VK_ICO_CLEAR', 00H	; `string'
CONST	ENDS
;	COMDAT ??_C@_0O@DEOHIMHJ@VK_PROCESSKEY@
CONST	SEGMENT
??_C@_0O@DEOHIMHJ@VK_PROCESSKEY@ DB 'VK_PROCESSKEY', 00H ; `string'
CONST	ENDS
;	COMDAT ??_C@_09JCABFGFB@VK_ICO_00@
CONST	SEGMENT
??_C@_09JCABFGFB@VK_ICO_00@ DB 'VK_ICO_00', 00H		; `string'
CONST	ENDS
;	COMDAT ??_C@_0M@HHNANIIF@VK_ICO_HELP@
CONST	SEGMENT
??_C@_0M@HHNANIIF@VK_ICO_HELP@ DB 'VK_ICO_HELP', 00H	; `string'
CONST	ENDS
;	COMDAT ??_C@_0L@KBEFMOJG@VK_OEM_102@
CONST	SEGMENT
??_C@_0L@KBEFMOJG@VK_OEM_102@ DB 'VK_OEM_102', 00H	; `string'
CONST	ENDS
;	COMDAT ??_C@_09KFFPDANO@VK_OEM_AX@
CONST	SEGMENT
??_C@_09KFFPDANO@VK_OEM_AX@ DB 'VK_OEM_AX', 00H		; `string'
CONST	ENDS
;	COMDAT ??_C@_08MOMIKOFO@VK_OEM_8@
CONST	SEGMENT
??_C@_08MOMIKOFO@VK_OEM_8@ DB 'VK_OEM_8', 00H		; `string'
CONST	ENDS
;	COMDAT ??_C@_08EJFALCJB@VK_OEM_7@
CONST	SEGMENT
??_C@_08EJFALCJB@VK_OEM_7@ DB 'VK_OEM_7', 00H		; `string'
CONST	ENDS
;	COMDAT ??_C@_08FAELIDNA@VK_OEM_6@
CONST	SEGMENT
??_C@_08FAELIDNA@VK_OEM_6@ DB 'VK_OEM_6', 00H		; `string'
CONST	ENDS
;	COMDAT ??_C@_08HLGGNABD@VK_OEM_5@
CONST	SEGMENT
??_C@_08HLGGNABD@VK_OEM_5@ DB 'VK_OEM_5', 00H		; `string'
CONST	ENDS
;	COMDAT ??_C@_08GCHNOBFC@VK_OEM_4@
CONST	SEGMENT
??_C@_08GCHNOBFC@VK_OEM_4@ DB 'VK_OEM_4', 00H		; `string'
CONST	ENDS
;	COMDAT ??_C@_0CB@FNNMHCKF@VK_GAMEPAD_RIGHT_THUMBSTICK_LEF@
CONST	SEGMENT
??_C@_0CB@FNNMHCKF@VK_GAMEPAD_RIGHT_THUMBSTICK_LEF@ DB 'VK_GAMEPAD_RIGHT_'
	DB	'THUMBSTICK_LEFT', 00H			; `string'
CONST	ENDS
;	COMDAT ??_C@_0CC@CJJKKANO@VK_GAMEPAD_RIGHT_THUMBSTICK_RIG@
CONST	SEGMENT
??_C@_0CC@CJJKKANO@VK_GAMEPAD_RIGHT_THUMBSTICK_RIG@ DB 'VK_GAMEPAD_RIGHT_'
	DB	'THUMBSTICK_RIGHT', 00H			; `string'
CONST	ENDS
;	COMDAT ??_C@_0CB@KPNIOKJM@VK_GAMEPAD_RIGHT_THUMBSTICK_DOW@
CONST	SEGMENT
??_C@_0CB@KPNIOKJM@VK_GAMEPAD_RIGHT_THUMBSTICK_DOW@ DB 'VK_GAMEPAD_RIGHT_'
	DB	'THUMBSTICK_DOWN', 00H			; `string'
CONST	ENDS
;	COMDAT ??_C@_0BP@NJOEFHOG@VK_GAMEPAD_RIGHT_THUMBSTICK_UP@
CONST	SEGMENT
??_C@_0BP@NJOEFHOG@VK_GAMEPAD_RIGHT_THUMBSTICK_UP@ DB 'VK_GAMEPAD_RIGHT_T'
	DB	'HUMBSTICK_UP', 00H				; `string'
CONST	ENDS
;	COMDAT ??_C@_0CA@BPGNMADD@VK_GAMEPAD_LEFT_THUMBSTICK_LEFT@
CONST	SEGMENT
??_C@_0CA@BPGNMADD@VK_GAMEPAD_LEFT_THUMBSTICK_LEFT@ DB 'VK_GAMEPAD_LEFT_T'
	DB	'HUMBSTICK_LEFT', 00H			; `string'
CONST	ENDS
;	COMDAT ??_C@_0CB@DALECHBN@VK_GAMEPAD_LEFT_THUMBSTICK_RIGH@
CONST	SEGMENT
??_C@_0CB@DALECHBN@VK_GAMEPAD_LEFT_THUMBSTICK_RIGH@ DB 'VK_GAMEPAD_LEFT_T'
	DB	'HUMBSTICK_RIGHT', 00H			; `string'
CONST	ENDS
;	COMDAT ??_C@_0CA@ONGJFIAK@VK_GAMEPAD_LEFT_THUMBSTICK_DOWN@
CONST	SEGMENT
??_C@_0CA@ONGJFIAK@VK_GAMEPAD_LEFT_THUMBSTICK_DOWN@ DB 'VK_GAMEPAD_LEFT_T'
	DB	'HUMBSTICK_DOWN', 00H			; `string'
CONST	ENDS
;	COMDAT ??_C@_0BO@EFPMHCGE@VK_GAMEPAD_LEFT_THUMBSTICK_UP@
CONST	SEGMENT
??_C@_0BO@EFPMHCGE@VK_GAMEPAD_LEFT_THUMBSTICK_UP@ DB 'VK_GAMEPAD_LEFT_THU'
	DB	'MBSTICK_UP', 00H				; `string'
CONST	ENDS
;	COMDAT ??_C@_0CD@DBIOBADC@VK_GAMEPAD_RIGHT_THUMBSTICK_BUT@
CONST	SEGMENT
??_C@_0CD@DBIOBADC@VK_GAMEPAD_RIGHT_THUMBSTICK_BUT@ DB 'VK_GAMEPAD_RIGHT_'
	DB	'THUMBSTICK_BUTTON', 00H			; `string'
CONST	ENDS
;	COMDAT ??_C@_0CC@DDPKKNLP@VK_GAMEPAD_LEFT_THUMBSTICK_BUTT@
CONST	SEGMENT
??_C@_0CC@DDPKKNLP@VK_GAMEPAD_LEFT_THUMBSTICK_BUTT@ DB 'VK_GAMEPAD_LEFT_T'
	DB	'HUMBSTICK_BUTTON', 00H			; `string'
CONST	ENDS
;	COMDAT ??_C@_0BA@OLHGICIL@VK_GAMEPAD_VIEW@
CONST	SEGMENT
??_C@_0BA@OLHGICIL@VK_GAMEPAD_VIEW@ DB 'VK_GAMEPAD_VIEW', 00H ; `string'
CONST	ENDS
;	COMDAT ??_C@_0BA@IIPDBGMD@VK_GAMEPAD_MENU@
CONST	SEGMENT
??_C@_0BA@IIPDBGMD@VK_GAMEPAD_MENU@ DB 'VK_GAMEPAD_MENU', 00H ; `string'
CONST	ENDS
;	COMDAT ??_C@_0BG@LBOOFJDC@VK_GAMEPAD_DPAD_RIGHT@
CONST	SEGMENT
??_C@_0BG@LBOOFJDC@VK_GAMEPAD_DPAD_RIGHT@ DB 'VK_GAMEPAD_DPAD_RIGHT', 00H ; `string'
CONST	ENDS
;	COMDAT ??_C@_0BF@PLAFCCOH@VK_GAMEPAD_DPAD_LEFT@
CONST	SEGMENT
??_C@_0BF@PLAFCCOH@VK_GAMEPAD_DPAD_LEFT@ DB 'VK_GAMEPAD_DPAD_LEFT', 00H ; `string'
CONST	ENDS
;	COMDAT ??_C@_0BF@JABLKNO@VK_GAMEPAD_DPAD_DOWN@
CONST	SEGMENT
??_C@_0BF@JABLKNO@VK_GAMEPAD_DPAD_DOWN@ DB 'VK_GAMEPAD_DPAD_DOWN', 00H ; `string'
CONST	ENDS
;	COMDAT ??_C@_0BD@GOBIDELO@VK_GAMEPAD_DPAD_UP@
CONST	SEGMENT
??_C@_0BD@GOBIDELO@VK_GAMEPAD_DPAD_UP@ DB 'VK_GAMEPAD_DPAD_UP', 00H ; `string'
CONST	ENDS
;	COMDAT ??_C@_0BJ@IMBFFBFP@VK_GAMEPAD_RIGHT_TRIGGER@
CONST	SEGMENT
??_C@_0BJ@IMBFFBFP@VK_GAMEPAD_RIGHT_TRIGGER@ DB 'VK_GAMEPAD_RIGHT_TRIGGER'
	DB	00H						; `string'
CONST	ENDS
;	COMDAT ??_C@_0BI@JIHGGOLL@VK_GAMEPAD_LEFT_TRIGGER@
CONST	SEGMENT
??_C@_0BI@JIHGGOLL@VK_GAMEPAD_LEFT_TRIGGER@ DB 'VK_GAMEPAD_LEFT_TRIGGER', 00H ; `string'
CONST	ENDS
;	COMDAT ??_C@_0BJ@KGHHBGLN@VK_GAMEPAD_LEFT_SHOULDER@
CONST	SEGMENT
??_C@_0BJ@KGHHBGLN@VK_GAMEPAD_LEFT_SHOULDER@ DB 'VK_GAMEPAD_LEFT_SHOULDER'
	DB	00H						; `string'
CONST	ENDS
;	COMDAT ??_C@_0BK@BAEFDOD@VK_GAMEPAD_RIGHT_SHOULDER@
CONST	SEGMENT
??_C@_0BK@BAEFDOD@VK_GAMEPAD_RIGHT_SHOULDER@ DB 'VK_GAMEPAD_RIGHT_SHOULDE'
	DB	'R', 00H					; `string'
CONST	ENDS
;	COMDAT ??_C@_0N@JDIFNEEG@VK_GAMEPAD_Y@
CONST	SEGMENT
??_C@_0N@JDIFNEEG@VK_GAMEPAD_Y@ DB 'VK_GAMEPAD_Y', 00H	; `string'
CONST	ENDS
;	COMDAT ??_C@_0N@IKJOOFAH@VK_GAMEPAD_X@
CONST	SEGMENT
??_C@_0N@IKJOOFAH@VK_GAMEPAD_X@ DB 'VK_GAMEPAD_X', 00H	; `string'
CONST	ENDS
;	COMDAT ??_C@_0N@DKLDBPNM@VK_GAMEPAD_B@
CONST	SEGMENT
??_C@_0N@DKLDBPNM@VK_GAMEPAD_B@ DB 'VK_GAMEPAD_B', 00H	; `string'
CONST	ENDS
;	COMDAT ??_C@_0N@BBJOEMBP@VK_GAMEPAD_A@
CONST	SEGMENT
??_C@_0N@BBJOEMBP@VK_GAMEPAD_A@ DB 'VK_GAMEPAD_A', 00H	; `string'
CONST	ENDS
;	COMDAT ??_C@_08CNDMHHJF@VK_OEM_3@
CONST	SEGMENT
??_C@_08CNDMHHJF@VK_OEM_3@ DB 'VK_OEM_3', 00H		; `string'
CONST	ENDS
;	COMDAT ??_C@_08DECHEGNE@VK_OEM_2@
CONST	SEGMENT
??_C@_08DECHEGNE@VK_OEM_2@ DB 'VK_OEM_2', 00H		; `string'
CONST	ENDS
;	COMDAT ??_C@_0O@EMICHABJ@VK_OEM_PERIOD@
CONST	SEGMENT
??_C@_0O@EMICHABJ@VK_OEM_PERIOD@ DB 'VK_OEM_PERIOD', 00H ; `string'
CONST	ENDS
;	COMDAT ??_C@_0N@JONNBIC@VK_OEM_MINUS@
CONST	SEGMENT
??_C@_0N@JONNBIC@VK_OEM_MINUS@ DB 'VK_OEM_MINUS', 00H	; `string'
CONST	ENDS
;	COMDAT ??_C@_0N@MENDGIKH@VK_OEM_COMMA@
CONST	SEGMENT
??_C@_0N@MENDGIKH@VK_OEM_COMMA@ DB 'VK_OEM_COMMA', 00H	; `string'
CONST	ENDS
;	COMDAT ??_C@_0M@EAHIOBFE@VK_OEM_PLUS@
CONST	SEGMENT
??_C@_0M@EAHIOBFE@VK_OEM_PLUS@ DB 'VK_OEM_PLUS', 00H	; `string'
CONST	ENDS
;	COMDAT ??_C@_08BPAKBFBH@VK_OEM_1@
CONST	SEGMENT
??_C@_08BPAKBFBH@VK_OEM_1@ DB 'VK_OEM_1', 00H		; `string'
CONST	ENDS
;	COMDAT ??_C@_0P@MNIKALOP@VK_LAUNCH_APP2@
CONST	SEGMENT
??_C@_0P@MNIKALOP@VK_LAUNCH_APP2@ DB 'VK_LAUNCH_APP2', 00H ; `string'
CONST	ENDS
;	COMDAT ??_C@_0P@OGKHFICM@VK_LAUNCH_APP1@
CONST	SEGMENT
??_C@_0P@OGKHFICM@VK_LAUNCH_APP1@ DB 'VK_LAUNCH_APP1', 00H ; `string'
CONST	ENDS
;	COMDAT ??_C@_0BH@HNFLLKIH@VK_LAUNCH_MEDIA_SELECT@
CONST	SEGMENT
??_C@_0BH@HNFLLKIH@VK_LAUNCH_MEDIA_SELECT@ DB 'VK_LAUNCH_MEDIA_SELECT', 00H ; `string'
CONST	ENDS
;	COMDAT ??_C@_0P@ECJEBKJD@VK_LAUNCH_MAIL@
CONST	SEGMENT
??_C@_0P@ECJEBKJD@VK_LAUNCH_MAIL@ DB 'VK_LAUNCH_MAIL', 00H ; `string'
CONST	ENDS
;	COMDAT ??_C@_0BE@GCMFIKLM@VK_MEDIA_PLAY_PAUSE@
CONST	SEGMENT
??_C@_0BE@GCMFIKLM@VK_MEDIA_PLAY_PAUSE@ DB 'VK_MEDIA_PLAY_PAUSE', 00H ; `string'
CONST	ENDS
;	COMDAT ??_C@_0O@NAMAIAAP@VK_MEDIA_STOP@
CONST	SEGMENT
??_C@_0O@NAMAIAAP@VK_MEDIA_STOP@ DB 'VK_MEDIA_STOP', 00H ; `string'
CONST	ENDS
;	COMDAT ??_C@_0BE@DOGBJJDF@VK_MEDIA_PREV_TRACK@
CONST	SEGMENT
??_C@_0BE@DOGBJJDF@VK_MEDIA_PREV_TRACK@ DB 'VK_MEDIA_PREV_TRACK', 00H ; `string'
CONST	ENDS
;	COMDAT ??_C@_0BE@BIDJEODC@VK_MEDIA_NEXT_TRACK@
CONST	SEGMENT
??_C@_0BE@BIDJEODC@VK_MEDIA_NEXT_TRACK@ DB 'VK_MEDIA_NEXT_TRACK', 00H ; `string'
CONST	ENDS
;	COMDAT ??_C@_0N@CJNKCANG@VK_VOLUME_UP@
CONST	SEGMENT
??_C@_0N@CJNKCANG@VK_VOLUME_UP@ DB 'VK_VOLUME_UP', 00H	; `string'
CONST	ENDS
;	COMDAT ??_C@_0P@LOPPMIMO@VK_VOLUME_DOWN@
CONST	SEGMENT
??_C@_0P@LOPPMIMO@VK_VOLUME_DOWN@ DB 'VK_VOLUME_DOWN', 00H ; `string'
CONST	ENDS
;	COMDAT ??_C@_0P@GNPJHKNG@VK_VOLUME_MUTE@
CONST	SEGMENT
??_C@_0P@GNPJHKNG@VK_VOLUME_MUTE@ DB 'VK_VOLUME_MUTE', 00H ; `string'
CONST	ENDS
;	COMDAT ??_C@_0BA@MDHNCKBP@VK_BROWSER_HOME@
CONST	SEGMENT
??_C@_0BA@MDHNCKBP@VK_BROWSER_HOME@ DB 'VK_BROWSER_HOME', 00H ; `string'
CONST	ENDS
;	COMDAT ??_C@_0BF@HFGGODBI@VK_BROWSER_FAVORITES@
CONST	SEGMENT
??_C@_0BF@HFGGODBI@VK_BROWSER_FAVORITES@ DB 'VK_BROWSER_FAVORITES', 00H ; `string'
CONST	ENDS
;	COMDAT ??_C@_0BC@JAOBJLNE@VK_BROWSER_SEARCH@
CONST	SEGMENT
??_C@_0BC@JAOBJLNE@VK_BROWSER_SEARCH@ DB 'VK_BROWSER_SEARCH', 00H ; `string'
CONST	ENDS
;	COMDAT ??_C@_0BA@GHGEGOGI@VK_BROWSER_STOP@
CONST	SEGMENT
??_C@_0BA@GHGEGOGI@VK_BROWSER_STOP@ DB 'VK_BROWSER_STOP', 00H ; `string'
CONST	ENDS
;	COMDAT ??_C@_0BD@FNDJBBDA@VK_BROWSER_REFRESH@
CONST	SEGMENT
??_C@_0BD@FNDJBBDA@VK_BROWSER_REFRESH@ DB 'VK_BROWSER_REFRESH', 00H ; `string'
CONST	ENDS
;	COMDAT ??_C@_0BD@HDAKAMDO@VK_BROWSER_FORWARD@
CONST	SEGMENT
??_C@_0BD@HDAKAMDO@VK_BROWSER_FORWARD@ DB 'VK_BROWSER_FORWARD', 00H ; `string'
CONST	ENDS
;	COMDAT ??_C@_0BA@PNAPEFAJ@VK_BROWSER_BACK@
CONST	SEGMENT
??_C@_0BA@PNAPEFAJ@VK_BROWSER_BACK@ DB 'VK_BROWSER_BACK', 00H ; `string'
CONST	ENDS
;	COMDAT ??_C@_08EJPDAAJI@VK_RMENU@
CONST	SEGMENT
??_C@_08EJPDAAJI@VK_RMENU@ DB 'VK_RMENU', 00H		; `string'
CONST	ENDS
;	COMDAT ??_C@_08HACPGDHD@VK_LMENU@
CONST	SEGMENT
??_C@_08HACPGDHD@VK_LMENU@ DB 'VK_LMENU', 00H		; `string'
CONST	ENDS
;	COMDAT ??_C@_0M@BNCACDLG@VK_RCONTROL@
CONST	SEGMENT
??_C@_0M@BNCACDLG@VK_RCONTROL@ DB 'VK_RCONTROL', 00H	; `string'
CONST	ENDS
;	COMDAT ??_C@_0M@HJCCLKFF@VK_LCONTROL@
CONST	SEGMENT
??_C@_0M@HJCCLKFF@VK_LCONTROL@ DB 'VK_LCONTROL', 00H	; `string'
CONST	ENDS
;	COMDAT ??_C@_09GCLBPCOM@VK_RSHIFT@
CONST	SEGMENT
??_C@_09GCLBPCOM@VK_RSHIFT@ DB 'VK_RSHIFT', 00H		; `string'
CONST	ENDS
;	COMDAT ??_C@_09FFFABFHP@VK_LSHIFT@
CONST	SEGMENT
??_C@_09FFFABFHP@VK_LSHIFT@ DB 'VK_LSHIFT', 00H		; `string'
CONST	ENDS
;	COMDAT ??_C@_0P@HOIJJJNP@VK_OEM_FJ_ROYA@
CONST	SEGMENT
??_C@_0P@HOIJJJNP@VK_OEM_FJ_ROYA@ DB 'VK_OEM_FJ_ROYA', 00H ; `string'
CONST	ENDS
;	COMDAT ??_C@_0P@KBFJLADM@VK_OEM_FJ_LOYA@
CONST	SEGMENT
??_C@_0P@KBFJLADM@VK_OEM_FJ_LOYA@ DB 'VK_OEM_FJ_LOYA', 00H ; `string'
CONST	ENDS
;	COMDAT ??_C@_0BC@FMKLNPFB@VK_OEM_FJ_TOUROKU@
CONST	SEGMENT
??_C@_0BC@FMKLNPFB@VK_OEM_FJ_TOUROKU@ DB 'VK_OEM_FJ_TOUROKU', 00H ; `string'
CONST	ENDS
;	COMDAT ??_C@_0BC@BOIHNEME@VK_OEM_FJ_MASSHOU@
CONST	SEGMENT
??_C@_0BC@BOIHNEME@VK_OEM_FJ_MASSHOU@ DB 'VK_OEM_FJ_MASSHOU', 00H ; `string'
CONST	ENDS
;	COMDAT ??_C@_0BA@GBFKLLKL@VK_OEM_FJ_JISHO@
CONST	SEGMENT
??_C@_0BA@GBFKLLKL@VK_OEM_FJ_JISHO@ DB 'VK_OEM_FJ_JISHO', 00H ; `string'
CONST	ENDS
;	COMDAT ??_C@_0BB@GKNKAJKJ@VK_OEM_NEC_EQUAL@
CONST	SEGMENT
??_C@_0BB@GKNKAJKJ@VK_OEM_NEC_EQUAL@ DB 'VK_OEM_NEC_EQUAL', 00H ; `string'
CONST	ENDS
;	COMDAT ??_C@_09EHKHDGLD@VK_SCROLL@
CONST	SEGMENT
??_C@_09EHKHDGLD@VK_SCROLL@ DB 'VK_SCROLL', 00H		; `string'
CONST	ENDS
;	COMDAT ??_C@_0L@ONLHMIN@VK_NUMLOCK@
CONST	SEGMENT
??_C@_0L@ONLHMIN@VK_NUMLOCK@ DB 'VK_NUMLOCK', 00H	; `string'
CONST	ENDS
;	COMDAT ??_C@_0BF@GFHFMFMB@VK_NAVIGATION_CANCEL@
CONST	SEGMENT
??_C@_0BF@GFHFMFMB@VK_NAVIGATION_CANCEL@ DB 'VK_NAVIGATION_CANCEL', 00H ; `string'
CONST	ENDS
;	COMDAT ??_C@_0BF@PKCPBHEM@VK_NAVIGATION_ACCEPT@
CONST	SEGMENT
??_C@_0BF@PKCPBHEM@VK_NAVIGATION_ACCEPT@ DB 'VK_NAVIGATION_ACCEPT', 00H ; `string'
CONST	ENDS
;	COMDAT ??_C@_0BE@GAAIBDGH@VK_NAVIGATION_RIGHT@
CONST	SEGMENT
??_C@_0BE@GAAIBDGH@VK_NAVIGATION_RIGHT@ DB 'VK_NAVIGATION_RIGHT', 00H ; `string'
CONST	ENDS
;	COMDAT ??_C@_0BD@KGCIIGED@VK_NAVIGATION_LEFT@
CONST	SEGMENT
??_C@_0BD@KGCIIGED@VK_NAVIGATION_LEFT@ DB 'VK_NAVIGATION_LEFT', 00H ; `string'
CONST	ENDS
;	COMDAT ??_C@_0BD@FECMBOHK@VK_NAVIGATION_DOWN@
CONST	SEGMENT
??_C@_0BD@FECMBOHK@VK_NAVIGATION_DOWN@ DB 'VK_NAVIGATION_DOWN', 00H ; `string'
CONST	ENDS
;	COMDAT ??_C@_0BB@OOCLLJD@VK_NAVIGATION_UP@
CONST	SEGMENT
??_C@_0BB@OOCLLJD@VK_NAVIGATION_UP@ DB 'VK_NAVIGATION_UP', 00H ; `string'
CONST	ENDS
;	COMDAT ??_C@_0BD@IMEAMPAK@VK_NAVIGATION_MENU@
CONST	SEGMENT
??_C@_0BD@IMEAMPAK@VK_NAVIGATION_MENU@ DB 'VK_NAVIGATION_MENU', 00H ; `string'
CONST	ENDS
;	COMDAT ??_C@_0BD@OPMFFLEC@VK_NAVIGATION_VIEW@
CONST	SEGMENT
??_C@_0BD@OPMFFLEC@VK_NAVIGATION_VIEW@ DB 'VK_NAVIGATION_VIEW', 00H ; `string'
CONST	ENDS
;	COMDAT ??_C@_06NPPAJLFB@VK_F24@
CONST	SEGMENT
??_C@_06NPPAJLFB@VK_F24@ DB 'VK_F24', 00H		; `string'
CONST	ENDS
;	COMDAT ??_C@_06JALBANJG@VK_F23@
CONST	SEGMENT
??_C@_06JALBANJG@VK_F23@ DB 'VK_F23', 00H		; `string'
CONST	ENDS
;	COMDAT ??_C@_06IJKKDMNH@VK_F22@
CONST	SEGMENT
??_C@_06IJKKDMNH@VK_F22@ DB 'VK_F22', 00H		; `string'
CONST	ENDS
;	COMDAT ??_C@_06KCIHGPBE@VK_F21@
CONST	SEGMENT
??_C@_06KCIHGPBE@VK_F21@ DB 'VK_F21', 00H		; `string'
CONST	ENDS
;	COMDAT ??_C@_06LLJMFOFF@VK_F20@
CONST	SEGMENT
??_C@_06LLJMFOFF@VK_F20@ DB 'VK_F20', 00H		; `string'
CONST	ENDS
;	COMDAT ??_C@_06GIBIFLEF@VK_F19@
CONST	SEGMENT
??_C@_06GIBIFLEF@VK_F19@ DB 'VK_F19', 00H		; `string'
CONST	ENDS
;	COMDAT ??_C@_06HBADGKAE@VK_F18@
CONST	SEGMENT
??_C@_06HBADGKAE@VK_F18@ DB 'VK_F18', 00H		; `string'
CONST	ENDS
;	COMDAT ??_C@_06PGJLHGML@VK_F17@
CONST	SEGMENT
??_C@_06PGJLHGML@VK_F17@ DB 'VK_F17', 00H		; `string'
CONST	ENDS
;	COMDAT ??_C@_06OPIAEHIK@VK_F16@
CONST	SEGMENT
??_C@_06OPIAEHIK@VK_F16@ DB 'VK_F16', 00H		; `string'
CONST	ENDS
;	COMDAT ??_C@_06MEKNBEEJ@VK_F15@
CONST	SEGMENT
??_C@_06MEKNBEEJ@VK_F15@ DB 'VK_F15', 00H		; `string'
CONST	ENDS
;	COMDAT ??_C@_06NNLGCFAI@VK_F14@
CONST	SEGMENT
??_C@_06NNLGCFAI@VK_F14@ DB 'VK_F14', 00H		; `string'
CONST	ENDS
;	COMDAT ??_C@_06JCPHLDMP@VK_F13@
CONST	SEGMENT
??_C@_06JCPHLDMP@VK_F13@ DB 'VK_F13', 00H		; `string'
CONST	ENDS
;	COMDAT ??_C@_06ILOMICIO@VK_F12@
CONST	SEGMENT
??_C@_06ILOMICIO@VK_F12@ DB 'VK_F12', 00H		; `string'
CONST	ENDS
;	COMDAT ??_C@_06KAMBNBEN@VK_F11@
CONST	SEGMENT
??_C@_06KAMBNBEN@VK_F11@ DB 'VK_F11', 00H		; `string'
CONST	ENDS
;	COMDAT ??_C@_06LJNKOAAM@VK_F10@
CONST	SEGMENT
??_C@_06LJNKOAAM@VK_F10@ DB 'VK_F10', 00H		; `string'
CONST	ENDS
;	COMDAT ??_C@_05FCDELPNC@VK_F9@
CONST	SEGMENT
??_C@_05FCDELPNC@VK_F9@ DB 'VK_F9', 00H			; `string'
CONST	ENDS
;	COMDAT ??_C@_05ELCPIOJD@VK_F8@
CONST	SEGMENT
??_C@_05ELCPIOJD@VK_F8@ DB 'VK_F8', 00H			; `string'
CONST	ENDS
;	COMDAT ??_C@_05MMLHJCFM@VK_F7@
CONST	SEGMENT
??_C@_05MMLHJCFM@VK_F7@ DB 'VK_F7', 00H			; `string'
CONST	ENDS
;	COMDAT ??_C@_05NFKMKDBN@VK_F6@
CONST	SEGMENT
??_C@_05NFKMKDBN@VK_F6@ DB 'VK_F6', 00H			; `string'
CONST	ENDS
;	COMDAT ??_C@_05POIBPANO@VK_F5@
CONST	SEGMENT
??_C@_05POIBPANO@VK_F5@ DB 'VK_F5', 00H			; `string'
CONST	ENDS
;	COMDAT ??_C@_05OHJKMBJP@VK_F4@
CONST	SEGMENT
??_C@_05OHJKMBJP@VK_F4@ DB 'VK_F4', 00H			; `string'
CONST	ENDS
;	COMDAT ??_C@_05KINLFHFI@VK_F3@
CONST	SEGMENT
??_C@_05KINLFHFI@VK_F3@ DB 'VK_F3', 00H			; `string'
CONST	ENDS
;	COMDAT ??_C@_05LBMAGGBJ@VK_F2@
CONST	SEGMENT
??_C@_05LBMAGGBJ@VK_F2@ DB 'VK_F2', 00H			; `string'
CONST	ENDS
;	COMDAT ??_C@_05JKONDFNK@VK_F1@
CONST	SEGMENT
??_C@_05JKONDFNK@VK_F1@ DB 'VK_F1', 00H			; `string'
CONST	ENDS
;	COMDAT ??_C@_09ELHPKEHI@VK_DIVIDE@
CONST	SEGMENT
??_C@_09ELHPKEHI@VK_DIVIDE@ DB 'VK_DIVIDE', 00H		; `string'
CONST	ENDS
;	COMDAT ??_C@_0L@OMODJIKJ@VK_DECIMAL@
CONST	SEGMENT
??_C@_0L@OMODJIKJ@VK_DECIMAL@ DB 'VK_DECIMAL', 00H	; `string'
CONST	ENDS
;	COMDAT ??_C@_0M@DFPICDII@VK_SUBTRACT@
CONST	SEGMENT
??_C@_0M@DFPICDII@VK_SUBTRACT@ DB 'VK_SUBTRACT', 00H	; `string'
CONST	ENDS
;	COMDAT ??_C@_0N@BBNOCIBO@VK_SEPARATOR@
CONST	SEGMENT
??_C@_0N@BBNOCIBO@VK_SEPARATOR@ DB 'VK_SEPARATOR', 00H	; `string'
CONST	ENDS
;	COMDAT ??_C@_06DNGEMOPM@VK_ADD@
CONST	SEGMENT
??_C@_06DNGEMOPM@VK_ADD@ DB 'VK_ADD', 00H		; `string'
CONST	ENDS
;	COMDAT ??_C@_0M@EAKCGOCP@VK_MULTIPLY@
CONST	SEGMENT
??_C@_0M@EAKCGOCP@VK_MULTIPLY@ DB 'VK_MULTIPLY', 00H	; `string'
CONST	ENDS
;	COMDAT ??_C@_0L@FDFCHMMM@VK_NUMPAD9@
CONST	SEGMENT
??_C@_0L@FDFCHMMM@VK_NUMPAD9@ DB 'VK_NUMPAD9', 00H	; `string'
CONST	ENDS
;	COMDAT ??_C@_0L@EKEJENIN@VK_NUMPAD8@
CONST	SEGMENT
??_C@_0L@EKEJENIN@VK_NUMPAD8@ DB 'VK_NUMPAD8', 00H	; `string'
CONST	ENDS
;	COMDAT ??_C@_0L@MNNBFBEC@VK_NUMPAD7@
CONST	SEGMENT
??_C@_0L@MNNBFBEC@VK_NUMPAD7@ DB 'VK_NUMPAD7', 00H	; `string'
CONST	ENDS
;	COMDAT ??_C@_0L@NEMKGAAD@VK_NUMPAD6@
CONST	SEGMENT
??_C@_0L@NEMKGAAD@VK_NUMPAD6@ DB 'VK_NUMPAD6', 00H	; `string'
CONST	ENDS
;	COMDAT ??_C@_0L@PPOHDDMA@VK_NUMPAD5@
CONST	SEGMENT
??_C@_0L@PPOHDDMA@VK_NUMPAD5@ DB 'VK_NUMPAD5', 00H	; `string'
CONST	ENDS
;	COMDAT ??_C@_0L@OGPMACIB@VK_NUMPAD4@
CONST	SEGMENT
??_C@_0L@OGPMACIB@VK_NUMPAD4@ DB 'VK_NUMPAD4', 00H	; `string'
CONST	ENDS
;	COMDAT ??_C@_0L@KJLNJEEG@VK_NUMPAD3@
CONST	SEGMENT
??_C@_0L@KJLNJEEG@VK_NUMPAD3@ DB 'VK_NUMPAD3', 00H	; `string'
CONST	ENDS
;	COMDAT ??_C@_0L@LAKGKFAH@VK_NUMPAD2@
CONST	SEGMENT
??_C@_0L@LAKGKFAH@VK_NUMPAD2@ DB 'VK_NUMPAD2', 00H	; `string'
CONST	ENDS
;	COMDAT ??_C@_0L@JLILPGME@VK_NUMPAD1@
CONST	SEGMENT
??_C@_0L@JLILPGME@VK_NUMPAD1@ DB 'VK_NUMPAD1', 00H	; `string'
CONST	ENDS
;	COMDAT ??_C@_0L@ICJAMHIF@VK_NUMPAD0@
CONST	SEGMENT
??_C@_0L@ICJAMHIF@VK_NUMPAD0@ DB 'VK_NUMPAD0', 00H	; `string'
CONST	ENDS
;	COMDAT ??_C@_08MOONOBCJ@VK_SLEEP@
CONST	SEGMENT
??_C@_08MOONOBCJ@VK_SLEEP@ DB 'VK_SLEEP', 00H		; `string'
CONST	ENDS
;	COMDAT ??_C@_07OBPEBPAK@VK_APPS@
CONST	SEGMENT
??_C@_07OBPEBPAK@VK_APPS@ DB 'VK_APPS', 00H		; `string'
CONST	ENDS
;	COMDAT ??_C@_07LHPIDOAC@VK_RWIN@
CONST	SEGMENT
??_C@_07LHPIDOAC@VK_RWIN@ DB 'VK_RWIN', 00H		; `string'
CONST	ENDS
;	COMDAT ??_C@_07GICIBHOB@VK_LWIN@
CONST	SEGMENT
??_C@_07GICIBHOB@VK_LWIN@ DB 'VK_LWIN', 00H		; `string'
CONST	ENDS
;	COMDAT ??_C@_07LFDCNDAB@VK_HELP@
CONST	SEGMENT
??_C@_07LFDCNDAB@VK_HELP@ DB 'VK_HELP', 00H		; `string'
CONST	ENDS
;	COMDAT ??_C@_09EABNPHOI@VK_DELETE@
CONST	SEGMENT
??_C@_09EABNPHOI@VK_DELETE@ DB 'VK_DELETE', 00H		; `string'
CONST	ENDS
;	COMDAT ??_C@_09POOJDJBK@VK_INSERT@
CONST	SEGMENT
??_C@_09POOJDJBK@VK_INSERT@ DB 'VK_INSERT', 00H		; `string'
CONST	ENDS
;	COMDAT ??_C@_0M@PHCCMJCA@VK_SNAPSHOT@
CONST	SEGMENT
??_C@_0M@PHCCMJCA@VK_SNAPSHOT@ DB 'VK_SNAPSHOT', 00H	; `string'
CONST	ENDS
;	COMDAT ??_C@_0L@OECLDLCH@VK_EXECUTE@
CONST	SEGMENT
??_C@_0L@OECLDLCH@VK_EXECUTE@ DB 'VK_EXECUTE', 00H	; `string'
CONST	ENDS
;	COMDAT ??_C@_08LFEGCPDJ@VK_PRINT@
CONST	SEGMENT
??_C@_08LFEGCPDJ@VK_PRINT@ DB 'VK_PRINT', 00H		; `string'
CONST	ENDS
;	COMDAT ??_C@_09KINEMDEN@VK_SELECT@
CONST	SEGMENT
??_C@_09KINEMDEN@VK_SELECT@ DB 'VK_SELECT', 00H		; `string'
CONST	ENDS
;	COMDAT ??_C@_07NLENKNCK@VK_DOWN@
CONST	SEGMENT
??_C@_07NLENKNCK@VK_DOWN@ DB 'VK_DOWN', 00H		; `string'
CONST	ENDS
;	COMDAT ??_C@_08LOMCDCA@VK_RIGHT@
CONST	SEGMENT
??_C@_08LOMCDCA@VK_RIGHT@ DB 'VK_RIGHT', 00H		; `string'
CONST	ENDS
;	COMDAT ??_C@_05PIGLHCBF@VK_UP@
CONST	SEGMENT
??_C@_05PIGLHCBF@VK_UP@ DB 'VK_UP', 00H			; `string'
CONST	ENDS
;	COMDAT ??_C@_07CJEJDFBD@VK_LEFT@
CONST	SEGMENT
??_C@_07CJEJDFBD@VK_LEFT@ DB 'VK_LEFT', 00H		; `string'
CONST	ENDS
;	COMDAT ??_C@_07OMPILPEG@VK_HOME@
CONST	SEGMENT
??_C@_07OMPILPEG@VK_HOME@ DB 'VK_HOME', 00H		; `string'
CONST	ENDS
;	COMDAT ??_C@_06LPJBNMHN@VK_END@
CONST	SEGMENT
??_C@_06LPJBNMHN@VK_END@ DB 'VK_END', 00H		; `string'
CONST	ENDS
;	COMDAT ??_C@_07EFDBOIAJ@VK_NEXT@
CONST	SEGMENT
??_C@_07EFDBOIAJ@VK_NEXT@ DB 'VK_NEXT', 00H		; `string'
CONST	ENDS
;	COMDAT ??_C@_08OCNOOCII@VK_PRIOR@
CONST	SEGMENT
??_C@_08OCNOOCII@VK_PRIOR@ DB 'VK_PRIOR', 00H		; `string'
CONST	ENDS
;	COMDAT ??_C@_08NHKHJGFL@VK_SPACE@
CONST	SEGMENT
??_C@_08NHKHJGFL@VK_SPACE@ DB 'VK_SPACE', 00H		; `string'
CONST	ENDS
;	COMDAT ??_C@_0O@FCDOCDG@VK_MODECHANGE@
CONST	SEGMENT
??_C@_0O@FCDOCDG@VK_MODECHANGE@ DB 'VK_MODECHANGE', 00H	; `string'
CONST	ENDS
;	COMDAT ??_C@_09BCPMCHEP@VK_ACCEPT@
CONST	SEGMENT
??_C@_09BCPMCHEP@VK_ACCEPT@ DB 'VK_ACCEPT', 00H		; `string'
CONST	ENDS
;	COMDAT ??_C@_0O@JCIMAAFP@VK_NONCONVERT@
CONST	SEGMENT
??_C@_0O@JCIMAAFP@VK_NONCONVERT@ DB 'VK_NONCONVERT', 00H ; `string'
CONST	ENDS
;	COMDAT ??_C@_0L@EFLHHAOM@VK_CONVERT@
CONST	SEGMENT
??_C@_0L@EFLHHAOM@VK_CONVERT@ DB 'VK_CONVERT', 00H	; `string'
CONST	ENDS
;	COMDAT ??_C@_09DJNOLFIA@VK_ESCAPE@
CONST	SEGMENT
??_C@_09DJNOLFIA@VK_ESCAPE@ DB 'VK_ESCAPE', 00H		; `string'
CONST	ENDS
;	COMDAT ??_C@_0L@CIFJHEKE@VK_IME_OFF@
CONST	SEGMENT
??_C@_0L@CIFJHEKE@VK_IME_OFF@ DB 'VK_IME_OFF', 00H	; `string'
CONST	ENDS
;	COMDAT ??_C@_08JOKFMMEK@VK_KANJI@
CONST	SEGMENT
??_C@_08JOKFMMEK@VK_KANJI@ DB 'VK_KANJI', 00H		; `string'
CONST	ENDS
;	COMDAT ??_C@_08NAOIDEOM@VK_HANJA@
CONST	SEGMENT
??_C@_08NAOIDEOM@VK_HANJA@ DB 'VK_HANJA', 00H		; `string'
CONST	ENDS
;	COMDAT ??_C@_08GDGJIPPB@VK_FINAL@
CONST	SEGMENT
??_C@_08GDGJIPPB@VK_FINAL@ DB 'VK_FINAL', 00H		; `string'
CONST	ENDS
;	COMDAT ??_C@_08IEAKEKF@VK_JUNJA@
CONST	SEGMENT
??_C@_08IEAKEKF@VK_JUNJA@ DB 'VK_JUNJA', 00H		; `string'
CONST	ENDS
;	COMDAT ??_C@_09MKKFEJF@VK_IME_ON@
CONST	SEGMENT
??_C@_09MKKFEJF@VK_IME_ON@ DB 'VK_IME_ON', 00H		; `string'
CONST	ENDS
;	COMDAT ??_C@_09BMOFJFBP@VK_HANGUL@
CONST	SEGMENT
??_C@_09BMOFJFBP@VK_HANGUL@ DB 'VK_HANGUL', 00H		; `string'
CONST	ENDS
;	COMDAT ??_C@_0L@JCDGCHAJ@VK_HANGEUL@
CONST	SEGMENT
??_C@_0L@JCDGCHAJ@VK_HANGEUL@ DB 'VK_HANGEUL', 00H	; `string'
CONST	ENDS
;	COMDAT ??_C@_07CNKNMJPI@VK_KANA@
CONST	SEGMENT
??_C@_07CNKNMJPI@VK_KANA@ DB 'VK_KANA', 00H		; `string'
CONST	ENDS
;	COMDAT ??_C@_0L@LKDKNNID@VK_CAPITAL@
CONST	SEGMENT
??_C@_0L@LKDKNNID@VK_CAPITAL@ DB 'VK_CAPITAL', 00H	; `string'
CONST	ENDS
;	COMDAT ??_C@_08MPOODJHP@VK_PAUSE@
CONST	SEGMENT
??_C@_08MPOODJHP@VK_PAUSE@ DB 'VK_PAUSE', 00H		; `string'
CONST	ENDS
;	COMDAT ??_C@_07DCBHMFK@VK_MENU@
CONST	SEGMENT
??_C@_07DCBHMFK@VK_MENU@ DB 'VK_MENU', 00H		; `string'
CONST	ENDS
;	COMDAT ??_C@_0L@GEFMOENA@VK_CONTROL@
CONST	SEGMENT
??_C@_0L@GEFMOENA@VK_CONTROL@ DB 'VK_CONTROL', 00H	; `string'
CONST	ENDS
;	COMDAT ??_C@_08BHJBIDAM@VK_SHIFT@
CONST	SEGMENT
??_C@_08BHJBIDAM@VK_SHIFT@ DB 'VK_SHIFT', 00H		; `string'
CONST	ENDS
;	COMDAT ??_C@_09KDODHALJ@VK_RETURN@
CONST	SEGMENT
??_C@_09KDODHALJ@VK_RETURN@ DB 'VK_RETURN', 00H		; `string'
CONST	ENDS
;	COMDAT ??_C@_08PIAECJOM@VK_CLEAR@
CONST	SEGMENT
??_C@_08PIAECJOM@VK_CLEAR@ DB 'VK_CLEAR', 00H		; `string'
CONST	ENDS
;	COMDAT ??_C@_06KDCAMDM@VK_TAB@
CONST	SEGMENT
??_C@_06KDCAMDM@VK_TAB@ DB 'VK_TAB', 00H		; `string'
CONST	ENDS
;	COMDAT ??_C@_07NCIKNAFA@VK_BACK@
CONST	SEGMENT
??_C@_07NCIKNAFA@VK_BACK@ DB 'VK_BACK', 00H		; `string'
CONST	ENDS
;	COMDAT ??_C@_0M@DHEKPKMG@VK_XBUTTON2@
CONST	SEGMENT
??_C@_0M@DHEKPKMG@VK_XBUTTON2@ DB 'VK_XBUTTON2', 00H	; `string'
CONST	ENDS
;	COMDAT ??_C@_0M@BMGHKJAF@VK_XBUTTON1@
CONST	SEGMENT
??_C@_0M@BMGHKJAF@VK_XBUTTON1@ DB 'VK_XBUTTON1', 00H	; `string'
CONST	ENDS
;	COMDAT ??_C@_0L@GOENFICE@VK_MBUTTON@
CONST	SEGMENT
??_C@_0L@GOENFICE@VK_MBUTTON@ DB 'VK_MBUTTON', 00H	; `string'
CONST	ENDS
;	COMDAT ??_C@_09INKGPFMC@VK_CANCEL@
CONST	SEGMENT
??_C@_09INKGPFMC@VK_CANCEL@ DB 'VK_CANCEL', 00H		; `string'
CONST	ENDS
;	COMDAT ??_C@_0L@MLNGHLKD@VK_RBUTTON@
CONST	SEGMENT
??_C@_0L@MLNGHLKD@VK_RBUTTON@ DB 'VK_RBUTTON', 00H	; `string'
CONST	ENDS
;	COMDAT ??_C@_0L@KCOHFILK@VK_LBUTTON@
CONST	SEGMENT
??_C@_0L@KCOHFILK@VK_LBUTTON@ DB 'VK_LBUTTON', 00H	; `string'
CONST	ENDS
;	COMDAT ??_C@_0BD@GAFPKPMG@invalid?5controller@
CONST	SEGMENT
??_C@_0BD@GAFPKPMG@invalid?5controller@ DB 'invalid controller', 00H ; `string'
CONST	ENDS
; Function compile flags: /Ogtpy
;	COMDAT _dslopen_input
_TEXT	SEGMENT
_lua$ = 8						; size = 4
_dslopen_input PROC					; COMDAT
; File C:\Program Files (x86)\Steam\steamapps\common\Bully Scholarship Edition\_derpy_script_loader\src\client\library\lib_input.c
; Line 1127
	push	esi
	push	edi
; Line 1130
	mov	edi, DWORD PTR _lua$[esp+4]
	push	1
	push	edi
	call	_getDslState
; Line 1131
	push	0
	mov	esi, eax
	push	OFFSET _keyDown
	push	1
	push	DWORD PTR [esi+20]
	call	_addScriptEventCallback
; Line 1133
	push	OFFSET ??_C@_0P@GGCFOHEE@ZeroController@
	push	edi
	call	_lua_pushstring
	push	0
	push	OFFSET _ZeroController
	push	edi
	call	_lua_pushcclosure
	push	-10001					; ffffd8efH
	push	edi
	call	_lua_settable
; Line 1134
	push	OFFSET ??_C@_0BB@MEMOLKMD@SetButtonPressed@
	push	edi
	call	_lua_pushstring
	push	0
	push	OFFSET _SetButtonPressed
	push	edi
	call	_lua_pushcclosure
	add	esp, 72					; 00000048H
	push	-10001					; ffffd8efH
	push	edi
	call	_lua_settable
; Line 1135
	push	OFFSET ??_C@_0O@DNJAGFDC@SetStickValue@
	push	edi
	call	_lua_pushstring
	push	0
	push	OFFSET _SetStickValue
	push	edi
	call	_lua_pushcclosure
	push	-10001					; ffffd8efH
	push	edi
	call	_lua_settable
; Line 1137
	push	OFFSET ??_C@_0BB@NNJFHOEK@GetInputHardware@
	push	edi
	call	_lua_pushstring
	push	0
	push	OFFSET _GetInputHardware
	push	edi
	call	_lua_pushcclosure
	push	-10001					; ffffd8efH
	push	edi
	call	_lua_settable
	add	esp, 64					; 00000040H
; Line 1138
	push	OFFSET ??_C@_0BA@OHEBFFMF@IsUsingJoystick@
	push	edi
	call	_lua_pushstring
	push	0
	push	OFFSET _IsUsingJoystick
	push	edi
	call	_lua_pushcclosure
	push	-10001					; ffffd8efH
	push	edi
	call	_lua_settable
; Line 1140
	push	OFFSET ??_C@_0L@NANNFCLP@IsKeyValid@
	push	edi
	call	_lua_pushstring
	push	0
	push	OFFSET _IsKeyValid
	push	edi
	call	_lua_pushcclosure
	push	-10001					; ffffd8efH
	push	edi
	call	_lua_settable
; Line 1141
	push	OFFSET ??_C@_0N@PJHNMLAD@IsKeyPressed@
	push	edi
	call	_lua_pushstring
	add	esp, 64					; 00000040H
	push	0
	push	OFFSET _IsKeyPressed
	push	edi
	call	_lua_pushcclosure
	push	-10001					; ffffd8efH
	push	edi
	call	_lua_settable
; Line 1142
	push	OFFSET ??_C@_0BC@ODGJHGCB@IsKeyBeingPressed@
	push	edi
	call	_lua_pushstring
	push	0
	push	OFFSET _IsKeyBeingPressed
	push	edi
	call	_lua_pushcclosure
	push	-10001					; ffffd8efH
	push	edi
	call	_lua_settable
; Line 1143
	push	OFFSET ??_C@_0BD@DLBEMFPM@IsKeyBeingReleased@
	push	edi
	call	_lua_pushstring
	push	0
	push	OFFSET _IsKeyBeingReleased
	push	edi
	call	_lua_pushcclosure
	add	esp, 68					; 00000044H
	push	-10001					; ffffd8efH
	push	edi
	call	_lua_settable
; Line 1144
	push	OFFSET ??_C@_0BB@HFIGDJJG@GetAnyKeyPressed@
	push	edi
	call	_lua_pushstring
	push	0
	push	OFFSET _GetAnyKeyPressed
	push	edi
	call	_lua_pushcclosure
	push	-10001					; ffffd8efH
	push	edi
	call	_lua_settable
; Line 1145
	push	OFFSET ??_C@_0BG@PIEHELBL@GetAnyKeyBeingPressed@
	push	edi
	call	_lua_pushstring
	push	0
	push	OFFSET _GetAnyKeyBeingPressed
	push	edi
	call	_lua_pushcclosure
	push	-10001					; ffffd8efH
	push	edi
	call	_lua_settable
	add	esp, 64					; 00000040H
; Line 1146
	push	OFFSET ??_C@_0BH@PNADDCHD@GetAnyKeyBeingReleased@
	push	edi
	call	_lua_pushstring
	push	0
	push	OFFSET _GetAnyKeyBeingReleased
	push	edi
	call	_lua_pushcclosure
	push	-10001					; ffffd8efH
	push	edi
	call	_lua_settable
; Line 1148
	push	OFFSET ??_C@_0M@GFOAFJML@StartTyping@
	push	edi
	call	_lua_pushstring
	push	0
	push	OFFSET _StartTyping
	push	edi
	call	_lua_pushcclosure
	push	-10001					; ffffd8efH
	push	edi
	call	_lua_settable
; Line 1149
	push	OFFSET ??_C@_0P@IBLCBIHE@IsTypingActive@
	push	edi
	call	_lua_pushstring
	add	esp, 64					; 00000040H
	push	0
	push	OFFSET _IsTypingActive
	push	edi
	call	_lua_pushcclosure
	push	-10001					; ffffd8efH
	push	edi
	call	_lua_settable
; Line 1150
	push	OFFSET ??_C@_0BA@IAHBLJNN@GetTypingString@
	push	edi
	call	_lua_pushstring
	push	0
	push	OFFSET _GetTypingString
	push	edi
	call	_lua_pushcclosure
	push	-10001					; ffffd8efH
	push	edi
	call	_lua_settable
; Line 1151
	push	OFFSET ??_C@_0BB@PNKOAHC@WasTypingAborted@
	push	edi
	call	_lua_pushstring
	push	0
	push	OFFSET _WasTypingAborted
	push	edi
	call	_lua_pushcclosure
	add	esp, 68					; 00000044H
	push	-10001					; ffffd8efH
	push	edi
	call	_lua_settable
; Line 1152
	push	OFFSET ??_C@_0L@IJLCNNJA@StopTyping@
	push	edi
	call	_lua_pushstring
	push	0
	push	OFFSET _StopTyping
	push	edi
	call	_lua_pushcclosure
	push	-10001					; ffffd8efH
	push	edi
	call	_lua_settable
; Line 1154
	push	OFFSET ??_C@_0O@DOPGFECM@GetMouseInput@
	push	edi
	call	_lua_pushstring
	push	0
	push	OFFSET _GetMouseInput
	push	edi
	call	_lua_pushcclosure
	push	-10001					; ffffd8efH
	push	edi
	call	_lua_settable
	add	esp, 64					; 00000040H
; Line 1155
	push	OFFSET ??_C@_0P@NDMPHIBB@GetMouseScroll@
	push	edi
	call	_lua_pushstring
	push	0
	push	OFFSET _GetMouseScroll
	push	edi
	call	_lua_pushcclosure
	push	-10001					; ffffd8efH
	push	edi
	call	_lua_settable
; Line 1156
	push	OFFSET ??_C@_0P@NIKOJONB@IsMousePressed@
	push	edi
	call	_lua_pushstring
	push	0
	push	OFFSET _IsMousePressed
	push	edi
	call	_lua_pushcclosure
	push	-10001					; ffffd8efH
	push	edi
	call	_lua_settable
; Line 1157
	push	OFFSET ??_C@_0BE@OPNPDLAC@IsMouseBeingPressed@
	push	edi
	call	_lua_pushstring
	add	esp, 64					; 00000040H
	push	0
	push	OFFSET _IsMouseBeingPressed
	push	edi
	call	_lua_pushcclosure
	push	-10001					; ffffd8efH
	push	edi
	call	_lua_settable
; Line 1158
	push	OFFSET ??_C@_0BF@JJHPACMD@IsMouseBeingReleased@
	push	edi
	call	_lua_pushstring
	push	0
	push	OFFSET _IsMouseBeingReleased
	push	edi
	call	_lua_pushcclosure
	push	-10001					; ffffd8efH
	push	edi
	call	_lua_settable
	add	esp, 48					; 00000030H
; Line 1160
	test	BYTE PTR [esi+340], 4
	je	SHORT $LN4@dslopen_in
; Line 1161
	push	OFFSET ??_C@_0P@OLIEGPLI@GetStickValue2@
	push	edi
	call	_lua_pushstring
	push	0
	push	OFFSET _GetStickValue2
	push	edi
	call	_lua_pushcclosure
	push	-10001					; ffffd8efH
	push	edi
	call	_lua_settable
; Line 1162
	push	OFFSET ??_C@_0BA@MGLIGIFL@PrintInputDebug@
	push	edi
	call	_lua_pushstring
	push	0
	push	OFFSET _PrintInputDebug
	push	edi
	call	_lua_pushcclosure
	push	-10001					; ffffd8efH
	push	edi
	call	_lua_settable
	add	esp, 56					; 00000038H
$LN4@dslopen_in:
; Line 1165
	pop	edi
	xor	eax, eax
	pop	esi
	ret	0
_dslopen_input ENDP
_TEXT	ENDS
; Function compile flags: /Ogtpy
;	COMDAT _PrintInputDebug
_TEXT	SEGMENT
_lua$ = 8						; size = 4
_PrintInputDebug PROC					; COMDAT
; File C:\Program Files (x86)\Steam\steamapps\common\Bully Scholarship Edition\_derpy_script_loader\src\client\library\lib_input.c
; Line 1112
	push	esi
; Line 1115
	push	1
	push	DWORD PTR _lua$[esp+4]
	call	_getDslState
; Line 1116
	push	80					; 00000050H
	push	OFFSET ??_C@_0BL@MFAHGOMP@sizeof?$CIDIJOYSTATE?$CJ?5?$DN?50x?$CFzX@
	push	0
	mov	esi, DWORD PTR [eax+24]
	push	esi
	call	_printConsoleFormatted
; Line 1117
	push	16					; 00000010H
	push	OFFSET ??_C@_0BN@NKFBNNCH@sizeof?$CIDIMOUSESTATE?$CJ?5?$DN?50x?$CFzX@
	push	0
	push	esi
	call	_printConsoleFormatted
; Line 1118
	push	176					; 000000b0H
	push	OFFSET ??_C@_0BJ@KINGGKA@sizeof?$CIgame_joy?$CJ?5?$DN?50x?$CFzX@
	push	0
	push	esi
	call	_printConsoleFormatted
; Line 1119
	push	448					; 000001c0H
	push	OFFSET ??_C@_0BL@MONHFLIF@sizeof?$CIgame_input?$CJ?5?$DN?50x?$CFzX@
	push	0
	push	esi
	call	_printConsoleFormatted
	add	esp, 72					; 00000048H
; Line 1120
	push	2324					; 00000914H
	push	OFFSET ??_C@_0CA@DLOANBPJ@sizeof?$CIgame_controller?$CJ?5?$DN?50x?$CFzX@
	push	0
	push	esi
	call	_printConsoleFormatted
; Line 1121
	push	324					; 00000144H
	push	OFFSET ??_C@_0CI@KMLLJIHL@offsetof?$CIgame_controller?0input?$CJ@
	push	0
	push	esi
	call	_printConsoleFormatted
; Line 1122
	push	1272					; 000004f8H
	push	OFFSET ??_C@_0CN@JMABKBON@offsetof?$CIgame_controller?0last_i@
	push	0
	push	esi
	call	_printConsoleFormatted
	add	esp, 48					; 00000030H
; Line 1123
	xor	eax, eax
	pop	esi
; Line 1124
	ret	0
_PrintInputDebug ENDP
_TEXT	ENDS
; Function compile flags: /Ogtpy
;	COMDAT _GetStickValue2
_TEXT	SEGMENT
tv377 = -4						; size = 4
_lua$ = 8						; size = 4
_GetStickValue2 PROC					; COMDAT
; File C:\Program Files (x86)\Steam\steamapps\common\Bully Scholarship Edition\_derpy_script_loader\src\client\library\lib_input.c
; Line 1107
	push	ecx
	push	ebx
; Line 1108
	mov	ebx, DWORD PTR _lua$[esp+4]
	push	esi
	push	edi
	push	3
	push	1
	push	ebx
	call	_luaL_checktype
; Line 1109
	push	1
	push	ebx
	call	_lua_tonumber
	push	2
	fstp	DWORD PTR tv377[esp+40]
	cvttss2si edi, DWORD PTR tv377[esp+40]
	push	ebx
	call	_getController
	mov	esi, eax
	add	esp, 28					; 0000001cH
; Line 684
	cmp	BYTE PTR [esi], 0
	je	SHORT $LN4@GetStickVa
	cmp	edi, 16					; 00000010H
	jge	SHORT $LN33@GetStickVa
; Line 685
	movsx	eax, WORD PTR [esi+488]
	test	DWORD PTR [edi*4+10569744], eax
	jne	SHORT $LN34@GetStickVa
	xorps	xmm2, xmm2
	jmp	SHORT $LN10@GetStickVa
$LN4@GetStickVa:
; Line 686
	cmp	edi, 16					; 00000010H
	jl	SHORT $LN6@GetStickVa
$LN33@GetStickVa:
	cmp	edi, 24					; 00000018H
	je	SHORT $LN6@GetStickVa
; Line 688
	movss	xmm2, DWORD PTR [esi+edi*4+324]
	jmp	SHORT $LN10@GetStickVa
$LN6@GetStickVa:
; Line 687
	push	0
	mov	eax, 4541648				; 00454cd0H
	xor	edx, edx
	mov	ecx, 10569744				; 00a14810H
	call	eax
	xorps	xmm2, xmm2
	mov	eax, DWORD PTR [eax+edi*4]
; Line 647
	lea	ecx, DWORD PTR [eax-256]
	cmp	ecx, 9
	ja	SHORT $LN13@GetStickVa
	jmp	DWORD PTR $LN35@GetStickVa[ecx*4]
$LN15@GetStickVa:
; Line 649
	cmp	BYTE PTR [esi+512], 0
	jne	SHORT $LN34@GetStickVa
$LN13@GetStickVa:
; Line 677
	cmp	eax, 256				; 00000100H
	jge	SHORT $LN10@GetStickVa
; Line 678
	cmp	BYTE PTR [eax+esi+516], 0
	jge	SHORT $LN10@GetStickVa
$LN34@GetStickVa:
; Line 1109
	movss	xmm2, DWORD PTR __real@3f800000
$LN10@GetStickVa:
	push	ecx
	movss	DWORD PTR [esp], xmm2
	push	ebx
	call	_lua_pushnumber
	add	esp, 8
; Line 1110
	mov	eax, 1
	pop	edi
	pop	esi
	pop	ebx
; Line 1111
	pop	ecx
	ret	0
$LN17@GetStickVa:
; Line 653
	cmp	BYTE PTR [esi+513], 0
	je	SHORT $LN13@GetStickVa
; Line 654
	jmp	SHORT $LN34@GetStickVa
$LN19@GetStickVa:
; Line 657
	cmp	BYTE PTR [esi+514], 0
	je	SHORT $LN13@GetStickVa
; Line 658
	jmp	SHORT $LN34@GetStickVa
$LN21@GetStickVa:
; Line 661
	cmp	BYTE PTR [esi+515], 0
	je	SHORT $LN13@GetStickVa
; Line 662
	jmp	SHORT $LN34@GetStickVa
$LN23@GetStickVa:
	movd	xmm0, DWORD PTR [esi+508]
; Line 665
	cvtdq2ps xmm0, xmm0
	jmp	SHORT $LN12@GetStickVa
$LN24@GetStickVa:
; Line 667
	mov	eax, DWORD PTR [esi+508]
	neg	eax
	movd	xmm0, eax
	cvtdq2ps xmm0, xmm0
	jmp	SHORT $LN12@GetStickVa
$LN25@GetStickVa:
; Line 669
	mov	eax, DWORD PTR [esi+504]
	neg	eax
	movd	xmm0, eax
	jmp	SHORT $LN36@GetStickVa
$LN26@GetStickVa:
	movd	xmm0, DWORD PTR [esi+504]
; Line 671
	jmp	SHORT $LN36@GetStickVa
$LN27@GetStickVa:
; Line 673
	mov	eax, DWORD PTR [esi+500]
	neg	eax
	movd	xmm0, eax
	jmp	SHORT $LN36@GetStickVa
$LN28@GetStickVa:
	movd	xmm0, DWORD PTR [esi+500]
$LN36@GetStickVa:
; Line 687
	movss	xmm1, DWORD PTR ds:10570012
	cvtps2pd xmm1, xmm1
	cvtdq2pd xmm0, xmm0
	mulsd	xmm1, QWORD PTR __real@3f80000000000000
	mulsd	xmm1, xmm0
	cvtpd2ps xmm0, xmm1
$LN12@GetStickVa:
	comiss	xmm0, xmm2
	jbe	$LN10@GetStickVa
	jmp	$LN34@GetStickVa
	npad	2
$LN35@GetStickVa:
; Line 1111
	DD	$LN15@GetStickVa
	DD	$LN17@GetStickVa
	DD	$LN19@GetStickVa
	DD	$LN21@GetStickVa
	DD	$LN23@GetStickVa
	DD	$LN24@GetStickVa
	DD	$LN25@GetStickVa
	DD	$LN26@GetStickVa
	DD	$LN27@GetStickVa
	DD	$LN28@GetStickVa
_GetStickValue2 ENDP
_TEXT	ENDS
; Function compile flags: /Ogtpy
;	COMDAT _IsMouseBeingReleased
_TEXT	SEGMENT
tv174 = -4						; size = 4
_lua$ = 8						; size = 4
_IsMouseBeingReleased PROC				; COMDAT
; File C:\Program Files (x86)\Steam\steamapps\common\Bully Scholarship Edition\_derpy_script_loader\src\client\library\lib_input.c
; Line 1093
	push	ecx
	push	esi
; Line 1097
	mov	esi, DWORD PTR _lua$[esp+4]
	push	edi
	push	3
	push	1
	push	esi
	call	_luaL_checktype
; Line 1098
	push	1
	push	esi
	call	_lua_tonumber
	fstp	DWORD PTR tv174[esp+32]
	cvttss2si edi, DWORD PTR tv174[esp+32]
	add	esp, 20					; 00000014H
; Line 1099
	test	edi, edi
	js	SHORT $LN3@IsMouseBei
	cmp	edi, 3
	jle	SHORT $LN2@IsMouseBei
$LN3@IsMouseBei:
; Line 1100
	push	OFFSET ??_C@_0BF@MCMAAGIF@invalid?5mouse?5button@
	push	1
	push	esi
	call	_luaL_argerror
	add	esp, 12					; 0000000cH
$LN2@IsMouseBei:
; Line 1101
	push	1
	push	esi
	call	_getDslState
	add	esp, 8
; Line 1102
	movzx	ecx, BYTE PTR [eax+edi+312]
	not	ecx
	test	cl, cl
	jns	SHORT $LN5@IsMouseBei
	cmp	BYTE PTR [eax+edi+328], 0
	jge	SHORT $LN5@IsMouseBei
	mov	eax, 1
	push	eax
	push	esi
	call	_lua_pushboolean
	add	esp, 8
; Line 1103
	mov	eax, 1
	pop	edi
	pop	esi
; Line 1104
	pop	ecx
	ret	0
$LN5@IsMouseBei:
; Line 1102
	xor	eax, eax
	push	eax
	push	esi
	call	_lua_pushboolean
	add	esp, 8
; Line 1103
	mov	eax, 1
	pop	edi
	pop	esi
; Line 1104
	pop	ecx
	ret	0
_IsMouseBeingReleased ENDP
_TEXT	ENDS
; Function compile flags: /Ogtpy
;	COMDAT _IsMouseBeingPressed
_TEXT	SEGMENT
tv174 = -4						; size = 4
_lua$ = 8						; size = 4
_IsMouseBeingPressed PROC				; COMDAT
; File C:\Program Files (x86)\Steam\steamapps\common\Bully Scholarship Edition\_derpy_script_loader\src\client\library\lib_input.c
; Line 1081
	push	ecx
	push	esi
; Line 1085
	mov	esi, DWORD PTR _lua$[esp+4]
	push	edi
	push	3
	push	1
	push	esi
	call	_luaL_checktype
; Line 1086
	push	1
	push	esi
	call	_lua_tonumber
	fstp	DWORD PTR tv174[esp+32]
	cvttss2si edi, DWORD PTR tv174[esp+32]
	add	esp, 20					; 00000014H
; Line 1087
	test	edi, edi
	js	SHORT $LN3@IsMouseBei
	cmp	edi, 3
	jle	SHORT $LN2@IsMouseBei
$LN3@IsMouseBei:
; Line 1088
	push	OFFSET ??_C@_0BF@MCMAAGIF@invalid?5mouse?5button@
	push	1
	push	esi
	call	_luaL_argerror
	add	esp, 12					; 0000000cH
$LN2@IsMouseBei:
; Line 1089
	push	1
	push	esi
	call	_getDslState
	add	esp, 8
; Line 1090
	cmp	BYTE PTR [eax+edi+312], 0
	jge	SHORT $LN5@IsMouseBei
	movzx	eax, BYTE PTR [eax+edi+328]
	not	eax
	test	al, al
	jns	SHORT $LN5@IsMouseBei
	mov	eax, 1
	push	eax
	push	esi
	call	_lua_pushboolean
	add	esp, 8
; Line 1091
	mov	eax, 1
	pop	edi
	pop	esi
; Line 1092
	pop	ecx
	ret	0
$LN5@IsMouseBei:
; Line 1090
	xor	eax, eax
	push	eax
	push	esi
	call	_lua_pushboolean
	add	esp, 8
; Line 1091
	mov	eax, 1
	pop	edi
	pop	esi
; Line 1092
	pop	ecx
	ret	0
_IsMouseBeingPressed ENDP
_TEXT	ENDS
; Function compile flags: /Ogtpy
;	COMDAT _IsMousePressed
_TEXT	SEGMENT
tv95 = -4						; size = 4
_lua$ = 8						; size = 4
_IsMousePressed PROC					; COMDAT
; File C:\Program Files (x86)\Steam\steamapps\common\Bully Scholarship Edition\_derpy_script_loader\src\client\library\lib_input.c
; Line 1071
	push	ecx
	push	esi
; Line 1074
	mov	esi, DWORD PTR _lua$[esp+4]
	push	edi
	push	3
	push	1
	push	esi
	call	_luaL_checktype
; Line 1075
	push	1
	push	esi
	call	_lua_tonumber
	fstp	DWORD PTR tv95[esp+32]
	cvttss2si edi, DWORD PTR tv95[esp+32]
	add	esp, 20					; 00000014H
; Line 1076
	test	edi, edi
	js	SHORT $LN3@IsMousePre
	cmp	edi, 3
	jle	SHORT $LN2@IsMousePre
$LN3@IsMousePre:
; Line 1077
	push	OFFSET ??_C@_0BF@MCMAAGIF@invalid?5mouse?5button@
	push	1
	push	esi
	call	_luaL_argerror
	add	esp, 12					; 0000000cH
$LN2@IsMousePre:
; Line 1078
	push	1
	push	esi
	call	_getDslState
	movzx	eax, BYTE PTR [eax+edi+312]
	and	eax, 128				; 00000080H
	push	eax
	push	esi
	call	_lua_pushboolean
	add	esp, 16					; 00000010H
; Line 1079
	mov	eax, 1
	pop	edi
	pop	esi
; Line 1080
	pop	ecx
	ret	0
_IsMousePressed ENDP
_TEXT	ENDS
; Function compile flags: /Ogtpy
;	COMDAT _GetMouseScroll
_TEXT	SEGMENT
_lua$ = 8						; size = 4
_GetMouseScroll PROC					; COMDAT
; File C:\Program Files (x86)\Steam\steamapps\common\Bully Scholarship Edition\_derpy_script_loader\src\client\library\lib_input.c
; Line 1068
	push	1
	push	DWORD PTR _lua$[esp]
	call	_getDslState
	add	esp, 4
	movd	xmm0, DWORD PTR [eax+308]
	cvtdq2ps xmm0, xmm0
	movss	DWORD PTR [esp], xmm0
	push	DWORD PTR _lua$[esp]
	call	_lua_pushnumber
	add	esp, 8
; Line 1069
	mov	eax, 1
; Line 1070
	ret	0
_GetMouseScroll ENDP
_TEXT	ENDS
; Function compile flags: /Ogtpy
;	COMDAT _GetMouseInput
_TEXT	SEGMENT
_lua$ = 8						; size = 4
_GetMouseInput PROC					; COMDAT
; File C:\Program Files (x86)\Steam\steamapps\common\Bully Scholarship Edition\_derpy_script_loader\src\client\library\lib_input.c
; Line 1059
	push	esi
	push	edi
; Line 1062
	mov	edi, DWORD PTR _lua$[esp+4]
	push	1
	push	edi
	call	_getDslState
	mov	esi, eax
; Line 1063
	add	esp, 4
	movd	xmm0, DWORD PTR [esi+300]
	cvtdq2ps xmm0, xmm0
	movss	DWORD PTR [esp], xmm0
	push	edi
	call	_lua_pushnumber
	movd	xmm0, DWORD PTR [esi+304]
; Line 1064
	add	esp, 4
	cvtdq2ps xmm0, xmm0
	movss	DWORD PTR [esp], xmm0
	push	edi
	call	_lua_pushnumber
	add	esp, 8
; Line 1065
	mov	eax, 2
	pop	edi
	pop	esi
; Line 1066
	ret	0
_GetMouseInput ENDP
_TEXT	ENDS
; Function compile flags: /Ogtpy
;	COMDAT _StopTyping
_TEXT	SEGMENT
_lua$ = 8						; size = 4
_StopTyping PROC					; COMDAT
; File C:\Program Files (x86)\Steam\steamapps\common\Bully Scholarship Edition\_derpy_script_loader\src\client\library\lib_input.c
; Line 1047
	push	esi
; Line 1050
	mov	esi, DWORD PTR _lua$[esp]
	push	OFFSET ??_C@_09CECBMBFC@dsl_input@
	push	esi
	call	_lua_pushstring
; Line 1051
	push	-10000					; ffffd8f0H
	push	esi
	call	_lua_rawget
; Line 1052
	push	-1
	push	esi
	call	_lua_touserdata
	add	esp, 24					; 00000018H
	pop	esi
; Line 1053
	test	eax, eax
	je	SHORT $LN4@StopTyping
; Line 1054
	mov	DWORD PTR [eax], 1
$LN4@StopTyping:
; Line 1056
	xor	eax, eax
	ret	0
_StopTyping ENDP
_TEXT	ENDS
; Function compile flags: /Ogtpy
;	COMDAT _WasTypingAborted
_TEXT	SEGMENT
_lua$ = 8						; size = 4
_WasTypingAborted PROC					; COMDAT
; File C:\Program Files (x86)\Steam\steamapps\common\Bully Scholarship Edition\_derpy_script_loader\src\client\library\lib_input.c
; Line 1038
	push	esi
; Line 1041
	mov	esi, DWORD PTR _lua$[esp]
	push	OFFSET ??_C@_09CECBMBFC@dsl_input@
	push	esi
	call	_lua_pushstring
; Line 1042
	push	-10000					; ffffd8f0H
	push	esi
	call	_lua_rawget
; Line 1043
	push	-1
	push	esi
	call	_lua_touserdata
	add	esp, 24					; 00000018H
; Line 1044
	test	eax, eax
	je	SHORT $LN3@WasTypingA
	cmp	DWORD PTR [eax], 1
	jne	SHORT $LN3@WasTypingA
	mov	eax, 1
	push	eax
	push	esi
	call	_lua_pushboolean
	add	esp, 8
; Line 1045
	mov	eax, 1
	pop	esi
; Line 1046
	ret	0
$LN3@WasTypingA:
; Line 1044
	xor	eax, eax
	push	eax
	push	esi
	call	_lua_pushboolean
	add	esp, 8
; Line 1045
	mov	eax, 1
	pop	esi
; Line 1046
	ret	0
_WasTypingAborted ENDP
_TEXT	ENDS
; Function compile flags: /Ogtpy
;	COMDAT _GetTypingString
_TEXT	SEGMENT
_lua$ = 8						; size = 4
_GetTypingString PROC					; COMDAT
; File C:\Program Files (x86)\Steam\steamapps\common\Bully Scholarship Edition\_derpy_script_loader\src\client\library\lib_input.c
; Line 1024
	push	esi
; Line 1027
	mov	esi, DWORD PTR _lua$[esp]
	push	OFFSET ??_C@_09CECBMBFC@dsl_input@
	push	esi
	call	_lua_pushstring
; Line 1028
	push	-10000					; ffffd8f0H
	push	esi
	call	_lua_rawget
; Line 1029
	push	-1
	push	esi
	call	_lua_touserdata
	add	esp, 24					; 00000018H
	test	eax, eax
	je	SHORT $LN2@GetTypingS
; Line 1030
	mov	ecx, DWORD PTR [eax+12]
	test	ecx, ecx
	je	SHORT $LN3@GetTypingS
; Line 1031
	push	DWORD PTR [eax+4]
	push	ecx
	push	esi
	call	_lua_pushlstring
	add	esp, 12					; 0000000cH
; Line 1034
	mov	eax, 1
	pop	esi
; Line 1037
	ret	0
$LN3@GetTypingS:
; Line 1033
	push	OFFSET ??_C@_00CNPNBAHC@@
	push	esi
	call	_lua_pushstring
	add	esp, 8
; Line 1034
	mov	eax, 1
	pop	esi
; Line 1037
	ret	0
$LN2@GetTypingS:
; Line 1036
	xor	eax, eax
	pop	esi
; Line 1037
	ret	0
_GetTypingString ENDP
_TEXT	ENDS
; Function compile flags: /Ogtpy
;	COMDAT _IsTypingActive
_TEXT	SEGMENT
_lua$ = 8						; size = 4
_IsTypingActive PROC					; COMDAT
; File C:\Program Files (x86)\Steam\steamapps\common\Bully Scholarship Edition\_derpy_script_loader\src\client\library\lib_input.c
; Line 1015
	push	esi
; Line 1018
	mov	esi, DWORD PTR _lua$[esp]
	push	OFFSET ??_C@_09CECBMBFC@dsl_input@
	push	esi
	call	_lua_pushstring
; Line 1019
	push	-10000					; ffffd8f0H
	push	esi
	call	_lua_rawget
; Line 1020
	push	-1
	push	esi
	call	_lua_touserdata
	add	esp, 24					; 00000018H
; Line 1021
	test	eax, eax
	je	SHORT $LN3@IsTypingAc
	cmp	DWORD PTR [eax], 0
	jne	SHORT $LN3@IsTypingAc
	mov	eax, 1
	push	eax
	push	esi
	call	_lua_pushboolean
	add	esp, 8
; Line 1022
	mov	eax, 1
	pop	esi
; Line 1023
	ret	0
$LN3@IsTypingAc:
; Line 1021
	xor	eax, eax
	push	eax
	push	esi
	call	_lua_pushboolean
	add	esp, 8
; Line 1022
	mov	eax, 1
	pop	esi
; Line 1023
	ret	0
_IsTypingActive ENDP
_TEXT	ENDS
; Function compile flags: /Ogtpy
;	COMDAT _StartTyping
_TEXT	SEGMENT
_lua$ = 8						; size = 4
_StartTyping PROC					; COMDAT
; File C:\Program Files (x86)\Steam\steamapps\common\Bully Scholarship Edition\_derpy_script_loader\src\client\library\lib_input.c
; Line 981
	push	ebx
	push	esi
; Line 985
	mov	esi, DWORD PTR _lua$[esp+4]
	push	esi
	call	_lua_gettop
	add	esp, 4
	cmp	eax, 1
	jl	SHORT $LN2@StartTypin
; Line 986
	push	4
	push	1
	push	esi
	call	_luaL_checktype
; Line 987
	push	1
	push	esi
	call	_lua_tostring
	add	esp, 20					; 00000014H
	mov	ebx, eax
; Line 988
	jmp	SHORT $LN3@StartTypin
$LN2@StartTypin:
; Line 989
	xor	ebx, ebx
$LN3@StartTypin:
; Line 990
	push	OFFSET ??_C@_09CECBMBFC@dsl_input@
	push	esi
	call	_lua_pushstring
; Line 991
	push	-10000					; ffffd8f0H
	push	esi
	call	_lua_rawget
; Line 992
	push	-1
	push	esi
	call	_lua_touserdata
	add	esp, 24					; 00000018H
; Line 993
	test	eax, eax
	je	SHORT $LN4@StartTypin
	cmp	DWORD PTR [eax], 0
	jne	SHORT $LN4@StartTypin
; Line 994
	push	0
	push	esi
	call	_lua_pushboolean
	add	esp, 8
; Line 1014
	mov	eax, 1
	pop	esi
	pop	ebx
	ret	0
$LN4@StartTypin:
	push	edi
; Line 997
	push	-2					; fffffffeH
	push	esi
	call	_lua_settop
; Line 998
	push	OFFSET ??_C@_09CECBMBFC@dsl_input@
	push	esi
	call	_lua_pushstring
; Line 999
	push	16					; 00000010H
	push	esi
	call	_lua_newuserdata
	mov	edi, eax
	xorps	xmm0, xmm0
; Line 1001
	push	esi
	movups	XMMWORD PTR [edi], xmm0
	call	_lua_newtable
; Line 1002
	push	OFFSET ??_C@_04BDLIKKMN@__gc@
	push	esi
	call	_lua_pushstring
; Line 1003
	push	0
	push	OFFSET _freeTyping
	push	esi
	call	_lua_pushcclosure
; Line 1004
	push	-3					; fffffffdH
	push	esi
	call	_lua_rawset
; Line 1005
	push	-2					; fffffffeH
	push	esi
	call	_lua_setmetatable
	add	esp, 64					; 00000040H
; Line 1006
	test	ebx, ebx
	je	SHORT $LN5@StartTypin
	push	1024					; 00000400H
	call	_malloc
	add	esp, 4
	mov	DWORD PTR [edi+12], eax
	test	eax, eax
	je	SHORT $LN5@StartTypin
; Line 1008
	push	1024					; 00000400H
	push	ebx
	push	eax
	mov	DWORD PTR [edi+8], 1024			; 00000400H
	call	_strncpy
; Line 1009
	mov	ecx, DWORD PTR [edi+12]
	add	esp, 12					; 0000000cH
	lea	edx, DWORD PTR [ecx+1]
$LL7@StartTypin:
	mov	al, BYTE PTR [ecx]
	inc	ecx
	test	al, al
	jne	SHORT $LL7@StartTypin
	sub	ecx, edx
	mov	DWORD PTR [edi+4], ecx
$LN5@StartTypin:
; Line 1011
	push	-10000					; ffffd8f0H
	push	esi
	call	_lua_rawset
; Line 1012
	push	1
	push	esi
	call	_lua_pushboolean
	add	esp, 16					; 00000010H
; Line 1014
	mov	eax, 1
	pop	edi
	pop	esi
	pop	ebx
	ret	0
_StartTyping ENDP
_TEXT	ENDS
; Function compile flags: /Ogtpy
;	COMDAT _freeTyping
_TEXT	SEGMENT
_lua$ = 8						; size = 4
_freeTyping PROC					; COMDAT
; File C:\Program Files (x86)\Steam\steamapps\common\Bully Scholarship Edition\_derpy_script_loader\src\client\library\lib_input.c
; Line 976
	push	1
	push	DWORD PTR _lua$[esp]
	call	_lua_touserdata
	add	esp, 8
; Line 977
	mov	eax, DWORD PTR [eax+12]
	test	eax, eax
	je	SHORT $LN4@freeTyping
; Line 978
	push	eax
	call	_free
	add	esp, 4
$LN4@freeTyping:
; Line 980
	xor	eax, eax
	ret	0
_freeTyping ENDP
_TEXT	ENDS
; Function compile flags: /Ogtpy
;	COMDAT _keyDown
_TEXT	SEGMENT
_lua$ = 8						; size = 4
_arg$ = 12						; size = 4
_key$ = 16						; size = 4
_keyDown PROC						; COMDAT
; File C:\Program Files (x86)\Steam\steamapps\common\Bully Scholarship Edition\_derpy_script_loader\src\client\library\lib_input.c
; Line 962
	push	esi
; Line 965
	mov	esi, DWORD PTR _lua$[esp]
	push	edi
	push	OFFSET ??_C@_09CECBMBFC@dsl_input@
	push	esi
	call	_lua_pushstring
; Line 966
	push	-10000					; ffffd8f0H
	push	esi
	call	_lua_rawget
; Line 967
	push	-1
	push	esi
	call	_lua_touserdata
; Line 968
	push	-2					; fffffffeH
	push	esi
	mov	edi, eax
	call	_lua_settop
	add	esp, 32					; 00000020H
; Line 969
	test	edi, edi
	je	SHORT $LN4@keyDown
	cmp	DWORD PTR [edi], 0
	jne	SHORT $LN4@keyDown
; Line 970
	push	DWORD PTR _key$[esp+4]
	push	edi
	call	_processKeystroke
	add	esp, 8
$LN4@keyDown:
; Line 972
	pop	edi
	xor	eax, eax
	pop	esi
	ret	0
_keyDown ENDP
_TEXT	ENDS
; Function compile flags: /Ogtpy
;	COMDAT _processKeystroke
_TEXT	SEGMENT
_keyboard$ = -260					; size = 256
__$ArrayPad$ = -4					; size = 4
_data$ = 8						; size = 4
_key$ = 12						; size = 4
_processKeystroke PROC					; COMDAT
; File C:\Program Files (x86)\Steam\steamapps\common\Bully Scholarship Edition\_derpy_script_loader\src\client\library\lib_input.c
; Line 940
	sub	esp, 260				; 00000104H
	mov	eax, DWORD PTR ___security_cookie
	xor	eax, esp
	mov	DWORD PTR __$ArrayPad$[esp+260], eax
	push	esi
	mov	esi, DWORD PTR _data$[esp+260]
	push	edi
; Line 943
	push	1
	push	DWORD PTR _key$[esp+268]
	call	DWORD PTR __imp__MapVirtualKeyA@8
	mov	edi, eax
; Line 944
	test	edi, edi
	je	$LN3@processKey
	lea	eax, DWORD PTR _keyboard$[esp+268]
	push	eax
	call	DWORD PTR __imp__GetKeyboardState@4
	test	eax, eax
	je	$LN3@processKey
; Line 946
	cmp	edi, 13					; 0000000dH
	jne	SHORT $LN4@processKey
; Line 947
	pop	edi
	mov	DWORD PTR [esi], 2
; Line 961
	pop	esi
	mov	ecx, DWORD PTR __$ArrayPad$[esp+260]
	xor	ecx, esp
	call	@__security_check_cookie@4
	add	esp, 260				; 00000104H
	ret	0
$LN4@processKey:
; Line 948
	cmp	edi, 27					; 0000001bH
	jne	SHORT $LN6@processKey
; Line 949
	pop	edi
	mov	DWORD PTR [esi], 1
; Line 961
	pop	esi
	mov	ecx, DWORD PTR __$ArrayPad$[esp+260]
	xor	ecx, esp
	call	@__security_check_cookie@4
	add	esp, 260				; 00000104H
	ret	0
$LN6@processKey:
; Line 950
	cmp	edi, 8
	jne	SHORT $LN8@processKey
; Line 951
	mov	eax, DWORD PTR [esi+4]
	test	eax, eax
	je	$LN3@processKey
; Line 952
	dec	eax
	pop	edi
	mov	DWORD PTR [esi+4], eax
; Line 961
	pop	esi
	mov	ecx, DWORD PTR __$ArrayPad$[esp+260]
	xor	ecx, esp
	call	@__security_check_cookie@4
	add	esp, 260				; 00000104H
	ret	0
$LN8@processKey:
; Line 953
	cmp	edi, 86					; 00000056H
	jne	$LN11@processKey
	test	BYTE PTR _keyboard$[esp+285], 128	; 00000080H
	je	$LN11@processKey
; Line 954
	push	0
	call	DWORD PTR __imp__OpenClipboard@4
	test	eax, eax
	je	$LN3@processKey
; Line 955
	push	esi
	call	_checkBuffer
	add	esp, 4
	test	eax, eax
	je	$LN21@processKey
; Line 956
	push	ebx
	push	1
	call	DWORD PTR __imp__GetClipboardData@4
	mov	ebx, eax
; Line 928
	xor	edi, edi
; Line 929
	movsx	ecx, BYTE PTR [ebx]
	push	ecx
	call	_isprint
	add	esp, 4
	test	eax, eax
	je	SHORT $LN19@processKey
	npad	6
$LL18@processKey:
	movsx	eax, BYTE PTR [edi+ebx+1]
; Line 930
	inc	edi
	push	eax
	call	_isprint
	add	esp, 4
	test	eax, eax
	jne	SHORT $LL18@processKey
$LN19@processKey:
; Line 931
	mov	edx, DWORD PTR [esi+8]
	mov	ecx, DWORD PTR [esi+12]
	sub	edx, DWORD PTR [esi+4]
	add	ecx, DWORD PTR [esi+4]
; Line 932
	cmp	edi, edx
	jae	SHORT $LN20@processKey
; Line 933
	push	edi
	push	ebx
	push	ecx
	call	_memcpy
; Line 934
	add	DWORD PTR [esi+4], edi
	add	esp, 12					; 0000000cH
	pop	ebx
; Line 957
	call	DWORD PTR __imp__CloseClipboard@0
	pop	edi
; Line 961
	pop	esi
	mov	ecx, DWORD PTR __$ArrayPad$[esp+260]
	xor	ecx, esp
	call	@__security_check_cookie@4
	add	esp, 260				; 00000104H
	ret	0
$LN20@processKey:
; Line 936
	push	edx
	push	ebx
	push	ecx
	call	_memcpy
; Line 937
	mov	eax, DWORD PTR [esi+8]
	add	esp, 12					; 0000000cH
	mov	DWORD PTR [esi+4], eax
	pop	ebx
$LN21@processKey:
; Line 957
	call	DWORD PTR __imp__CloseClipboard@0
	pop	edi
; Line 961
	pop	esi
	mov	ecx, DWORD PTR __$ArrayPad$[esp+260]
	xor	ecx, esp
	call	@__security_check_cookie@4
	add	esp, 260				; 00000104H
	ret	0
$LN11@processKey:
; Line 959
	push	0
	lea	eax, DWORD PTR _keyboard$[esp+272]
	push	eax
	push	eax
	push	0
	push	edi
	call	DWORD PTR __imp__ToAscii@20
	cmp	eax, 1
	jne	SHORT $LN3@processKey
	movsx	eax, BYTE PTR _keyboard$[esp+268]
	push	eax
	call	_isprint
	add	esp, 4
	test	eax, eax
	je	SHORT $LN3@processKey
	push	esi
	call	_checkBuffer
	add	esp, 4
	test	eax, eax
	je	SHORT $LN3@processKey
; Line 960
	mov	ecx, DWORD PTR [esi+4]
	mov	edx, DWORD PTR [esi+12]
	mov	al, BYTE PTR _keyboard$[esp+268]
	mov	BYTE PTR [edx+ecx], al
	inc	DWORD PTR [esi+4]
$LN3@processKey:
; Line 961
	mov	ecx, DWORD PTR __$ArrayPad$[esp+268]
	pop	edi
	pop	esi
	xor	ecx, esp
	call	@__security_check_cookie@4
	add	esp, 260				; 00000104H
	ret	0
_processKeystroke ENDP
_TEXT	ENDS
; Function compile flags: /Ogtpy
;	COMDAT _pasteClipboard
_TEXT	SEGMENT
_data$ = 8						; size = 4
_clipboard$ = 12					; size = 4
_pasteClipboard PROC					; COMDAT
; File C:\Program Files (x86)\Steam\steamapps\common\Bully Scholarship Edition\_derpy_script_loader\src\client\library\lib_input.c
; Line 924
	push	ebx
	push	esi
	push	edi
; Line 929
	mov	edi, DWORD PTR _clipboard$[esp+8]
	xor	esi, esi
	movsx	eax, BYTE PTR [edi]
	push	eax
	call	_isprint
	add	esp, 4
	test	eax, eax
	je	SHORT $LN3@pasteClipb
	npad	7
$LL2@pasteClipb:
	movsx	eax, BYTE PTR [esi+edi+1]
; Line 930
	inc	esi
	push	eax
	call	_isprint
	add	esp, 4
	test	eax, eax
	jne	SHORT $LL2@pasteClipb
$LN3@pasteClipb:
; Line 931
	mov	ebx, DWORD PTR _data$[esp+8]
	mov	edx, DWORD PTR [ebx+8]
	mov	ecx, DWORD PTR [ebx+12]
	sub	edx, DWORD PTR [ebx+4]
	add	ecx, DWORD PTR [ebx+4]
; Line 932
	cmp	esi, edx
	jae	SHORT $LN4@pasteClipb
; Line 933
	push	esi
	push	edi
	push	ecx
	call	_memcpy
	add	esp, 12					; 0000000cH
; Line 934
	add	DWORD PTR [ebx+4], esi
	pop	edi
; Line 939
	pop	esi
	pop	ebx
	ret	0
$LN4@pasteClipb:
; Line 936
	push	edx
	push	edi
	push	ecx
	call	_memcpy
; Line 937
	mov	eax, DWORD PTR [ebx+8]
	add	esp, 12					; 0000000cH
	mov	DWORD PTR [ebx+4], eax
	pop	edi
; Line 939
	pop	esi
	pop	ebx
	ret	0
_pasteClipboard ENDP
_TEXT	ENDS
; Function compile flags: /Ogtpy
;	COMDAT _checkBuffer
_TEXT	SEGMENT
_data$ = 8						; size = 4
_checkBuffer PROC					; COMDAT
; File C:\Program Files (x86)\Steam\steamapps\common\Bully Scholarship Edition\_derpy_script_loader\src\client\library\lib_input.c
; Line 916
	push	esi
; Line 917
	mov	esi, DWORD PTR _data$[esp]
	mov	eax, DWORD PTR [esi+4]
	cmp	eax, DWORD PTR [esi+8]
	jne	SHORT $LN2@checkBuffe
; Line 918
	cmp	DWORD PTR [esi+12], 0
	jne	SHORT $LN4@checkBuffe
	push	1024					; 00000400H
	call	_malloc
	add	esp, 4
	mov	DWORD PTR [esi+12], eax
	test	eax, eax
	je	SHORT $LN4@checkBuffe
; Line 920
	mov	DWORD PTR [esi+8], 1024			; 00000400H
$LN2@checkBuffe:
; Line 922
	mov	eax, 1
	pop	esi
; Line 923
	ret	0
$LN4@checkBuffe:
; Line 919
	xor	eax, eax
	pop	esi
; Line 923
	ret	0
_checkBuffer ENDP
_TEXT	ENDS
; Function compile flags: /Ogtpy
;	COMDAT _GetAnyKeyBeingReleased
_TEXT	SEGMENT
_lua$ = 8						; size = 4
_GetAnyKeyBeingReleased PROC				; COMDAT
; File C:\Program Files (x86)\Steam\steamapps\common\Bully Scholarship Edition\_derpy_script_loader\src\client\library\lib_input.c
; Line 906
	push	1
	push	DWORD PTR _lua$[esp]
	call	_getDslState
	add	esp, 8
; Line 907
	xor	ecx, ecx
$LL4@GetAnyKeyB:
; Line 908
	cmp	BYTE PTR [ecx+eax+44], 2
	je	SHORT $LN8@GetAnyKeyB
; Line 907
	inc	ecx
	cmp	ecx, 256				; 00000100H
	jl	SHORT $LL4@GetAnyKeyB
; Line 912
	xor	eax, eax
; Line 913
	ret	0
$LN8@GetAnyKeyB:
	movd	xmm0, ecx
; Line 909
	cvtdq2ps xmm0, xmm0
	push	ecx
	movss	DWORD PTR [esp], xmm0
	push	DWORD PTR _lua$[esp]
	call	_lua_pushnumber
	add	esp, 8
; Line 910
	mov	eax, 1
; Line 913
	ret	0
_GetAnyKeyBeingReleased ENDP
_TEXT	ENDS
; Function compile flags: /Ogtpy
;	COMDAT _GetAnyKeyBeingPressed
_TEXT	SEGMENT
_lua$ = 8						; size = 4
_GetAnyKeyBeingPressed PROC				; COMDAT
; File C:\Program Files (x86)\Steam\steamapps\common\Bully Scholarship Edition\_derpy_script_loader\src\client\library\lib_input.c
; Line 894
	push	1
	push	DWORD PTR _lua$[esp]
	call	_getDslState
	add	esp, 8
; Line 895
	xor	ecx, ecx
$LL4@GetAnyKeyB:
; Line 896
	cmp	BYTE PTR [ecx+eax+44], 3
	je	SHORT $LN8@GetAnyKeyB
; Line 895
	inc	ecx
	cmp	ecx, 256				; 00000100H
	jl	SHORT $LL4@GetAnyKeyB
; Line 900
	xor	eax, eax
; Line 901
	ret	0
$LN8@GetAnyKeyB:
	movd	xmm0, ecx
; Line 897
	cvtdq2ps xmm0, xmm0
	push	ecx
	movss	DWORD PTR [esp], xmm0
	push	DWORD PTR _lua$[esp]
	call	_lua_pushnumber
	add	esp, 8
; Line 898
	mov	eax, 1
; Line 901
	ret	0
_GetAnyKeyBeingPressed ENDP
_TEXT	ENDS
; Function compile flags: /Ogtpy
;	COMDAT _GetAnyKeyPressed
_TEXT	SEGMENT
_lua$ = 8						; size = 4
_GetAnyKeyPressed PROC					; COMDAT
; File C:\Program Files (x86)\Steam\steamapps\common\Bully Scholarship Edition\_derpy_script_loader\src\client\library\lib_input.c
; Line 882
	push	1
	push	DWORD PTR _lua$[esp]
	call	_getDslState
	add	esp, 8
; Line 883
	xor	ecx, ecx
$LL4@GetAnyKeyP:
; Line 884
	test	BYTE PTR [ecx+eax+44], 1
	jne	SHORT $LN8@GetAnyKeyP
; Line 883
	inc	ecx
	cmp	ecx, 256				; 00000100H
	jl	SHORT $LL4@GetAnyKeyP
; Line 888
	xor	eax, eax
; Line 889
	ret	0
$LN8@GetAnyKeyP:
	movd	xmm0, ecx
; Line 885
	cvtdq2ps xmm0, xmm0
	push	ecx
	movss	DWORD PTR [esp], xmm0
	push	DWORD PTR _lua$[esp]
	call	_lua_pushnumber
	add	esp, 8
; Line 886
	mov	eax, 1
; Line 889
	ret	0
_GetAnyKeyPressed ENDP
_TEXT	ENDS
; Function compile flags: /Ogtpy
;	COMDAT _IsKeyBeingReleased
_TEXT	SEGMENT
_lua$ = 8						; size = 4
_IsKeyBeingReleased PROC				; COMDAT
; File C:\Program Files (x86)\Steam\steamapps\common\Bully Scholarship Edition\_derpy_script_loader\src\client\library\lib_input.c
; Line 860
	push	ebx
	push	esi
; Line 865
	mov	esi, DWORD PTR _lua$[esp+4]
	push	1
	push	esi
	call	_getDslState
	mov	ebx, eax
	add	esp, 8
; Line 866
	mov	ecx, DWORD PTR [ebx+40]
	test	ecx, ecx
	je	SHORT $LN2@IsKeyBeing
	push	ecx
	call	_shouldNetworkDisableKeys
	add	esp, 4
	test	eax, eax
	je	SHORT $LN2@IsKeyBeing
; Line 867
	push	0
	push	esi
	call	_lua_pushboolean
	add	esp, 8
; Line 868
	xor	eax, eax
	pop	esi
; Line 877
	pop	ebx
	ret	0
$LN2@IsKeyBeing:
	push	edi
; Line 632
	push	esi
	call	_getLuaKey
	mov	edi, eax
	add	esp, 4
; Line 633
	test	edi, edi
	jle	SHORT $LN10@IsKeyBeing
	cmp	edi, 256				; 00000100H
	jl	SHORT $LN9@IsKeyBeing
$LN10@IsKeyBeing:
; Line 634
	push	OFFSET ??_C@_0O@MIKDCOGE@unknown?5key?3?5@
	push	esi
	call	_lua_pushstring
; Line 635
	push	1
	push	esi
	call	_lua_pushvalue
; Line 636
	push	2
	push	esi
	call	_lua_concat
; Line 637
	push	-1
	push	esi
	call	_lua_tostring
	push	eax
	push	1
	push	esi
	call	_luaL_argerror
	add	esp, 44					; 0000002cH
$LN9@IsKeyBeing:
; Line 871
	push	esi
	call	_lua_gettop
	add	esp, 4
	cmp	eax, 2
	jl	SHORT $LN3@IsKeyBeing
	push	2
	push	esi
	call	_lua_type
	add	esp, 8
	test	eax, eax
	je	SHORT $LN3@IsKeyBeing
; Line 872
	push	2
	push	esi
	call	_getController
	add	esp, 8
; Line 873
	cmp	BYTE PTR [edi+eax+1464], 0
	je	SHORT $LN6@IsKeyBeing
	cmp	BYTE PTR [edi+eax+516], 0
	jne	SHORT $LN6@IsKeyBeing
	mov	eax, 1
; Line 876
	push	eax
	push	esi
	call	_lua_pushboolean
	add	esp, 8
	mov	eax, 1
	pop	edi
	pop	esi
; Line 877
	pop	ebx
	ret	0
$LN6@IsKeyBeing:
; Line 873
	xor	eax, eax
; Line 876
	push	eax
	push	esi
	call	_lua_pushboolean
	add	esp, 8
	mov	eax, 1
	pop	edi
	pop	esi
; Line 877
	pop	ebx
	ret	0
$LN3@IsKeyBeing:
; Line 875
	xor	eax, eax
	cmp	BYTE PTR [edi+ebx+44], 2
	sete	al
; Line 876
	push	eax
	push	esi
	call	_lua_pushboolean
	add	esp, 8
	mov	eax, 1
	pop	edi
	pop	esi
; Line 877
	pop	ebx
	ret	0
_IsKeyBeingReleased ENDP
_TEXT	ENDS
; Function compile flags: /Ogtpy
;	COMDAT _IsKeyBeingPressed
_TEXT	SEGMENT
_lua$ = 8						; size = 4
_IsKeyBeingPressed PROC					; COMDAT
; File C:\Program Files (x86)\Steam\steamapps\common\Bully Scholarship Edition\_derpy_script_loader\src\client\library\lib_input.c
; Line 842
	push	ebx
	push	esi
; Line 847
	mov	esi, DWORD PTR _lua$[esp+4]
	push	1
	push	esi
	call	_getDslState
	mov	ebx, eax
	add	esp, 8
; Line 848
	mov	ecx, DWORD PTR [ebx+40]
	test	ecx, ecx
	je	SHORT $LN2@IsKeyBeing
	push	ecx
	call	_shouldNetworkDisableKeys
	add	esp, 4
	test	eax, eax
	je	SHORT $LN2@IsKeyBeing
; Line 849
	push	0
	push	esi
	call	_lua_pushboolean
	add	esp, 8
; Line 850
	xor	eax, eax
	pop	esi
; Line 859
	pop	ebx
	ret	0
$LN2@IsKeyBeing:
	push	edi
; Line 632
	push	esi
	call	_getLuaKey
	mov	edi, eax
	add	esp, 4
; Line 633
	test	edi, edi
	jle	SHORT $LN10@IsKeyBeing
	cmp	edi, 256				; 00000100H
	jl	SHORT $LN9@IsKeyBeing
$LN10@IsKeyBeing:
; Line 634
	push	OFFSET ??_C@_0O@MIKDCOGE@unknown?5key?3?5@
	push	esi
	call	_lua_pushstring
; Line 635
	push	1
	push	esi
	call	_lua_pushvalue
; Line 636
	push	2
	push	esi
	call	_lua_concat
; Line 637
	push	-1
	push	esi
	call	_lua_tostring
	push	eax
	push	1
	push	esi
	call	_luaL_argerror
	add	esp, 44					; 0000002cH
$LN9@IsKeyBeing:
; Line 853
	push	esi
	call	_lua_gettop
	add	esp, 4
	cmp	eax, 2
	jl	SHORT $LN3@IsKeyBeing
	push	2
	push	esi
	call	_lua_type
	add	esp, 8
	test	eax, eax
	je	SHORT $LN3@IsKeyBeing
; Line 854
	push	2
	push	esi
	call	_getController
	add	esp, 8
; Line 855
	cmp	BYTE PTR [edi+eax+516], 0
	je	SHORT $LN6@IsKeyBeing
	cmp	BYTE PTR [edi+eax+1464], 0
	jne	SHORT $LN6@IsKeyBeing
	mov	eax, 1
; Line 858
	push	eax
	push	esi
	call	_lua_pushboolean
	add	esp, 8
	mov	eax, 1
	pop	edi
	pop	esi
; Line 859
	pop	ebx
	ret	0
$LN6@IsKeyBeing:
; Line 855
	xor	eax, eax
; Line 858
	push	eax
	push	esi
	call	_lua_pushboolean
	add	esp, 8
	mov	eax, 1
	pop	edi
	pop	esi
; Line 859
	pop	ebx
	ret	0
$LN3@IsKeyBeing:
; Line 857
	xor	eax, eax
	cmp	BYTE PTR [edi+ebx+44], 3
	sete	al
; Line 858
	push	eax
	push	esi
	call	_lua_pushboolean
	add	esp, 8
	mov	eax, 1
	pop	edi
	pop	esi
; Line 859
	pop	ebx
	ret	0
_IsKeyBeingPressed ENDP
_TEXT	ENDS
; Function compile flags: /Ogtpy
;	COMDAT _IsKeyPressed
_TEXT	SEGMENT
_lua$ = 8						; size = 4
_IsKeyPressed PROC					; COMDAT
; File C:\Program Files (x86)\Steam\steamapps\common\Bully Scholarship Edition\_derpy_script_loader\src\client\library\lib_input.c
; Line 824
	push	ebx
	push	esi
; Line 829
	mov	esi, DWORD PTR _lua$[esp+4]
	push	1
	push	esi
	call	_getDslState
	mov	ebx, eax
	add	esp, 8
; Line 830
	mov	ecx, DWORD PTR [ebx+40]
	test	ecx, ecx
	je	SHORT $LN2@IsKeyPress
	push	ecx
	call	_shouldNetworkDisableKeys
	add	esp, 4
	test	eax, eax
	je	SHORT $LN2@IsKeyPress
; Line 831
	push	0
	push	esi
	call	_lua_pushboolean
	add	esp, 8
; Line 832
	xor	eax, eax
	pop	esi
; Line 841
	pop	ebx
	ret	0
$LN2@IsKeyPress:
	push	edi
; Line 632
	push	esi
	call	_getLuaKey
	mov	edi, eax
	add	esp, 4
; Line 633
	test	edi, edi
	jle	SHORT $LN8@IsKeyPress
	cmp	edi, 256				; 00000100H
	jl	SHORT $LN7@IsKeyPress
$LN8@IsKeyPress:
; Line 634
	push	OFFSET ??_C@_0O@MIKDCOGE@unknown?5key?3?5@
	push	esi
	call	_lua_pushstring
; Line 635
	push	1
	push	esi
	call	_lua_pushvalue
; Line 636
	push	2
	push	esi
	call	_lua_concat
; Line 637
	push	-1
	push	esi
	call	_lua_tostring
	push	eax
	push	1
	push	esi
	call	_luaL_argerror
	add	esp, 44					; 0000002cH
$LN7@IsKeyPress:
; Line 835
	push	esi
	call	_lua_gettop
	add	esp, 4
	cmp	eax, 2
	jl	SHORT $LN3@IsKeyPress
	push	2
	push	esi
	call	_lua_type
	add	esp, 8
	test	eax, eax
	je	SHORT $LN3@IsKeyPress
; Line 836
	push	2
	push	esi
	call	_getController
	add	esp, 8
; Line 837
	movsx	eax, BYTE PTR [edi+eax+516]
; Line 840
	push	eax
	push	esi
	call	_lua_pushboolean
	add	esp, 8
	mov	eax, 1
	pop	edi
	pop	esi
; Line 841
	pop	ebx
	ret	0
$LN3@IsKeyPress:
; Line 839
	movsx	eax, BYTE PTR [edi+ebx+44]
	and	eax, 1
; Line 840
	push	eax
	push	esi
	call	_lua_pushboolean
	add	esp, 8
	mov	eax, 1
	pop	edi
	pop	esi
; Line 841
	pop	ebx
	ret	0
_IsKeyPressed ENDP
_TEXT	ENDS
; Function compile flags: /Ogtpy
;	COMDAT _IsKeyValid
_TEXT	SEGMENT
_lua$ = 8						; size = 4
_IsKeyValid PROC					; COMDAT
; File C:\Program Files (x86)\Steam\steamapps\common\Bully Scholarship Edition\_derpy_script_loader\src\client\library\lib_input.c
; Line 816
	push	esi
; Line 820
	mov	esi, DWORD PTR _lua$[esp]
	push	1
	push	esi
	call	_lua_type
	add	esp, 8
; Line 821
	cmp	eax, 3
	je	SHORT $LN3@IsKeyValid
	cmp	eax, 4
	jne	SHORT $LN4@IsKeyValid
$LN3@IsKeyValid:
	push	esi
	call	_getLuaKey
	dec	eax
	add	esp, 4
	cmp	eax, 254				; 000000feH
	ja	SHORT $LN4@IsKeyValid
	mov	eax, 1
	push	eax
	push	esi
	call	_lua_pushboolean
	add	esp, 8
; Line 822
	mov	eax, 1
	pop	esi
; Line 823
	ret	0
$LN4@IsKeyValid:
; Line 821
	xor	eax, eax
	push	eax
	push	esi
	call	_lua_pushboolean
	add	esp, 8
; Line 822
	mov	eax, 1
	pop	esi
; Line 823
	ret	0
_IsKeyValid ENDP
_TEXT	ENDS
; Function compile flags: /Ogtpy
;	COMDAT _IsUsingJoystick
_TEXT	SEGMENT
_lua$ = 8						; size = 4
_IsUsingJoystick PROC					; COMDAT
; File C:\Program Files (x86)\Steam\steamapps\common\Bully Scholarship Edition\_derpy_script_loader\src\client\library\lib_input.c
; Line 811
	push	1
	push	DWORD PTR _lua$[esp]
	call	_getController
	movsx	eax, BYTE PTR [eax]
	push	eax
	push	DWORD PTR _lua$[esp+8]
	call	_lua_pushboolean
	add	esp, 16					; 00000010H
; Line 812
	mov	eax, 1
; Line 813
	ret	0
_IsUsingJoystick ENDP
_TEXT	ENDS
; Function compile flags: /Ogtpy
;	COMDAT _GetInputHardware
_TEXT	SEGMENT
tv229 = -4						; size = 4
_lua$ = 8						; size = 4
_GetInputHardware PROC					; COMDAT
; File C:\Program Files (x86)\Steam\steamapps\common\Bully Scholarship Edition\_derpy_script_loader\src\client\library\lib_input.c
; Line 773
	push	ecx
	push	esi
; Line 777
	mov	esi, DWORD PTR _lua$[esp+4]
	push	edi
	push	3
	push	1
	push	esi
	call	_luaL_checktype
; Line 778
	push	1
	push	esi
	call	_lua_tonumber
	fstp	DWORD PTR tv229[esp+32]
	cvttss2si edi, DWORD PTR tv229[esp+32]
	add	esp, 20					; 00000014H
; Line 779
	test	edi, edi
	js	SHORT $LN6@GetInputHa
	cmp	edi, 24					; 00000018H
	jle	SHORT $LN5@GetInputHa
$LN6@GetInputHa:
; Line 780
	push	OFFSET ??_C@_0BC@OBDEIJHM@unsupported?5input@
	push	1
	push	esi
	call	_luaL_argerror
	add	esp, 12					; 0000000cH
$LN5@GetInputHa:
; Line 781
	push	2
	push	esi
	call	_getController
	add	esp, 8
	cmp	BYTE PTR [eax], 0
	je	$LN7@GetInputHa
; Line 782
	cmp	edi, 16					; 00000010H
	jge	SHORT $LN9@GetInputHa
; Line 783
	mov	edi, DWORD PTR [edi*4+10569744]
; Line 784
	push	OFFSET ??_C@_06HFKPFKMP@button@
	push	esi
	call	_lua_pushstring
	add	esp, 8
; Line 785
	xor	ecx, ecx
	npad	1
$LL4@GetInputHa:
; Line 786
	mov	eax, 1
	shl	eax, cl
	cmp	eax, edi
	je	SHORT $LN20@GetInputHa
; Line 785
	inc	ecx
	cmp	ecx, 16					; 00000010H
	jl	SHORT $LL4@GetInputHa
; Line 790
	push	OFFSET ??_C@_0O@NHKKLPML@unbound?5input@
	push	esi
	call	_luaL_error
; Line 809
	add	esp, 8
	mov	eax, 2
	pop	edi
	pop	esi
	pop	ecx
	ret	0
$LN20@GetInputHa:
	movd	xmm0, ecx
; Line 787
	push	ecx
; Line 788
	jmp	$LN25@GetInputHa
$LN9@GetInputHa:
; Line 791
	cmp	edi, 24					; 00000018H
	jne	SHORT $LN12@GetInputHa
; Line 792
	push	OFFSET ??_C@_07BELCMIIP@special@
	push	esi
	call	_lua_pushstring
; Line 793
	add	esp, 4
	mov	DWORD PTR [esp], 0
; Line 809
	push	esi
	call	_lua_pushnumber
	add	esp, 8
	lea	eax, DWORD PTR [edi-22]
	pop	edi
	pop	esi
	pop	ecx
	ret	0
$LN12@GetInputHa:
; Line 795
	push	OFFSET ??_C@_06MBDJGOMB@analog@
	push	esi
	call	_lua_pushstring
; Line 796
	lea	eax, DWORD PTR [edi-16]
; Line 797
	jmp	SHORT $LN27@GetInputHa
$LN7@GetInputHa:
; Line 798
	push	0
	mov	eax, 4541648				; 00454cd0H
	xor	edx, edx
	mov	ecx, 10569744				; 00a14810H
	call	eax
	mov	edi, DWORD PTR [eax+edi*4]
	cmp	edi, 256				; 00000100H
	jge	SHORT $LN14@GetInputHa
; Line 799
	push	OFFSET ??_C@_08KNBLADDJ@keyboard@
	push	esi
	call	_lua_pushstring
	movd	xmm0, edi
; Line 800
	jmp	SHORT $LN28@GetInputHa
$LN14@GetInputHa:
; Line 801
	cmp	edi, 260				; 00000104H
	jge	SHORT $LN16@GetInputHa
; Line 802
	push	OFFSET ??_C@_0N@PMFHGPMB@mouse_button@
	push	esi
	call	_lua_pushstring
; Line 803
	lea	eax, DWORD PTR [edi-256]
; Line 804
	jmp	SHORT $LN27@GetInputHa
$LN16@GetInputHa:
; Line 805
	push	OFFSET ??_C@_0P@MGOAMKAN@mouse_movement@
	push	esi
	call	_lua_pushstring
; Line 806
	lea	eax, DWORD PTR [edi-260]
$LN27@GetInputHa:
; Line 809
	movd	xmm0, eax
$LN28@GetInputHa:
	add	esp, 4
$LN25@GetInputHa:
	cvtdq2ps xmm0, xmm0
	movss	DWORD PTR [esp], xmm0
	push	esi
	call	_lua_pushnumber
	add	esp, 8
	mov	eax, 2
	pop	edi
	pop	esi
	pop	ecx
	ret	0
_GetInputHardware ENDP
_TEXT	ENDS
; Function compile flags: /Ogtpy
;	COMDAT _SetStickValue
_TEXT	SEGMENT
tv128 = -4						; size = 4
_lua$ = 8						; size = 4
_SetStickValue PROC					; COMDAT
; File C:\Program Files (x86)\Steam\steamapps\common\Bully Scholarship Edition\_derpy_script_loader\src\client\library\lib_input.c
; Line 760
	push	ecx
	push	esi
; Line 763
	mov	esi, DWORD PTR _lua$[esp+4]
	push	edi
	push	3
	push	1
	push	esi
	call	_luaL_checktype
; Line 764
	push	3
	push	3
	push	esi
	call	_luaL_checktype
; Line 765
	push	1
	push	esi
	call	_lua_tonumber
	fstp	DWORD PTR tv128[esp+44]
	cvttss2si edi, DWORD PTR tv128[esp+44]
	add	esp, 32					; 00000020H
; Line 766
	test	edi, edi
	js	SHORT $LN3@SetStickVa
	cmp	edi, 24					; 00000018H
	jle	SHORT $LN2@SetStickVa
$LN3@SetStickVa:
; Line 767
	push	OFFSET ??_C@_0BC@JBMJOOOL@unsupported?5stick@
	push	1
	push	esi
	call	_luaL_argerror
	add	esp, 12					; 0000000cH
$LN2@SetStickVa:
; Line 768
	push	0
	push	3
	push	esi
	call	_lua_tonumber
	add	esp, 4
	fstp	DWORD PTR [esp]
	push	edi
	push	2
	push	esi
	call	_getController
	add	esp, 8
	push	eax
	call	_setValue
	add	esp, 16					; 00000010H
; Line 769
	xor	eax, eax
	pop	edi
	pop	esi
; Line 770
	pop	ecx
	ret	0
_SetStickValue ENDP
_TEXT	ENDS
; Function compile flags: /Ogtpy
;	COMDAT _SetButtonPressed
_TEXT	SEGMENT
tv130 = -4						; size = 4
_lua$ = 8						; size = 4
_SetButtonPressed PROC					; COMDAT
; File C:\Program Files (x86)\Steam\steamapps\common\Bully Scholarship Edition\_derpy_script_loader\src\client\library\lib_input.c
; Line 749
	push	ecx
	push	esi
; Line 752
	mov	esi, DWORD PTR _lua$[esp+4]
	push	edi
	push	3
	push	1
	push	esi
	call	_luaL_checktype
; Line 753
	push	1
	push	3
	push	esi
	call	_luaL_checktype
; Line 754
	push	1
	push	esi
	call	_lua_tonumber
	fstp	DWORD PTR tv130[esp+44]
	cvttss2si edi, DWORD PTR tv130[esp+44]
	add	esp, 32					; 00000020H
; Line 755
	test	edi, edi
	js	SHORT $LN3@SetButtonP
	cmp	edi, 24					; 00000018H
	jle	SHORT $LN2@SetButtonP
$LN3@SetButtonP:
; Line 756
	push	OFFSET ??_C@_0BD@JEHFGECB@unsupported?5button@
	push	1
	push	esi
	call	_luaL_argerror
	add	esp, 12					; 0000000cH
$LN2@SetButtonP:
; Line 757
	push	3
	push	esi
	call	_lua_toboolean
	add	esp, 8
	test	eax, eax
	je	SHORT $LN5@SetButtonP
	movss	xmm0, DWORD PTR __real@3f800000
	jmp	SHORT $LN6@SetButtonP
$LN5@SetButtonP:
	xorps	xmm0, xmm0
$LN6@SetButtonP:
	push	1
	push	ecx
	movss	DWORD PTR [esp], xmm0
	push	edi
	push	2
	push	esi
	call	_getController
	add	esp, 8
	push	eax
	call	_setValue
	add	esp, 16					; 00000010H
; Line 758
	xor	eax, eax
	pop	edi
	pop	esi
; Line 759
	pop	ecx
	ret	0
_SetButtonPressed ENDP
_TEXT	ENDS
; Function compile flags: /Ogtpy
;	COMDAT _ZeroController
_TEXT	SEGMENT
_lua$ = 8						; size = 4
_ZeroController PROC					; COMDAT
; File C:\Program Files (x86)\Steam\steamapps\common\Bully Scholarship Edition\_derpy_script_loader\src\client\library\lib_input.c
; Line 741
	push	esi
; Line 744
	push	1
	push	DWORD PTR _lua$[esp+4]
	call	_getController
	mov	esi, eax
; Line 745
	push	448					; 000001c0H
	push	0
	lea	ecx, DWORD PTR [esi+324]
	push	ecx
	call	_memset
	add	esp, 20					; 00000014H
; Line 746
	mov	DWORD PTR [esi+2224], 0
; Line 747
	xor	eax, eax
	pop	esi
; Line 748
	ret	0
_ZeroController ENDP
_TEXT	ENDS
; Function compile flags: /Ogtpy
;	COMDAT _setValue
_TEXT	SEGMENT
_controller$ = 8					; size = 4
_button$ = 12						; size = 4
_value$ = 16						; size = 4
_press$ = 20						; size = 4
_setValue PROC						; COMDAT
; File C:\Program Files (x86)\Steam\steamapps\common\Bully Scholarship Edition\_derpy_script_loader\src\client\library\lib_input.c
; Line 723
	push	esi
; Line 724
	mov	esi, DWORD PTR _controller$[esp]
	push	edi
	mov	edi, DWORD PTR _button$[esp+4]
	cmp	BYTE PTR [esi], 0
	je	SHORT $LN2@setValue
	cmp	edi, 16					; 00000010H
	jge	SHORT $LN28@setValue
; Line 726
	movss	xmm0, DWORD PTR _value$[esp+4]
	comiss	xmm0, DWORD PTR __real@00000000
	mov	ecx, DWORD PTR [edi*4+10569744]
	jbe	SHORT $LN4@setValue
; Line 727
	cmp	DWORD PTR _press$[esp+4], 0
	je	SHORT $LN6@setValue
; Line 728
	or	WORD PTR [esi+488], cx
$LN6@setValue:
; Line 729
	movsx	eax, WORD PTR [esi+1436]
	not	eax
	test	eax, ecx
	je	$LN26@setValue
; Line 730
	or	DWORD PTR [esi+2224], ecx
	pop	edi
; Line 740
	pop	esi
	ret	0
$LN4@setValue:
; Line 732
	cmp	DWORD PTR _press$[esp+4], 0
	je	SHORT $LN8@setValue
; Line 733
	mov	eax, ecx
	not	eax
	and	WORD PTR [esi+488], ax
$LN8@setValue:
; Line 734
	not	ecx
	and	DWORD PTR [esi+2224], ecx
	pop	edi
; Line 740
	pop	esi
	ret	0
$LN2@setValue:
; Line 736
	cmp	edi, 16					; 00000010H
	jl	SHORT $LN11@setValue
$LN28@setValue:
	cmp	edi, 24					; 00000018H
	je	SHORT $LN11@setValue
; Line 739
	movss	xmm0, DWORD PTR _value$[esp+4]
	movss	DWORD PTR [esi+edi*4+324], xmm0
	pop	edi
; Line 740
	pop	esi
	ret	0
$LN11@setValue:
; Line 737
	push	0
	mov	eax, 4541648				; 00454cd0H
	xor	edx, edx
	mov	ecx, 10569744				; 00a14810H
	call	eax
; Line 693
	movss	xmm2, DWORD PTR _value$[esp+4]
	xorps	xmm3, xmm3
; Line 737
	mov	ecx, DWORD PTR [eax+edi*4]
; Line 693
	lea	eax, DWORD PTR [ecx-256]
	cmp	eax, 9
	ja	$LN14@setValue
	movsd	xmm4, QWORD PTR __real@3f80000000000000
	movss	xmm5, DWORD PTR __xmm@80000000800000008000000080000000
	jmp	DWORD PTR $LN29@setValue[eax*4]
$LN16@setValue:
; Line 695
	comiss	xmm2, xmm3
	seta	al
	mov	BYTE PTR [esi+512], al
; Line 696
	jmp	$LN14@setValue
$LN17@setValue:
; Line 698
	comiss	xmm2, xmm3
	seta	al
	mov	BYTE PTR [esi+513], al
; Line 699
	jmp	$LN14@setValue
$LN18@setValue:
; Line 701
	comiss	xmm2, xmm3
	seta	al
	mov	BYTE PTR [esi+514], al
; Line 702
	jmp	$LN14@setValue
$LN19@setValue:
; Line 704
	comiss	xmm2, xmm3
	seta	al
	mov	BYTE PTR [esi+515], al
; Line 705
	jmp	$LN14@setValue
$LN20@setValue:
; Line 709
	movaps	xmm0, xmm2
	xorps	xmm0, xmm5
	cvttss2si eax, xmm0
	mov	DWORD PTR [esi+508], eax
$LN22@setValue:
; Line 711
	movaps	xmm0, xmm2
	xorps	xmm1, xmm1
	xorps	xmm0, xmm5
	cvtss2sd xmm1, xmm0
	movss	xmm0, DWORD PTR ds:10570012
	cvtps2pd xmm0, xmm0
	mulsd	xmm0, xmm4
	divsd	xmm1, xmm0
	cvttsd2si eax, xmm1
	mov	DWORD PTR [esi+504], eax
$LN23@setValue:
	movss	xmm0, DWORD PTR ds:10570012
; Line 713
	cvtps2pd xmm0, xmm0
	cvtps2pd xmm1, xmm2
	mulsd	xmm0, xmm4
	divsd	xmm1, xmm0
	cvttsd2si eax, xmm1
	mov	DWORD PTR [esi+504], eax
$LN24@setValue:
; Line 715
	movaps	xmm0, xmm2
	xorps	xmm1, xmm1
	xorps	xmm0, xmm5
	cvtss2sd xmm1, xmm0
	movss	xmm0, DWORD PTR ds:10570012
	cvtps2pd xmm0, xmm0
	mulsd	xmm0, xmm4
	divsd	xmm1, xmm0
	cvttsd2si eax, xmm1
	mov	DWORD PTR [esi+500], eax
$LN25@setValue:
	movss	xmm0, DWORD PTR ds:10570012
; Line 717
	cvtps2pd xmm0, xmm0
	cvtps2pd xmm1, xmm2
	mulsd	xmm0, xmm4
	divsd	xmm1, xmm0
	cvttsd2si eax, xmm1
	mov	DWORD PTR [esi+500], eax
$LN14@setValue:
; Line 719
	cmp	ecx, 256				; 00000100H
	jge	SHORT $LN26@setValue
; Line 720
	comiss	xmm2, xmm3
	setbe	al
	dec	al
	and	al, -128				; ffffff80H
	mov	BYTE PTR [ecx+esi+516], al
$LN26@setValue:
	pop	edi
; Line 740
	pop	esi
	ret	0
	npad	3
$LN29@setValue:
	DD	$LN16@setValue
	DD	$LN17@setValue
	DD	$LN18@setValue
	DD	$LN19@setValue
	DD	$LN20@setValue
	DD	$LN20@setValue
	DD	$LN22@setValue
	DD	$LN23@setValue
	DD	$LN24@setValue
	DD	$LN25@setValue
_setValue ENDP
_TEXT	ENDS
; Function compile flags: /Ogtpy
;	COMDAT _setValueForButton
_TEXT	SEGMENT
_controller$ = 8					; size = 4
_binding$ = 12						; size = 4
_input$ = 16						; size = 4
_value$ = 20						; size = 4
_setValueForButton PROC					; COMDAT
; File C:\Program Files (x86)\Steam\steamapps\common\Bully Scholarship Edition\_derpy_script_loader\src\client\library\lib_input.c
; Line 693
	mov	edx, DWORD PTR _binding$[esp-4]
	xorps	xmm3, xmm3
	movss	xmm2, DWORD PTR _value$[esp-4]
	mov	ecx, DWORD PTR _input$[esp-4]
	lea	eax, DWORD PTR [edx-256]
	cmp	eax, 9
	ja	$LN2@setValueFo
	movsd	xmm4, QWORD PTR __real@3f80000000000000
	movss	xmm5, DWORD PTR __xmm@80000000800000008000000080000000
	jmp	DWORD PTR $LN16@setValueFo[eax*4]
$LN4@setValueFo:
; Line 695
	comiss	xmm2, xmm3
	seta	al
	mov	BYTE PTR [ecx+188], al
; Line 696
	jmp	$LN2@setValueFo
$LN5@setValueFo:
; Line 698
	comiss	xmm2, xmm3
	seta	al
	mov	BYTE PTR [ecx+189], al
; Line 699
	jmp	$LN2@setValueFo
$LN6@setValueFo:
; Line 701
	comiss	xmm2, xmm3
	seta	al
	mov	BYTE PTR [ecx+190], al
; Line 702
	jmp	$LN2@setValueFo
$LN7@setValueFo:
; Line 704
	comiss	xmm2, xmm3
	seta	al
	mov	BYTE PTR [ecx+191], al
; Line 705
	jmp	$LN2@setValueFo
$LN8@setValueFo:
; Line 709
	movaps	xmm0, xmm2
	xorps	xmm0, xmm5
	cvttss2si eax, xmm0
	mov	DWORD PTR [ecx+184], eax
$LN10@setValueFo:
; Line 711
	movaps	xmm0, xmm2
	xorps	xmm1, xmm1
	xorps	xmm0, xmm5
	cvtss2sd xmm1, xmm0
	movss	xmm0, DWORD PTR ds:10570012
	cvtps2pd xmm0, xmm0
	mulsd	xmm0, xmm4
	divsd	xmm1, xmm0
	cvttsd2si eax, xmm1
	mov	DWORD PTR [ecx+180], eax
$LN11@setValueFo:
; Line 713
	movss	xmm0, DWORD PTR ds:10570012
	cvtps2pd xmm0, xmm0
	cvtps2pd xmm1, xmm2
	mulsd	xmm0, xmm4
	divsd	xmm1, xmm0
	cvttsd2si eax, xmm1
	mov	DWORD PTR [ecx+180], eax
$LN12@setValueFo:
; Line 715
	movaps	xmm0, xmm2
	xorps	xmm1, xmm1
	xorps	xmm0, xmm5
	cvtss2sd xmm1, xmm0
	movss	xmm0, DWORD PTR ds:10570012
	cvtps2pd xmm0, xmm0
	mulsd	xmm0, xmm4
	divsd	xmm1, xmm0
	cvttsd2si eax, xmm1
	mov	DWORD PTR [ecx+176], eax
$LN13@setValueFo:
; Line 717
	movss	xmm0, DWORD PTR ds:10570012
	cvtps2pd xmm0, xmm0
	cvtps2pd xmm1, xmm2
	mulsd	xmm0, xmm4
	divsd	xmm1, xmm0
	cvttsd2si eax, xmm1
	mov	DWORD PTR [ecx+176], eax
$LN2@setValueFo:
; Line 719
	cmp	edx, 256				; 00000100H
	jge	SHORT $LN14@setValueFo
; Line 720
	comiss	xmm2, xmm3
	setbe	al
	dec	al
	and	al, -128				; ffffff80H
	mov	BYTE PTR [edx+ecx+192], al
$LN14@setValueFo:
; Line 722
	ret	0
	npad	3
$LN16@setValueFo:
	DD	$LN4@setValueFo
	DD	$LN5@setValueFo
	DD	$LN6@setValueFo
	DD	$LN7@setValueFo
	DD	$LN8@setValueFo
	DD	$LN8@setValueFo
	DD	$LN10@setValueFo
	DD	$LN11@setValueFo
	DD	$LN12@setValueFo
	DD	$LN13@setValueFo
_setValueForButton ENDP
_TEXT	ENDS
; Function compile flags: /Ogtpy
;	COMDAT _getValue
_TEXT	SEGMENT
tv89 = 8						; size = 4
tv74 = 8						; size = 4
_controller$ = 8					; size = 4
_button$ = 12						; size = 4
_getValue PROC						; COMDAT
; File C:\Program Files (x86)\Steam\steamapps\common\Bully Scholarship Edition\_derpy_script_loader\src\client\library\lib_input.c
; Line 682
	push	esi
; Line 684
	mov	esi, DWORD PTR _controller$[esp]
	push	edi
	mov	edi, DWORD PTR _button$[esp+4]
	cmp	BYTE PTR [esi], 0
	je	SHORT $LN2@getValue
	cmp	edi, 16					; 00000010H
	jge	SHORT $LN31@getValue
; Line 685
	movsx	eax, WORD PTR [esi+488]
	mov	DWORD PTR tv74[esp+4], 1065353216	; 3f800000H
	test	DWORD PTR [edi*4+10569744], eax
	jne	SHORT $LN7@getValue
	mov	DWORD PTR tv74[esp+4], 0
$LN7@getValue:
	fld	DWORD PTR tv74[esp+4]
	pop	edi
; Line 689
	pop	esi
	ret	0
$LN2@getValue:
; Line 686
	cmp	edi, 16					; 00000010H
	jl	SHORT $LN4@getValue
$LN31@getValue:
	cmp	edi, 24					; 00000018H
	je	SHORT $LN4@getValue
; Line 688
	fld	DWORD PTR [esi+edi*4+324]
	pop	edi
; Line 689
	pop	esi
	ret	0
$LN4@getValue:
; Line 687
	push	0
	mov	eax, 4541648				; 00454cd0H
	xor	edx, edx
	mov	ecx, 10569744				; 00a14810H
	call	eax
	xorps	xmm2, xmm2
	mov	eax, DWORD PTR [eax+edi*4]
; Line 647
	lea	ecx, DWORD PTR [eax-256]
	cmp	ecx, 9
	ja	SHORT $LN11@getValue
	jmp	DWORD PTR $LN33@getValue[ecx*4]
$LN13@getValue:
; Line 649
	cmp	BYTE PTR [esi+512], 0
	jne	SHORT $LN32@getValue
$LN11@getValue:
; Line 677
	cmp	eax, 256				; 00000100H
	jge	$LN8@getValue
; Line 678
	cmp	BYTE PTR [eax+esi+516], 0
	jge	$LN8@getValue
$LN32@getValue:
; Line 687
	mov	DWORD PTR tv89[esp+4], 1065353216	; 3f800000H
	fld	DWORD PTR tv89[esp+4]
	pop	edi
; Line 689
	pop	esi
	ret	0
$LN15@getValue:
; Line 653
	cmp	BYTE PTR [esi+513], 0
	je	SHORT $LN11@getValue
; Line 687
	mov	DWORD PTR tv89[esp+4], 1065353216	; 3f800000H
	fld	DWORD PTR tv89[esp+4]
	pop	edi
; Line 689
	pop	esi
	ret	0
$LN17@getValue:
; Line 657
	cmp	BYTE PTR [esi+514], 0
	je	SHORT $LN11@getValue
; Line 687
	mov	DWORD PTR tv89[esp+4], 1065353216	; 3f800000H
	fld	DWORD PTR tv89[esp+4]
	pop	edi
; Line 689
	pop	esi
	ret	0
$LN19@getValue:
; Line 661
	cmp	BYTE PTR [esi+515], 0
	je	SHORT $LN11@getValue
; Line 687
	mov	DWORD PTR tv89[esp+4], 1065353216	; 3f800000H
	fld	DWORD PTR tv89[esp+4]
	pop	edi
; Line 689
	pop	esi
	ret	0
$LN21@getValue:
	movd	xmm0, DWORD PTR [esi+508]
; Line 665
	cvtdq2ps xmm0, xmm0
	jmp	SHORT $LN10@getValue
$LN22@getValue:
; Line 667
	mov	eax, DWORD PTR [esi+508]
	neg	eax
	movd	xmm0, eax
	cvtdq2ps xmm0, xmm0
	jmp	SHORT $LN10@getValue
$LN23@getValue:
; Line 669
	mov	eax, DWORD PTR [esi+504]
	neg	eax
	movd	xmm0, eax
	jmp	SHORT $LN34@getValue
$LN24@getValue:
	movd	xmm0, DWORD PTR [esi+504]
; Line 671
	jmp	SHORT $LN34@getValue
$LN25@getValue:
; Line 673
	mov	eax, DWORD PTR [esi+500]
	neg	eax
	movd	xmm0, eax
	jmp	SHORT $LN34@getValue
$LN26@getValue:
	movd	xmm0, DWORD PTR [esi+500]
$LN34@getValue:
; Line 687
	movss	xmm1, DWORD PTR ds:10570012
	cvtps2pd xmm1, xmm1
	cvtdq2pd xmm0, xmm0
	mulsd	xmm1, QWORD PTR __real@3f80000000000000
	mulsd	xmm1, xmm0
	cvtpd2ps xmm0, xmm1
$LN10@getValue:
	comiss	xmm0, xmm2
	ja	$LN32@getValue
$LN8@getValue:
	mov	DWORD PTR tv89[esp+4], 0
	fld	DWORD PTR tv89[esp+4]
	pop	edi
; Line 689
	pop	esi
	ret	0
	npad	1
$LN33@getValue:
	DD	$LN13@getValue
	DD	$LN15@getValue
	DD	$LN17@getValue
	DD	$LN19@getValue
	DD	$LN21@getValue
	DD	$LN22@getValue
	DD	$LN23@getValue
	DD	$LN24@getValue
	DD	$LN25@getValue
	DD	$LN26@getValue
_getValue ENDP
_TEXT	ENDS
; Function compile flags: /Ogtpy
;	COMDAT _getValueForButton
_TEXT	SEGMENT
_controller$ = 8					; size = 4
tv302 = 12						; size = 4
tv297 = 12						; size = 4
tv296 = 12						; size = 4
tv290 = 12						; size = 4
tv286 = 12						; size = 4
tv281 = 12						; size = 4
tv277 = 12						; size = 4
tv165 = 12						; size = 4
_binding$ = 12						; size = 4
_input$ = 16						; size = 4
_getValueForButton PROC					; COMDAT
; File C:\Program Files (x86)\Steam\steamapps\common\Bully Scholarship Edition\_derpy_script_loader\src\client\library\lib_input.c
; Line 647
	mov	ecx, DWORD PTR _binding$[esp-4]
	mov	eax, DWORD PTR _input$[esp-4]
	lea	edx, DWORD PTR [ecx-256]
	cmp	edx, 9
	ja	$LN2@getValueFo
	jmp	DWORD PTR $LN23@getValueFo[edx*4]
$LN4@getValueFo:
; Line 649
	cmp	BYTE PTR [eax+188], 0
	jmp	SHORT $LN24@getValueFo
$LN6@getValueFo:
; Line 653
	cmp	BYTE PTR [eax+189], 0
	jmp	SHORT $LN24@getValueFo
$LN8@getValueFo:
; Line 657
	cmp	BYTE PTR [eax+190], 0
	jmp	SHORT $LN24@getValueFo
$LN10@getValueFo:
; Line 661
	cmp	BYTE PTR [eax+191], 0
$LN24@getValueFo:
; Line 662
	je	$LN2@getValueFo
	fld1
; Line 681
	ret	0
$LN12@getValueFo:
; Line 665
	fild	DWORD PTR [eax+184]
	fstp	DWORD PTR tv302[esp-4]
	fld	DWORD PTR tv302[esp-4]
; Line 681
	ret	0
$LN13@getValueFo:
; Line 667
	mov	eax, DWORD PTR [eax+184]
	neg	eax
	mov	DWORD PTR tv297[esp-4], eax
	fild	DWORD PTR tv297[esp-4]
	fstp	DWORD PTR tv296[esp-4]
	fld	DWORD PTR tv296[esp-4]
; Line 681
	ret	0
$LN14@getValueFo:
; Line 669
	mov	eax, DWORD PTR [eax+180]
	movss	xmm1, DWORD PTR ds:10570012
	neg	eax
	cvtps2pd xmm1, xmm1
	movd	xmm0, eax
	mulsd	xmm1, QWORD PTR __real@3f80000000000000
	cvtdq2pd xmm0, xmm0
	mulsd	xmm1, xmm0
	cvtpd2ps xmm0, xmm1
	movss	DWORD PTR tv290[esp-4], xmm0
	fld	DWORD PTR tv290[esp-4]
; Line 681
	ret	0
$LN15@getValueFo:
	movss	xmm1, DWORD PTR ds:10570012
	movd	xmm0, DWORD PTR [eax+180]
; Line 671
	cvtps2pd xmm1, xmm1
	cvtdq2pd xmm0, xmm0
	mulsd	xmm1, QWORD PTR __real@3f80000000000000
	mulsd	xmm1, xmm0
	cvtpd2ps xmm0, xmm1
	movss	DWORD PTR tv286[esp-4], xmm0
	fld	DWORD PTR tv286[esp-4]
; Line 681
	ret	0
$LN16@getValueFo:
; Line 673
	mov	eax, DWORD PTR [eax+176]
	movss	xmm1, DWORD PTR ds:10570012
	neg	eax
	cvtps2pd xmm1, xmm1
	movd	xmm0, eax
	mulsd	xmm1, QWORD PTR __real@3f80000000000000
	cvtdq2pd xmm0, xmm0
	mulsd	xmm1, xmm0
	cvtpd2ps xmm0, xmm1
	movss	DWORD PTR tv281[esp-4], xmm0
	fld	DWORD PTR tv281[esp-4]
; Line 681
	ret	0
$LN17@getValueFo:
	movss	xmm1, DWORD PTR ds:10570012
	movd	xmm0, DWORD PTR [eax+176]
; Line 675
	cvtps2pd xmm1, xmm1
	cvtdq2pd xmm0, xmm0
	mulsd	xmm1, QWORD PTR __real@3f80000000000000
	mulsd	xmm1, xmm0
	cvtpd2ps xmm0, xmm1
	movss	DWORD PTR tv277[esp-4], xmm0
	fld	DWORD PTR tv277[esp-4]
; Line 681
	ret	0
$LN2@getValueFo:
; Line 677
	cmp	ecx, 256				; 00000100H
	jge	SHORT $LN18@getValueFo
; Line 678
	cmp	BYTE PTR [ecx+eax+192], 0
	mov	DWORD PTR tv165[esp-4], 1065353216	; 3f800000H
	jl	SHORT $LN21@getValueFo
	mov	DWORD PTR tv165[esp-4], 0
$LN21@getValueFo:
	fld	DWORD PTR tv165[esp-4]
; Line 681
	ret	0
$LN18@getValueFo:
; Line 680
	fldz
; Line 681
	ret	0
	npad	1
$LN23@getValueFo:
	DD	$LN4@getValueFo
	DD	$LN6@getValueFo
	DD	$LN8@getValueFo
	DD	$LN10@getValueFo
	DD	$LN12@getValueFo
	DD	$LN13@getValueFo
	DD	$LN14@getValueFo
	DD	$LN15@getValueFo
	DD	$LN16@getValueFo
	DD	$LN17@getValueFo
_getValueForButton ENDP
_TEXT	ENDS
; Function compile flags: /Ogtpy
;	COMDAT _getLuaKeySafe
_TEXT	SEGMENT
_lua$ = 8						; size = 4
_getLuaKeySafe PROC					; COMDAT
; File C:\Program Files (x86)\Steam\steamapps\common\Bully Scholarship Edition\_derpy_script_loader\src\client\library\lib_input.c
; Line 629
	push	esi
; Line 632
	mov	esi, DWORD PTR _lua$[esp]
	push	edi
	push	esi
	call	_getLuaKey
	mov	edi, eax
	add	esp, 4
; Line 633
	test	edi, edi
	jle	SHORT $LN3@getLuaKeyS
	cmp	edi, 256				; 00000100H
	jl	SHORT $LN2@getLuaKeyS
$LN3@getLuaKeyS:
; Line 634
	push	OFFSET ??_C@_0O@MIKDCOGE@unknown?5key?3?5@
	push	esi
	call	_lua_pushstring
; Line 635
	push	1
	push	esi
	call	_lua_pushvalue
; Line 636
	push	2
	push	esi
	call	_lua_concat
; Line 637
	push	-1
	push	esi
	call	_lua_tostring
	push	eax
	push	1
	push	esi
	call	_luaL_argerror
	add	esp, 44					; 0000002cH
; Line 639
	mov	eax, edi
$LN2@getLuaKeyS:
; Line 640
	pop	edi
	pop	esi
	ret	0
_getLuaKeySafe ENDP
_TEXT	ENDS
; Function compile flags: /Ogtpy
;	COMDAT _getLuaKey
_TEXT	SEGMENT
tv135 = -4						; size = 4
_lua$ = 8						; size = 4
_getLuaKey PROC						; COMDAT
; File C:\Program Files (x86)\Steam\steamapps\common\Bully Scholarship Edition\_derpy_script_loader\src\client\library\lib_input.c
; Line 613
	push	ecx
	push	esi
; Line 618
	mov	esi, DWORD PTR _lua$[esp+4]
	push	1
	push	esi
	call	_lua_type
	add	esp, 8
; Line 619
	cmp	eax, 3
	jne	SHORT $LN2@getLuaKey
; Line 620
	push	1
	push	esi
	call	_lua_tonumber
	add	esp, 8
	fstp	DWORD PTR tv135[esp+8]
	cvttss2si eax, DWORD PTR tv135[esp+8]
	pop	esi
; Line 628
	pop	ecx
	ret	0
$LN2@getLuaKey:
; Line 621
	cmp	eax, 4
	je	SHORT $LN3@getLuaKey
; Line 622
	push	OFFSET ??_C@_0BB@MIGJAJLK@number?5or?5string@
	push	1
	push	esi
	call	_luaL_typerror
	add	esp, 12					; 0000000cH
$LN3@getLuaKey:
; Line 623
	push	1
	push	esi
	call	_lua_tostring
	mov	esi, eax
	push	esi
	call	_getDikFromString
	add	esp, 12					; 0000000cH
	test	eax, eax
	jne	SHORT $LN1@getLuaKey
; Line 625
	push	esi
	call	_getVkFromString
	add	esp, 4
	test	eax, eax
	je	SHORT $LN5@getLuaKey
; Line 626
	push	0
	push	eax
	call	DWORD PTR __imp__MapVirtualKeyA@8
	pop	esi
; Line 628
	pop	ecx
	ret	0
$LN5@getLuaKey:
; Line 627
	xor	eax, eax
$LN1@getLuaKey:
	pop	esi
; Line 628
	pop	ecx
	ret	0
_getLuaKey ENDP
_TEXT	ENDS
; Function compile flags: /Ogtpy
;	COMDAT _getVkFromString
_TEXT	SEGMENT
_vk$ = 8						; size = 4
_getVkFromString PROC					; COMDAT
; File C:\Program Files (x86)\Steam\steamapps\common\Bully Scholarship Edition\_derpy_script_loader\src\client\library\lib_input.c
; Line 216
	push	esi
; Line 217
	mov	esi, DWORD PTR _vk$[esp]
	mov	cl, BYTE PTR [esi]
	test	cl, cl
	je	SHORT $LN4@getVkFromS
	cmp	BYTE PTR [esi+1], 0
	jne	SHORT $LN4@getVkFromS
; Line 218
	cmp	cl, 65					; 00000041H
	jl	SHORT $LN3@getVkFromS
	cmp	cl, 90					; 0000005aH
	jg	SHORT $LN3@getVkFromS
; Line 219
	movsx	eax, cl
	pop	esi
	mov	DWORD PTR _vk$[esp-4], eax
	jmp	_toupper
$LN3@getVkFromS:
; Line 220
	lea	eax, DWORD PTR [ecx-48]
	cmp	al, 9
	ja	SHORT $LN4@getVkFromS
; Line 221
	movsx	eax, cl
	pop	esi
; Line 612
	ret	0
$LN4@getVkFromS:
; Line 223
	push	OFFSET ??_C@_0L@KCOHFILK@VK_LBUTTON@
	push	esi
	call	_dslisenum
	add	esp, 8
	test	eax, eax
	je	SHORT $LN5@getVkFromS
; Line 224
	mov	eax, 1
	pop	esi
; Line 612
	ret	0
$LN5@getVkFromS:
; Line 225
	push	OFFSET ??_C@_0L@MLNGHLKD@VK_RBUTTON@
	push	esi
	call	_dslisenum
	add	esp, 8
	test	eax, eax
	je	SHORT $LN6@getVkFromS
; Line 226
	mov	eax, 2
	pop	esi
; Line 612
	ret	0
$LN6@getVkFromS:
; Line 227
	push	OFFSET ??_C@_09INKGPFMC@VK_CANCEL@
	push	esi
	call	_dslisenum
	add	esp, 8
	test	eax, eax
	je	SHORT $LN7@getVkFromS
; Line 228
	mov	eax, 3
	pop	esi
; Line 612
	ret	0
$LN7@getVkFromS:
; Line 229
	push	OFFSET ??_C@_0L@GOENFICE@VK_MBUTTON@
	push	esi
	call	_dslisenum
	add	esp, 8
	test	eax, eax
	je	SHORT $LN8@getVkFromS
; Line 230
	mov	eax, 4
	pop	esi
; Line 612
	ret	0
$LN8@getVkFromS:
; Line 231
	push	OFFSET ??_C@_0M@BMGHKJAF@VK_XBUTTON1@
	push	esi
	call	_dslisenum
	add	esp, 8
	test	eax, eax
	je	SHORT $LN9@getVkFromS
; Line 232
	mov	eax, 5
	pop	esi
; Line 612
	ret	0
$LN9@getVkFromS:
; Line 233
	push	OFFSET ??_C@_0M@DHEKPKMG@VK_XBUTTON2@
	push	esi
	call	_dslisenum
	add	esp, 8
	test	eax, eax
	je	SHORT $LN10@getVkFromS
; Line 234
	mov	eax, 6
	pop	esi
; Line 612
	ret	0
$LN10@getVkFromS:
; Line 235
	push	OFFSET ??_C@_07NCIKNAFA@VK_BACK@
	push	esi
	call	_dslisenum
	add	esp, 8
	test	eax, eax
	je	SHORT $LN11@getVkFromS
; Line 236
	mov	eax, 8
	pop	esi
; Line 612
	ret	0
$LN11@getVkFromS:
; Line 237
	push	OFFSET ??_C@_06KDCAMDM@VK_TAB@
	push	esi
	call	_dslisenum
	add	esp, 8
	test	eax, eax
	je	SHORT $LN12@getVkFromS
; Line 238
	mov	eax, 9
	pop	esi
; Line 612
	ret	0
$LN12@getVkFromS:
; Line 239
	push	OFFSET ??_C@_08PIAECJOM@VK_CLEAR@
	push	esi
	call	_dslisenum
	add	esp, 8
	test	eax, eax
	je	SHORT $LN13@getVkFromS
; Line 240
	mov	eax, 12					; 0000000cH
	pop	esi
; Line 612
	ret	0
$LN13@getVkFromS:
; Line 241
	push	OFFSET ??_C@_09KDODHALJ@VK_RETURN@
	push	esi
	call	_dslisenum
	add	esp, 8
	test	eax, eax
	je	SHORT $LN14@getVkFromS
; Line 242
	mov	eax, 13					; 0000000dH
	pop	esi
; Line 612
	ret	0
$LN14@getVkFromS:
; Line 243
	push	OFFSET ??_C@_08BHJBIDAM@VK_SHIFT@
	push	esi
	call	_dslisenum
	add	esp, 8
	test	eax, eax
	je	SHORT $LN15@getVkFromS
; Line 244
	mov	eax, 16					; 00000010H
	pop	esi
; Line 612
	ret	0
$LN15@getVkFromS:
; Line 245
	push	OFFSET ??_C@_0L@GEFMOENA@VK_CONTROL@
	push	esi
	call	_dslisenum
	add	esp, 8
	test	eax, eax
	je	SHORT $LN16@getVkFromS
; Line 246
	mov	eax, 17					; 00000011H
	pop	esi
; Line 612
	ret	0
$LN16@getVkFromS:
; Line 247
	push	OFFSET ??_C@_07DCBHMFK@VK_MENU@
	push	esi
	call	_dslisenum
	add	esp, 8
	test	eax, eax
	je	SHORT $LN17@getVkFromS
; Line 248
	mov	eax, 18					; 00000012H
	pop	esi
; Line 612
	ret	0
$LN17@getVkFromS:
; Line 249
	push	OFFSET ??_C@_08MPOODJHP@VK_PAUSE@
	push	esi
	call	_dslisenum
	add	esp, 8
	test	eax, eax
	je	SHORT $LN18@getVkFromS
; Line 250
	mov	eax, 19					; 00000013H
	pop	esi
; Line 612
	ret	0
$LN18@getVkFromS:
; Line 251
	push	OFFSET ??_C@_0L@LKDKNNID@VK_CAPITAL@
	push	esi
	call	_dslisenum
	add	esp, 8
	test	eax, eax
	je	SHORT $LN19@getVkFromS
; Line 252
	mov	eax, 20					; 00000014H
	pop	esi
; Line 612
	ret	0
$LN19@getVkFromS:
; Line 253
	push	OFFSET ??_C@_07CNKNMJPI@VK_KANA@
	push	esi
	call	_dslisenum
	add	esp, 8
	test	eax, eax
	jne	$LN202@getVkFromS
; Line 255
	push	OFFSET ??_C@_0L@JCDGCHAJ@VK_HANGEUL@
	push	esi
	call	_dslisenum
	add	esp, 8
	test	eax, eax
	jne	$LN202@getVkFromS
; Line 257
	push	OFFSET ??_C@_09BMOFJFBP@VK_HANGUL@
	push	esi
	call	_dslisenum
	add	esp, 8
	test	eax, eax
	jne	$LN202@getVkFromS
; Line 259
	push	OFFSET ??_C@_09MKKFEJF@VK_IME_ON@
	push	esi
	call	_dslisenum
	add	esp, 8
	test	eax, eax
	je	SHORT $LN23@getVkFromS
; Line 260
	mov	eax, 22					; 00000016H
	pop	esi
; Line 612
	ret	0
$LN23@getVkFromS:
; Line 261
	push	OFFSET ??_C@_08IEAKEKF@VK_JUNJA@
	push	esi
	call	_dslisenum
	add	esp, 8
	test	eax, eax
	je	SHORT $LN24@getVkFromS
; Line 262
	mov	eax, 23					; 00000017H
	pop	esi
; Line 612
	ret	0
$LN24@getVkFromS:
; Line 263
	push	OFFSET ??_C@_08GDGJIPPB@VK_FINAL@
	push	esi
	call	_dslisenum
	add	esp, 8
	test	eax, eax
	je	SHORT $LN25@getVkFromS
; Line 264
	mov	eax, 24					; 00000018H
	pop	esi
; Line 612
	ret	0
$LN25@getVkFromS:
; Line 265
	push	OFFSET ??_C@_08NAOIDEOM@VK_HANJA@
	push	esi
	call	_dslisenum
	add	esp, 8
	test	eax, eax
	jne	$LN201@getVkFromS
; Line 267
	push	OFFSET ??_C@_08JOKFMMEK@VK_KANJI@
	push	esi
	call	_dslisenum
	add	esp, 8
	test	eax, eax
	jne	$LN201@getVkFromS
; Line 269
	push	OFFSET ??_C@_0L@CIFJHEKE@VK_IME_OFF@
	push	esi
	call	_dslisenum
	add	esp, 8
	test	eax, eax
	je	SHORT $LN28@getVkFromS
; Line 270
	mov	eax, 26					; 0000001aH
	pop	esi
; Line 612
	ret	0
$LN28@getVkFromS:
; Line 271
	push	OFFSET ??_C@_09DJNOLFIA@VK_ESCAPE@
	push	esi
	call	_dslisenum
	add	esp, 8
	test	eax, eax
	je	SHORT $LN29@getVkFromS
; Line 272
	mov	eax, 27					; 0000001bH
	pop	esi
; Line 612
	ret	0
$LN29@getVkFromS:
; Line 273
	push	OFFSET ??_C@_0L@EFLHHAOM@VK_CONVERT@
	push	esi
	call	_dslisenum
	add	esp, 8
	test	eax, eax
	je	SHORT $LN30@getVkFromS
; Line 274
	mov	eax, 28					; 0000001cH
	pop	esi
; Line 612
	ret	0
$LN30@getVkFromS:
; Line 275
	push	OFFSET ??_C@_0O@JCIMAAFP@VK_NONCONVERT@
	push	esi
	call	_dslisenum
	add	esp, 8
	test	eax, eax
	je	SHORT $LN31@getVkFromS
; Line 276
	mov	eax, 29					; 0000001dH
	pop	esi
; Line 612
	ret	0
$LN31@getVkFromS:
; Line 277
	push	OFFSET ??_C@_09BCPMCHEP@VK_ACCEPT@
	push	esi
	call	_dslisenum
	add	esp, 8
	test	eax, eax
	je	SHORT $LN32@getVkFromS
; Line 278
	mov	eax, 30					; 0000001eH
	pop	esi
; Line 612
	ret	0
$LN32@getVkFromS:
; Line 279
	push	OFFSET ??_C@_0O@FCDOCDG@VK_MODECHANGE@
	push	esi
	call	_dslisenum
	add	esp, 8
	test	eax, eax
	je	SHORT $LN33@getVkFromS
; Line 280
	mov	eax, 31					; 0000001fH
	pop	esi
; Line 612
	ret	0
$LN33@getVkFromS:
; Line 281
	push	OFFSET ??_C@_08NHKHJGFL@VK_SPACE@
	push	esi
	call	_dslisenum
	add	esp, 8
	test	eax, eax
	je	SHORT $LN34@getVkFromS
; Line 282
	mov	eax, 32					; 00000020H
	pop	esi
; Line 612
	ret	0
$LN34@getVkFromS:
; Line 283
	push	OFFSET ??_C@_08OCNOOCII@VK_PRIOR@
	push	esi
	call	_dslisenum
	add	esp, 8
	test	eax, eax
	je	SHORT $LN35@getVkFromS
; Line 284
	mov	eax, 33					; 00000021H
	pop	esi
; Line 612
	ret	0
$LN35@getVkFromS:
; Line 285
	push	OFFSET ??_C@_07EFDBOIAJ@VK_NEXT@
	push	esi
	call	_dslisenum
	add	esp, 8
	test	eax, eax
	je	SHORT $LN36@getVkFromS
; Line 286
	mov	eax, 34					; 00000022H
	pop	esi
; Line 612
	ret	0
$LN36@getVkFromS:
; Line 287
	push	OFFSET ??_C@_06LPJBNMHN@VK_END@
	push	esi
	call	_dslisenum
	add	esp, 8
	test	eax, eax
	je	SHORT $LN37@getVkFromS
; Line 288
	mov	eax, 35					; 00000023H
	pop	esi
; Line 612
	ret	0
$LN37@getVkFromS:
; Line 289
	push	OFFSET ??_C@_07OMPILPEG@VK_HOME@
	push	esi
	call	_dslisenum
	add	esp, 8
	test	eax, eax
	je	SHORT $LN38@getVkFromS
; Line 290
	mov	eax, 36					; 00000024H
	pop	esi
; Line 612
	ret	0
$LN38@getVkFromS:
; Line 291
	push	OFFSET ??_C@_07CJEJDFBD@VK_LEFT@
	push	esi
	call	_dslisenum
	add	esp, 8
	test	eax, eax
	je	SHORT $LN39@getVkFromS
; Line 292
	mov	eax, 37					; 00000025H
	pop	esi
; Line 612
	ret	0
$LN39@getVkFromS:
; Line 293
	push	OFFSET ??_C@_05PIGLHCBF@VK_UP@
	push	esi
	call	_dslisenum
	add	esp, 8
	test	eax, eax
	je	SHORT $LN40@getVkFromS
; Line 294
	mov	eax, 38					; 00000026H
	pop	esi
; Line 612
	ret	0
$LN40@getVkFromS:
; Line 295
	push	OFFSET ??_C@_08LOMCDCA@VK_RIGHT@
	push	esi
	call	_dslisenum
	add	esp, 8
	test	eax, eax
	je	SHORT $LN41@getVkFromS
; Line 296
	mov	eax, 39					; 00000027H
	pop	esi
; Line 612
	ret	0
$LN41@getVkFromS:
; Line 297
	push	OFFSET ??_C@_07NLENKNCK@VK_DOWN@
	push	esi
	call	_dslisenum
	add	esp, 8
	test	eax, eax
	je	SHORT $LN42@getVkFromS
; Line 298
	mov	eax, 40					; 00000028H
	pop	esi
; Line 612
	ret	0
$LN42@getVkFromS:
; Line 299
	push	OFFSET ??_C@_09KINEMDEN@VK_SELECT@
	push	esi
	call	_dslisenum
	add	esp, 8
	test	eax, eax
	je	SHORT $LN43@getVkFromS
; Line 300
	mov	eax, 41					; 00000029H
	pop	esi
; Line 612
	ret	0
$LN43@getVkFromS:
; Line 301
	push	OFFSET ??_C@_08LFEGCPDJ@VK_PRINT@
	push	esi
	call	_dslisenum
	add	esp, 8
	test	eax, eax
	je	SHORT $LN44@getVkFromS
; Line 302
	mov	eax, 42					; 0000002aH
	pop	esi
; Line 612
	ret	0
$LN44@getVkFromS:
; Line 303
	push	OFFSET ??_C@_0L@OECLDLCH@VK_EXECUTE@
	push	esi
	call	_dslisenum
	add	esp, 8
	test	eax, eax
	je	SHORT $LN45@getVkFromS
; Line 304
	mov	eax, 43					; 0000002bH
	pop	esi
; Line 612
	ret	0
$LN45@getVkFromS:
; Line 305
	push	OFFSET ??_C@_0M@PHCCMJCA@VK_SNAPSHOT@
	push	esi
	call	_dslisenum
	add	esp, 8
	test	eax, eax
	je	SHORT $LN46@getVkFromS
; Line 306
	mov	eax, 44					; 0000002cH
	pop	esi
; Line 612
	ret	0
$LN46@getVkFromS:
; Line 307
	push	OFFSET ??_C@_09POOJDJBK@VK_INSERT@
	push	esi
	call	_dslisenum
	add	esp, 8
	test	eax, eax
	je	SHORT $LN47@getVkFromS
; Line 308
	mov	eax, 45					; 0000002dH
	pop	esi
; Line 612
	ret	0
$LN47@getVkFromS:
; Line 309
	push	OFFSET ??_C@_09EABNPHOI@VK_DELETE@
	push	esi
	call	_dslisenum
	add	esp, 8
	test	eax, eax
	je	SHORT $LN48@getVkFromS
; Line 310
	mov	eax, 46					; 0000002eH
	pop	esi
; Line 612
	ret	0
$LN48@getVkFromS:
; Line 311
	push	OFFSET ??_C@_07LFDCNDAB@VK_HELP@
	push	esi
	call	_dslisenum
	add	esp, 8
	test	eax, eax
	je	SHORT $LN49@getVkFromS
; Line 312
	mov	eax, 47					; 0000002fH
	pop	esi
; Line 612
	ret	0
$LN49@getVkFromS:
; Line 313
	push	OFFSET ??_C@_07GICIBHOB@VK_LWIN@
	push	esi
	call	_dslisenum
	add	esp, 8
	test	eax, eax
	je	SHORT $LN50@getVkFromS
; Line 314
	mov	eax, 91					; 0000005bH
	pop	esi
; Line 612
	ret	0
$LN50@getVkFromS:
; Line 315
	push	OFFSET ??_C@_07LHPIDOAC@VK_RWIN@
	push	esi
	call	_dslisenum
	add	esp, 8
	test	eax, eax
	je	SHORT $LN51@getVkFromS
; Line 316
	mov	eax, 92					; 0000005cH
	pop	esi
; Line 612
	ret	0
$LN51@getVkFromS:
; Line 317
	push	OFFSET ??_C@_07OBPEBPAK@VK_APPS@
	push	esi
	call	_dslisenum
	add	esp, 8
	test	eax, eax
	je	SHORT $LN52@getVkFromS
; Line 318
	mov	eax, 93					; 0000005dH
	pop	esi
; Line 612
	ret	0
$LN52@getVkFromS:
; Line 319
	push	OFFSET ??_C@_08MOONOBCJ@VK_SLEEP@
	push	esi
	call	_dslisenum
	add	esp, 8
	test	eax, eax
	je	SHORT $LN53@getVkFromS
; Line 320
	mov	eax, 95					; 0000005fH
	pop	esi
; Line 612
	ret	0
$LN53@getVkFromS:
; Line 321
	push	OFFSET ??_C@_0L@ICJAMHIF@VK_NUMPAD0@
	push	esi
	call	_dslisenum
	add	esp, 8
	test	eax, eax
	je	SHORT $LN54@getVkFromS
; Line 322
	mov	eax, 96					; 00000060H
	pop	esi
; Line 612
	ret	0
$LN54@getVkFromS:
; Line 323
	push	OFFSET ??_C@_0L@JLILPGME@VK_NUMPAD1@
	push	esi
	call	_dslisenum
	add	esp, 8
	test	eax, eax
	je	SHORT $LN55@getVkFromS
; Line 324
	mov	eax, 97					; 00000061H
	pop	esi
; Line 612
	ret	0
$LN55@getVkFromS:
; Line 325
	push	OFFSET ??_C@_0L@LAKGKFAH@VK_NUMPAD2@
	push	esi
	call	_dslisenum
	add	esp, 8
	test	eax, eax
	je	SHORT $LN56@getVkFromS
; Line 326
	mov	eax, 98					; 00000062H
	pop	esi
; Line 612
	ret	0
$LN56@getVkFromS:
; Line 327
	push	OFFSET ??_C@_0L@KJLNJEEG@VK_NUMPAD3@
	push	esi
	call	_dslisenum
	add	esp, 8
	test	eax, eax
	je	SHORT $LN57@getVkFromS
; Line 328
	mov	eax, 99					; 00000063H
	pop	esi
; Line 612
	ret	0
$LN57@getVkFromS:
; Line 329
	push	OFFSET ??_C@_0L@OGPMACIB@VK_NUMPAD4@
	push	esi
	call	_dslisenum
	add	esp, 8
	test	eax, eax
	je	SHORT $LN58@getVkFromS
; Line 330
	mov	eax, 100				; 00000064H
	pop	esi
; Line 612
	ret	0
$LN58@getVkFromS:
; Line 331
	push	OFFSET ??_C@_0L@PPOHDDMA@VK_NUMPAD5@
	push	esi
	call	_dslisenum
	add	esp, 8
	test	eax, eax
	je	SHORT $LN59@getVkFromS
; Line 332
	mov	eax, 101				; 00000065H
	pop	esi
; Line 612
	ret	0
$LN59@getVkFromS:
; Line 333
	push	OFFSET ??_C@_0L@NEMKGAAD@VK_NUMPAD6@
	push	esi
	call	_dslisenum
	add	esp, 8
	test	eax, eax
	je	SHORT $LN60@getVkFromS
; Line 334
	mov	eax, 102				; 00000066H
	pop	esi
; Line 612
	ret	0
$LN60@getVkFromS:
; Line 335
	push	OFFSET ??_C@_0L@MNNBFBEC@VK_NUMPAD7@
	push	esi
	call	_dslisenum
	add	esp, 8
	test	eax, eax
	je	SHORT $LN61@getVkFromS
; Line 336
	mov	eax, 103				; 00000067H
	pop	esi
; Line 612
	ret	0
$LN61@getVkFromS:
; Line 337
	push	OFFSET ??_C@_0L@EKEJENIN@VK_NUMPAD8@
	push	esi
	call	_dslisenum
	add	esp, 8
	test	eax, eax
	je	SHORT $LN62@getVkFromS
; Line 338
	mov	eax, 104				; 00000068H
	pop	esi
; Line 612
	ret	0
$LN62@getVkFromS:
; Line 339
	push	OFFSET ??_C@_0L@FDFCHMMM@VK_NUMPAD9@
	push	esi
	call	_dslisenum
	add	esp, 8
	test	eax, eax
	je	SHORT $LN63@getVkFromS
; Line 340
	mov	eax, 105				; 00000069H
	pop	esi
; Line 612
	ret	0
$LN63@getVkFromS:
; Line 341
	push	OFFSET ??_C@_0M@EAKCGOCP@VK_MULTIPLY@
	push	esi
	call	_dslisenum
	add	esp, 8
	test	eax, eax
	je	SHORT $LN64@getVkFromS
; Line 342
	mov	eax, 106				; 0000006aH
	pop	esi
; Line 612
	ret	0
$LN64@getVkFromS:
; Line 343
	push	OFFSET ??_C@_06DNGEMOPM@VK_ADD@
	push	esi
	call	_dslisenum
	add	esp, 8
	test	eax, eax
	je	SHORT $LN65@getVkFromS
; Line 344
	mov	eax, 107				; 0000006bH
	pop	esi
; Line 612
	ret	0
$LN65@getVkFromS:
; Line 345
	push	OFFSET ??_C@_0N@BBNOCIBO@VK_SEPARATOR@
	push	esi
	call	_dslisenum
	add	esp, 8
	test	eax, eax
	je	SHORT $LN66@getVkFromS
; Line 346
	mov	eax, 108				; 0000006cH
	pop	esi
; Line 612
	ret	0
$LN66@getVkFromS:
; Line 347
	push	OFFSET ??_C@_0M@DFPICDII@VK_SUBTRACT@
	push	esi
	call	_dslisenum
	add	esp, 8
	test	eax, eax
	je	SHORT $LN67@getVkFromS
; Line 348
	mov	eax, 109				; 0000006dH
	pop	esi
; Line 612
	ret	0
$LN67@getVkFromS:
; Line 349
	push	OFFSET ??_C@_0L@OMODJIKJ@VK_DECIMAL@
	push	esi
	call	_dslisenum
	add	esp, 8
	test	eax, eax
	je	SHORT $LN68@getVkFromS
; Line 350
	mov	eax, 110				; 0000006eH
	pop	esi
; Line 612
	ret	0
$LN68@getVkFromS:
; Line 351
	push	OFFSET ??_C@_09ELHPKEHI@VK_DIVIDE@
	push	esi
	call	_dslisenum
	add	esp, 8
	test	eax, eax
	je	SHORT $LN69@getVkFromS
; Line 352
	mov	eax, 111				; 0000006fH
	pop	esi
; Line 612
	ret	0
$LN69@getVkFromS:
; Line 353
	push	OFFSET ??_C@_05JKONDFNK@VK_F1@
	push	esi
	call	_dslisenum
	add	esp, 8
	test	eax, eax
	je	SHORT $LN70@getVkFromS
; Line 354
	mov	eax, 112				; 00000070H
	pop	esi
; Line 612
	ret	0
$LN70@getVkFromS:
; Line 355
	push	OFFSET ??_C@_05LBMAGGBJ@VK_F2@
	push	esi
	call	_dslisenum
	add	esp, 8
	test	eax, eax
	je	SHORT $LN71@getVkFromS
; Line 356
	mov	eax, 113				; 00000071H
	pop	esi
; Line 612
	ret	0
$LN71@getVkFromS:
; Line 357
	push	OFFSET ??_C@_05KINLFHFI@VK_F3@
	push	esi
	call	_dslisenum
	add	esp, 8
	test	eax, eax
	je	SHORT $LN72@getVkFromS
; Line 358
	mov	eax, 114				; 00000072H
	pop	esi
; Line 612
	ret	0
$LN72@getVkFromS:
; Line 359
	push	OFFSET ??_C@_05OHJKMBJP@VK_F4@
	push	esi
	call	_dslisenum
	add	esp, 8
	test	eax, eax
	je	SHORT $LN73@getVkFromS
; Line 360
	mov	eax, 115				; 00000073H
	pop	esi
; Line 612
	ret	0
$LN73@getVkFromS:
; Line 361
	push	OFFSET ??_C@_05POIBPANO@VK_F5@
	push	esi
	call	_dslisenum
	add	esp, 8
	test	eax, eax
	je	SHORT $LN74@getVkFromS
; Line 362
	mov	eax, 116				; 00000074H
	pop	esi
; Line 612
	ret	0
$LN74@getVkFromS:
; Line 363
	push	OFFSET ??_C@_05NFKMKDBN@VK_F6@
	push	esi
	call	_dslisenum
	add	esp, 8
	test	eax, eax
	je	SHORT $LN75@getVkFromS
; Line 364
	mov	eax, 117				; 00000075H
	pop	esi
; Line 612
	ret	0
$LN75@getVkFromS:
; Line 365
	push	OFFSET ??_C@_05MMLHJCFM@VK_F7@
	push	esi
	call	_dslisenum
	add	esp, 8
	test	eax, eax
	je	SHORT $LN76@getVkFromS
; Line 366
	mov	eax, 118				; 00000076H
	pop	esi
; Line 612
	ret	0
$LN76@getVkFromS:
; Line 367
	push	OFFSET ??_C@_05ELCPIOJD@VK_F8@
	push	esi
	call	_dslisenum
	add	esp, 8
	test	eax, eax
	je	SHORT $LN77@getVkFromS
; Line 368
	mov	eax, 119				; 00000077H
	pop	esi
; Line 612
	ret	0
$LN77@getVkFromS:
; Line 369
	push	OFFSET ??_C@_05FCDELPNC@VK_F9@
	push	esi
	call	_dslisenum
	add	esp, 8
	test	eax, eax
	je	SHORT $LN78@getVkFromS
; Line 370
	mov	eax, 120				; 00000078H
	pop	esi
; Line 612
	ret	0
$LN78@getVkFromS:
; Line 371
	push	OFFSET ??_C@_06LJNKOAAM@VK_F10@
	push	esi
	call	_dslisenum
	add	esp, 8
	test	eax, eax
	je	SHORT $LN79@getVkFromS
; Line 372
	mov	eax, 121				; 00000079H
	pop	esi
; Line 612
	ret	0
$LN79@getVkFromS:
; Line 373
	push	OFFSET ??_C@_06KAMBNBEN@VK_F11@
	push	esi
	call	_dslisenum
	add	esp, 8
	test	eax, eax
	je	SHORT $LN80@getVkFromS
; Line 374
	mov	eax, 122				; 0000007aH
	pop	esi
; Line 612
	ret	0
$LN80@getVkFromS:
; Line 375
	push	OFFSET ??_C@_06ILOMICIO@VK_F12@
	push	esi
	call	_dslisenum
	add	esp, 8
	test	eax, eax
	je	SHORT $LN81@getVkFromS
; Line 376
	mov	eax, 123				; 0000007bH
	pop	esi
; Line 612
	ret	0
$LN81@getVkFromS:
; Line 377
	push	OFFSET ??_C@_06JCPHLDMP@VK_F13@
	push	esi
	call	_dslisenum
	add	esp, 8
	test	eax, eax
	je	SHORT $LN82@getVkFromS
; Line 378
	mov	eax, 124				; 0000007cH
	pop	esi
; Line 612
	ret	0
$LN82@getVkFromS:
; Line 379
	push	OFFSET ??_C@_06NNLGCFAI@VK_F14@
	push	esi
	call	_dslisenum
	add	esp, 8
	test	eax, eax
	je	SHORT $LN83@getVkFromS
; Line 380
	mov	eax, 125				; 0000007dH
	pop	esi
; Line 612
	ret	0
$LN83@getVkFromS:
; Line 381
	push	OFFSET ??_C@_06MEKNBEEJ@VK_F15@
	push	esi
	call	_dslisenum
	add	esp, 8
	test	eax, eax
	je	SHORT $LN84@getVkFromS
; Line 382
	mov	eax, 126				; 0000007eH
	pop	esi
; Line 612
	ret	0
$LN84@getVkFromS:
; Line 383
	push	OFFSET ??_C@_06OPIAEHIK@VK_F16@
	push	esi
	call	_dslisenum
	add	esp, 8
	test	eax, eax
	je	SHORT $LN85@getVkFromS
; Line 384
	mov	eax, 127				; 0000007fH
	pop	esi
; Line 612
	ret	0
$LN85@getVkFromS:
; Line 385
	push	OFFSET ??_C@_06PGJLHGML@VK_F17@
	push	esi
	call	_dslisenum
	add	esp, 8
	test	eax, eax
	je	SHORT $LN86@getVkFromS
; Line 386
	mov	eax, 128				; 00000080H
	pop	esi
; Line 612
	ret	0
$LN86@getVkFromS:
; Line 387
	push	OFFSET ??_C@_06HBADGKAE@VK_F18@
	push	esi
	call	_dslisenum
	add	esp, 8
	test	eax, eax
	je	SHORT $LN87@getVkFromS
; Line 388
	mov	eax, 129				; 00000081H
	pop	esi
; Line 612
	ret	0
$LN87@getVkFromS:
; Line 389
	push	OFFSET ??_C@_06GIBIFLEF@VK_F19@
	push	esi
	call	_dslisenum
	add	esp, 8
	test	eax, eax
	je	SHORT $LN88@getVkFromS
; Line 390
	mov	eax, 130				; 00000082H
	pop	esi
; Line 612
	ret	0
$LN88@getVkFromS:
; Line 391
	push	OFFSET ??_C@_06LLJMFOFF@VK_F20@
	push	esi
	call	_dslisenum
	add	esp, 8
	test	eax, eax
	je	SHORT $LN89@getVkFromS
; Line 392
	mov	eax, 131				; 00000083H
	pop	esi
; Line 612
	ret	0
$LN89@getVkFromS:
; Line 393
	push	OFFSET ??_C@_06KCIHGPBE@VK_F21@
	push	esi
	call	_dslisenum
	add	esp, 8
	test	eax, eax
	je	SHORT $LN90@getVkFromS
; Line 394
	mov	eax, 132				; 00000084H
	pop	esi
; Line 612
	ret	0
$LN90@getVkFromS:
; Line 395
	push	OFFSET ??_C@_06IJKKDMNH@VK_F22@
	push	esi
	call	_dslisenum
	add	esp, 8
	test	eax, eax
	je	SHORT $LN91@getVkFromS
; Line 396
	mov	eax, 133				; 00000085H
	pop	esi
; Line 612
	ret	0
$LN91@getVkFromS:
; Line 397
	push	OFFSET ??_C@_06JALBANJG@VK_F23@
	push	esi
	call	_dslisenum
	add	esp, 8
	test	eax, eax
	je	SHORT $LN92@getVkFromS
; Line 398
	mov	eax, 134				; 00000086H
	pop	esi
; Line 612
	ret	0
$LN92@getVkFromS:
; Line 399
	push	OFFSET ??_C@_06NPPAJLFB@VK_F24@
	push	esi
	call	_dslisenum
	add	esp, 8
	test	eax, eax
	je	SHORT $LN93@getVkFromS
; Line 400
	mov	eax, 135				; 00000087H
	pop	esi
; Line 612
	ret	0
$LN93@getVkFromS:
; Line 401
	push	OFFSET ??_C@_0BD@OPMFFLEC@VK_NAVIGATION_VIEW@
	push	esi
	call	_dslisenum
	add	esp, 8
	test	eax, eax
	je	SHORT $LN94@getVkFromS
; Line 402
	mov	eax, 136				; 00000088H
	pop	esi
; Line 612
	ret	0
$LN94@getVkFromS:
; Line 403
	push	OFFSET ??_C@_0BD@IMEAMPAK@VK_NAVIGATION_MENU@
	push	esi
	call	_dslisenum
	add	esp, 8
	test	eax, eax
	je	SHORT $LN95@getVkFromS
; Line 404
	mov	eax, 137				; 00000089H
	pop	esi
; Line 612
	ret	0
$LN95@getVkFromS:
; Line 405
	push	OFFSET ??_C@_0BB@OOCLLJD@VK_NAVIGATION_UP@
	push	esi
	call	_dslisenum
	add	esp, 8
	test	eax, eax
	je	SHORT $LN96@getVkFromS
; Line 406
	mov	eax, 138				; 0000008aH
	pop	esi
; Line 612
	ret	0
$LN96@getVkFromS:
; Line 407
	push	OFFSET ??_C@_0BD@FECMBOHK@VK_NAVIGATION_DOWN@
	push	esi
	call	_dslisenum
	add	esp, 8
	test	eax, eax
	je	SHORT $LN97@getVkFromS
; Line 408
	mov	eax, 139				; 0000008bH
	pop	esi
; Line 612
	ret	0
$LN97@getVkFromS:
; Line 409
	push	OFFSET ??_C@_0BD@KGCIIGED@VK_NAVIGATION_LEFT@
	push	esi
	call	_dslisenum
	add	esp, 8
	test	eax, eax
	je	SHORT $LN98@getVkFromS
; Line 410
	mov	eax, 140				; 0000008cH
	pop	esi
; Line 612
	ret	0
$LN98@getVkFromS:
; Line 411
	push	OFFSET ??_C@_0BE@GAAIBDGH@VK_NAVIGATION_RIGHT@
	push	esi
	call	_dslisenum
	add	esp, 8
	test	eax, eax
	je	SHORT $LN99@getVkFromS
; Line 412
	mov	eax, 141				; 0000008dH
	pop	esi
; Line 612
	ret	0
$LN99@getVkFromS:
; Line 413
	push	OFFSET ??_C@_0BF@PKCPBHEM@VK_NAVIGATION_ACCEPT@
	push	esi
	call	_dslisenum
	add	esp, 8
	test	eax, eax
	je	SHORT $LN100@getVkFromS
; Line 414
	mov	eax, 142				; 0000008eH
	pop	esi
; Line 612
	ret	0
$LN100@getVkFromS:
; Line 415
	push	OFFSET ??_C@_0BF@GFHFMFMB@VK_NAVIGATION_CANCEL@
	push	esi
	call	_dslisenum
	add	esp, 8
	test	eax, eax
	je	SHORT $LN101@getVkFromS
; Line 416
	mov	eax, 143				; 0000008fH
	pop	esi
; Line 612
	ret	0
$LN101@getVkFromS:
; Line 417
	push	OFFSET ??_C@_0L@ONLHMIN@VK_NUMLOCK@
	push	esi
	call	_dslisenum
	add	esp, 8
	test	eax, eax
	je	SHORT $LN102@getVkFromS
; Line 418
	mov	eax, 144				; 00000090H
	pop	esi
; Line 612
	ret	0
$LN102@getVkFromS:
; Line 419
	push	OFFSET ??_C@_09EHKHDGLD@VK_SCROLL@
	push	esi
	call	_dslisenum
	add	esp, 8
	test	eax, eax
	je	SHORT $LN103@getVkFromS
; Line 420
	mov	eax, 145				; 00000091H
	pop	esi
; Line 612
	ret	0
$LN103@getVkFromS:
; Line 421
	push	OFFSET ??_C@_0BB@GKNKAJKJ@VK_OEM_NEC_EQUAL@
	push	esi
	call	_dslisenum
	add	esp, 8
	test	eax, eax
	jne	$LN200@getVkFromS
; Line 423
	push	OFFSET ??_C@_0BA@GBFKLLKL@VK_OEM_FJ_JISHO@
	push	esi
	call	_dslisenum
	add	esp, 8
	test	eax, eax
	jne	$LN200@getVkFromS
; Line 425
	push	OFFSET ??_C@_0BC@BOIHNEME@VK_OEM_FJ_MASSHOU@
	push	esi
	call	_dslisenum
	add	esp, 8
	test	eax, eax
	je	SHORT $LN106@getVkFromS
; Line 426
	mov	eax, 147				; 00000093H
	pop	esi
; Line 612
	ret	0
$LN106@getVkFromS:
; Line 427
	push	OFFSET ??_C@_0BC@FMKLNPFB@VK_OEM_FJ_TOUROKU@
	push	esi
	call	_dslisenum
	add	esp, 8
	test	eax, eax
	je	SHORT $LN107@getVkFromS
; Line 428
	mov	eax, 148				; 00000094H
	pop	esi
; Line 612
	ret	0
$LN107@getVkFromS:
; Line 429
	push	OFFSET ??_C@_0P@KBFJLADM@VK_OEM_FJ_LOYA@
	push	esi
	call	_dslisenum
	add	esp, 8
	test	eax, eax
	je	SHORT $LN108@getVkFromS
; Line 430
	mov	eax, 149				; 00000095H
	pop	esi
; Line 612
	ret	0
$LN108@getVkFromS:
; Line 431
	push	OFFSET ??_C@_0P@HOIJJJNP@VK_OEM_FJ_ROYA@
	push	esi
	call	_dslisenum
	add	esp, 8
	test	eax, eax
	je	SHORT $LN109@getVkFromS
; Line 432
	mov	eax, 150				; 00000096H
	pop	esi
; Line 612
	ret	0
$LN109@getVkFromS:
; Line 433
	push	OFFSET ??_C@_09FFFABFHP@VK_LSHIFT@
	push	esi
	call	_dslisenum
	add	esp, 8
	test	eax, eax
	je	SHORT $LN110@getVkFromS
; Line 434
	mov	eax, 160				; 000000a0H
	pop	esi
; Line 612
	ret	0
$LN110@getVkFromS:
; Line 435
	push	OFFSET ??_C@_09GCLBPCOM@VK_RSHIFT@
	push	esi
	call	_dslisenum
	add	esp, 8
	test	eax, eax
	je	SHORT $LN111@getVkFromS
; Line 436
	mov	eax, 161				; 000000a1H
	pop	esi
; Line 612
	ret	0
$LN111@getVkFromS:
; Line 437
	push	OFFSET ??_C@_0M@HJCCLKFF@VK_LCONTROL@
	push	esi
	call	_dslisenum
	add	esp, 8
	test	eax, eax
	je	SHORT $LN112@getVkFromS
; Line 438
	mov	eax, 162				; 000000a2H
	pop	esi
; Line 612
	ret	0
$LN112@getVkFromS:
; Line 439
	push	OFFSET ??_C@_0M@BNCACDLG@VK_RCONTROL@
	push	esi
	call	_dslisenum
	add	esp, 8
	test	eax, eax
	je	SHORT $LN113@getVkFromS
; Line 440
	mov	eax, 163				; 000000a3H
	pop	esi
; Line 612
	ret	0
$LN113@getVkFromS:
; Line 441
	push	OFFSET ??_C@_08HACPGDHD@VK_LMENU@
	push	esi
	call	_dslisenum
	add	esp, 8
	test	eax, eax
	je	SHORT $LN114@getVkFromS
; Line 442
	mov	eax, 164				; 000000a4H
	pop	esi
; Line 612
	ret	0
$LN114@getVkFromS:
; Line 443
	push	OFFSET ??_C@_08EJPDAAJI@VK_RMENU@
	push	esi
	call	_dslisenum
	add	esp, 8
	test	eax, eax
	je	SHORT $LN115@getVkFromS
; Line 444
	mov	eax, 165				; 000000a5H
	pop	esi
; Line 612
	ret	0
$LN115@getVkFromS:
; Line 445
	push	OFFSET ??_C@_0BA@PNAPEFAJ@VK_BROWSER_BACK@
	push	esi
	call	_dslisenum
	add	esp, 8
	test	eax, eax
	je	SHORT $LN116@getVkFromS
; Line 446
	mov	eax, 166				; 000000a6H
	pop	esi
; Line 612
	ret	0
$LN116@getVkFromS:
; Line 447
	push	OFFSET ??_C@_0BD@HDAKAMDO@VK_BROWSER_FORWARD@
	push	esi
	call	_dslisenum
	add	esp, 8
	test	eax, eax
	je	SHORT $LN117@getVkFromS
; Line 448
	mov	eax, 167				; 000000a7H
	pop	esi
; Line 612
	ret	0
$LN117@getVkFromS:
; Line 449
	push	OFFSET ??_C@_0BD@FNDJBBDA@VK_BROWSER_REFRESH@
	push	esi
	call	_dslisenum
	add	esp, 8
	test	eax, eax
	je	SHORT $LN118@getVkFromS
; Line 450
	mov	eax, 168				; 000000a8H
	pop	esi
; Line 612
	ret	0
$LN118@getVkFromS:
; Line 451
	push	OFFSET ??_C@_0BA@GHGEGOGI@VK_BROWSER_STOP@
	push	esi
	call	_dslisenum
	add	esp, 8
	test	eax, eax
	je	SHORT $LN119@getVkFromS
; Line 452
	mov	eax, 169				; 000000a9H
	pop	esi
; Line 612
	ret	0
$LN119@getVkFromS:
; Line 453
	push	OFFSET ??_C@_0BC@JAOBJLNE@VK_BROWSER_SEARCH@
	push	esi
	call	_dslisenum
	add	esp, 8
	test	eax, eax
	je	SHORT $LN120@getVkFromS
; Line 454
	mov	eax, 170				; 000000aaH
	pop	esi
; Line 612
	ret	0
$LN120@getVkFromS:
; Line 455
	push	OFFSET ??_C@_0BF@HFGGODBI@VK_BROWSER_FAVORITES@
	push	esi
	call	_dslisenum
	add	esp, 8
	test	eax, eax
	je	SHORT $LN121@getVkFromS
; Line 456
	mov	eax, 171				; 000000abH
	pop	esi
; Line 612
	ret	0
$LN121@getVkFromS:
; Line 457
	push	OFFSET ??_C@_0BA@MDHNCKBP@VK_BROWSER_HOME@
	push	esi
	call	_dslisenum
	add	esp, 8
	test	eax, eax
	je	SHORT $LN122@getVkFromS
; Line 458
	mov	eax, 172				; 000000acH
	pop	esi
; Line 612
	ret	0
$LN122@getVkFromS:
; Line 459
	push	OFFSET ??_C@_0P@GNPJHKNG@VK_VOLUME_MUTE@
	push	esi
	call	_dslisenum
	add	esp, 8
	test	eax, eax
	je	SHORT $LN123@getVkFromS
; Line 460
	mov	eax, 173				; 000000adH
	pop	esi
; Line 612
	ret	0
$LN123@getVkFromS:
; Line 461
	push	OFFSET ??_C@_0P@LOPPMIMO@VK_VOLUME_DOWN@
	push	esi
	call	_dslisenum
	add	esp, 8
	test	eax, eax
	je	SHORT $LN124@getVkFromS
; Line 462
	mov	eax, 174				; 000000aeH
	pop	esi
; Line 612
	ret	0
$LN124@getVkFromS:
; Line 463
	push	OFFSET ??_C@_0N@CJNKCANG@VK_VOLUME_UP@
	push	esi
	call	_dslisenum
	add	esp, 8
	test	eax, eax
	je	SHORT $LN125@getVkFromS
; Line 464
	mov	eax, 175				; 000000afH
	pop	esi
; Line 612
	ret	0
$LN125@getVkFromS:
; Line 465
	push	OFFSET ??_C@_0BE@BIDJEODC@VK_MEDIA_NEXT_TRACK@
	push	esi
	call	_dslisenum
	add	esp, 8
	test	eax, eax
	je	SHORT $LN126@getVkFromS
; Line 466
	mov	eax, 176				; 000000b0H
	pop	esi
; Line 612
	ret	0
$LN126@getVkFromS:
; Line 467
	push	OFFSET ??_C@_0BE@DOGBJJDF@VK_MEDIA_PREV_TRACK@
	push	esi
	call	_dslisenum
	add	esp, 8
	test	eax, eax
	je	SHORT $LN127@getVkFromS
; Line 468
	mov	eax, 177				; 000000b1H
	pop	esi
; Line 612
	ret	0
$LN127@getVkFromS:
; Line 469
	push	OFFSET ??_C@_0O@NAMAIAAP@VK_MEDIA_STOP@
	push	esi
	call	_dslisenum
	add	esp, 8
	test	eax, eax
	je	SHORT $LN128@getVkFromS
; Line 470
	mov	eax, 178				; 000000b2H
	pop	esi
; Line 612
	ret	0
$LN128@getVkFromS:
; Line 471
	push	OFFSET ??_C@_0BE@GCMFIKLM@VK_MEDIA_PLAY_PAUSE@
	push	esi
	call	_dslisenum
	add	esp, 8
	test	eax, eax
	je	SHORT $LN129@getVkFromS
; Line 472
	mov	eax, 179				; 000000b3H
	pop	esi
; Line 612
	ret	0
$LN129@getVkFromS:
; Line 473
	push	OFFSET ??_C@_0P@ECJEBKJD@VK_LAUNCH_MAIL@
	push	esi
	call	_dslisenum
	add	esp, 8
	test	eax, eax
	je	SHORT $LN130@getVkFromS
; Line 474
	mov	eax, 180				; 000000b4H
	pop	esi
; Line 612
	ret	0
$LN130@getVkFromS:
; Line 475
	push	OFFSET ??_C@_0BH@HNFLLKIH@VK_LAUNCH_MEDIA_SELECT@
	push	esi
	call	_dslisenum
	add	esp, 8
	test	eax, eax
	je	SHORT $LN131@getVkFromS
; Line 476
	mov	eax, 181				; 000000b5H
	pop	esi
; Line 612
	ret	0
$LN131@getVkFromS:
; Line 477
	push	OFFSET ??_C@_0P@OGKHFICM@VK_LAUNCH_APP1@
	push	esi
	call	_dslisenum
	add	esp, 8
	test	eax, eax
	je	SHORT $LN132@getVkFromS
; Line 478
	mov	eax, 182				; 000000b6H
	pop	esi
; Line 612
	ret	0
$LN132@getVkFromS:
; Line 479
	push	OFFSET ??_C@_0P@MNIKALOP@VK_LAUNCH_APP2@
	push	esi
	call	_dslisenum
	add	esp, 8
	test	eax, eax
	je	SHORT $LN133@getVkFromS
; Line 480
	mov	eax, 183				; 000000b7H
	pop	esi
; Line 612
	ret	0
$LN133@getVkFromS:
; Line 481
	push	OFFSET ??_C@_08BPAKBFBH@VK_OEM_1@
	push	esi
	call	_dslisenum
	add	esp, 8
	test	eax, eax
	je	SHORT $LN134@getVkFromS
; Line 482
	mov	eax, 186				; 000000baH
	pop	esi
; Line 612
	ret	0
$LN134@getVkFromS:
; Line 483
	push	OFFSET ??_C@_0M@EAHIOBFE@VK_OEM_PLUS@
	push	esi
	call	_dslisenum
	add	esp, 8
	test	eax, eax
	je	SHORT $LN135@getVkFromS
; Line 484
	mov	eax, 187				; 000000bbH
	pop	esi
; Line 612
	ret	0
$LN135@getVkFromS:
; Line 485
	push	OFFSET ??_C@_0N@MENDGIKH@VK_OEM_COMMA@
	push	esi
	call	_dslisenum
	add	esp, 8
	test	eax, eax
	je	SHORT $LN136@getVkFromS
; Line 486
	mov	eax, 188				; 000000bcH
	pop	esi
; Line 612
	ret	0
$LN136@getVkFromS:
; Line 487
	push	OFFSET ??_C@_0N@JONNBIC@VK_OEM_MINUS@
	push	esi
	call	_dslisenum
	add	esp, 8
	test	eax, eax
	je	SHORT $LN137@getVkFromS
; Line 488
	mov	eax, 189				; 000000bdH
	pop	esi
; Line 612
	ret	0
$LN137@getVkFromS:
; Line 489
	push	OFFSET ??_C@_0O@EMICHABJ@VK_OEM_PERIOD@
	push	esi
	call	_dslisenum
	add	esp, 8
	test	eax, eax
	je	SHORT $LN138@getVkFromS
; Line 490
	mov	eax, 190				; 000000beH
	pop	esi
; Line 612
	ret	0
$LN138@getVkFromS:
; Line 491
	push	OFFSET ??_C@_08DECHEGNE@VK_OEM_2@
	push	esi
	call	_dslisenum
	add	esp, 8
	test	eax, eax
	je	SHORT $LN139@getVkFromS
; Line 492
	mov	eax, 191				; 000000bfH
	pop	esi
; Line 612
	ret	0
$LN139@getVkFromS:
; Line 493
	push	OFFSET ??_C@_08CNDMHHJF@VK_OEM_3@
	push	esi
	call	_dslisenum
	add	esp, 8
	test	eax, eax
	je	SHORT $LN140@getVkFromS
; Line 494
	mov	eax, 192				; 000000c0H
	pop	esi
; Line 612
	ret	0
$LN140@getVkFromS:
; Line 495
	push	OFFSET ??_C@_0N@BBJOEMBP@VK_GAMEPAD_A@
	push	esi
	call	_dslisenum
	add	esp, 8
	test	eax, eax
	je	SHORT $LN141@getVkFromS
; Line 496
	mov	eax, 195				; 000000c3H
	pop	esi
; Line 612
	ret	0
$LN141@getVkFromS:
; Line 497
	push	OFFSET ??_C@_0N@DKLDBPNM@VK_GAMEPAD_B@
	push	esi
	call	_dslisenum
	add	esp, 8
	test	eax, eax
	je	SHORT $LN142@getVkFromS
; Line 498
	mov	eax, 196				; 000000c4H
	pop	esi
; Line 612
	ret	0
$LN142@getVkFromS:
; Line 499
	push	OFFSET ??_C@_0N@IKJOOFAH@VK_GAMEPAD_X@
	push	esi
	call	_dslisenum
	add	esp, 8
	test	eax, eax
	je	SHORT $LN143@getVkFromS
; Line 500
	mov	eax, 197				; 000000c5H
	pop	esi
; Line 612
	ret	0
$LN143@getVkFromS:
; Line 501
	push	OFFSET ??_C@_0N@JDIFNEEG@VK_GAMEPAD_Y@
	push	esi
	call	_dslisenum
	add	esp, 8
	test	eax, eax
	je	SHORT $LN144@getVkFromS
; Line 502
	mov	eax, 198				; 000000c6H
	pop	esi
; Line 612
	ret	0
$LN144@getVkFromS:
; Line 503
	push	OFFSET ??_C@_0BK@BAEFDOD@VK_GAMEPAD_RIGHT_SHOULDER@
	push	esi
	call	_dslisenum
	add	esp, 8
	test	eax, eax
	je	SHORT $LN145@getVkFromS
; Line 504
	mov	eax, 199				; 000000c7H
	pop	esi
; Line 612
	ret	0
$LN145@getVkFromS:
; Line 505
	push	OFFSET ??_C@_0BJ@KGHHBGLN@VK_GAMEPAD_LEFT_SHOULDER@
	push	esi
	call	_dslisenum
	add	esp, 8
	test	eax, eax
	je	SHORT $LN146@getVkFromS
; Line 506
	mov	eax, 200				; 000000c8H
	pop	esi
; Line 612
	ret	0
$LN146@getVkFromS:
; Line 507
	push	OFFSET ??_C@_0BI@JIHGGOLL@VK_GAMEPAD_LEFT_TRIGGER@
	push	esi
	call	_dslisenum
	add	esp, 8
	test	eax, eax
	je	SHORT $LN147@getVkFromS
; Line 508
	mov	eax, 201				; 000000c9H
	pop	esi
; Line 612
	ret	0
$LN147@getVkFromS:
; Line 509
	push	OFFSET ??_C@_0BJ@IMBFFBFP@VK_GAMEPAD_RIGHT_TRIGGER@
	push	esi
	call	_dslisenum
	add	esp, 8
	test	eax, eax
	je	SHORT $LN148@getVkFromS
; Line 510
	mov	eax, 202				; 000000caH
	pop	esi
; Line 612
	ret	0
$LN148@getVkFromS:
; Line 511
	push	OFFSET ??_C@_0BD@GOBIDELO@VK_GAMEPAD_DPAD_UP@
	push	esi
	call	_dslisenum
	add	esp, 8
	test	eax, eax
	je	SHORT $LN149@getVkFromS
; Line 512
	mov	eax, 203				; 000000cbH
	pop	esi
; Line 612
	ret	0
$LN149@getVkFromS:
; Line 513
	push	OFFSET ??_C@_0BF@JABLKNO@VK_GAMEPAD_DPAD_DOWN@
	push	esi
	call	_dslisenum
	add	esp, 8
	test	eax, eax
	je	SHORT $LN150@getVkFromS
; Line 514
	mov	eax, 204				; 000000ccH
	pop	esi
; Line 612
	ret	0
$LN150@getVkFromS:
; Line 515
	push	OFFSET ??_C@_0BF@PLAFCCOH@VK_GAMEPAD_DPAD_LEFT@
	push	esi
	call	_dslisenum
	add	esp, 8
	test	eax, eax
	je	SHORT $LN151@getVkFromS
; Line 516
	mov	eax, 205				; 000000cdH
	pop	esi
; Line 612
	ret	0
$LN151@getVkFromS:
; Line 517
	push	OFFSET ??_C@_0BG@LBOOFJDC@VK_GAMEPAD_DPAD_RIGHT@
	push	esi
	call	_dslisenum
	add	esp, 8
	test	eax, eax
	je	SHORT $LN152@getVkFromS
; Line 518
	mov	eax, 206				; 000000ceH
	pop	esi
; Line 612
	ret	0
$LN152@getVkFromS:
; Line 519
	push	OFFSET ??_C@_0BA@IIPDBGMD@VK_GAMEPAD_MENU@
	push	esi
	call	_dslisenum
	add	esp, 8
	test	eax, eax
	je	SHORT $LN153@getVkFromS
; Line 520
	mov	eax, 207				; 000000cfH
	pop	esi
; Line 612
	ret	0
$LN153@getVkFromS:
; Line 521
	push	OFFSET ??_C@_0BA@OLHGICIL@VK_GAMEPAD_VIEW@
	push	esi
	call	_dslisenum
	add	esp, 8
	test	eax, eax
	je	SHORT $LN154@getVkFromS
; Line 522
	mov	eax, 208				; 000000d0H
	pop	esi
; Line 612
	ret	0
$LN154@getVkFromS:
; Line 523
	push	OFFSET ??_C@_0CC@DDPKKNLP@VK_GAMEPAD_LEFT_THUMBSTICK_BUTT@
	push	esi
	call	_dslisenum
	add	esp, 8
	test	eax, eax
	je	SHORT $LN155@getVkFromS
; Line 524
	mov	eax, 209				; 000000d1H
	pop	esi
; Line 612
	ret	0
$LN155@getVkFromS:
; Line 525
	push	OFFSET ??_C@_0CD@DBIOBADC@VK_GAMEPAD_RIGHT_THUMBSTICK_BUT@
	push	esi
	call	_dslisenum
	add	esp, 8
	test	eax, eax
	je	SHORT $LN156@getVkFromS
; Line 526
	mov	eax, 210				; 000000d2H
	pop	esi
; Line 612
	ret	0
$LN156@getVkFromS:
; Line 527
	push	OFFSET ??_C@_0BO@EFPMHCGE@VK_GAMEPAD_LEFT_THUMBSTICK_UP@
	push	esi
	call	_dslisenum
	add	esp, 8
	test	eax, eax
	je	SHORT $LN157@getVkFromS
; Line 528
	mov	eax, 211				; 000000d3H
	pop	esi
; Line 612
	ret	0
$LN157@getVkFromS:
; Line 529
	push	OFFSET ??_C@_0CA@ONGJFIAK@VK_GAMEPAD_LEFT_THUMBSTICK_DOWN@
	push	esi
	call	_dslisenum
	add	esp, 8
	test	eax, eax
	je	SHORT $LN158@getVkFromS
; Line 530
	mov	eax, 212				; 000000d4H
	pop	esi
; Line 612
	ret	0
$LN158@getVkFromS:
; Line 531
	push	OFFSET ??_C@_0CB@DALECHBN@VK_GAMEPAD_LEFT_THUMBSTICK_RIGH@
	push	esi
	call	_dslisenum
	add	esp, 8
	test	eax, eax
	je	SHORT $LN159@getVkFromS
; Line 532
	mov	eax, 213				; 000000d5H
	pop	esi
; Line 612
	ret	0
$LN159@getVkFromS:
; Line 533
	push	OFFSET ??_C@_0CA@BPGNMADD@VK_GAMEPAD_LEFT_THUMBSTICK_LEFT@
	push	esi
	call	_dslisenum
	add	esp, 8
	test	eax, eax
	je	SHORT $LN160@getVkFromS
; Line 534
	mov	eax, 214				; 000000d6H
	pop	esi
; Line 612
	ret	0
$LN160@getVkFromS:
; Line 535
	push	OFFSET ??_C@_0BP@NJOEFHOG@VK_GAMEPAD_RIGHT_THUMBSTICK_UP@
	push	esi
	call	_dslisenum
	add	esp, 8
	test	eax, eax
	je	SHORT $LN161@getVkFromS
; Line 536
	mov	eax, 215				; 000000d7H
	pop	esi
; Line 612
	ret	0
$LN161@getVkFromS:
; Line 537
	push	OFFSET ??_C@_0CB@KPNIOKJM@VK_GAMEPAD_RIGHT_THUMBSTICK_DOW@
	push	esi
	call	_dslisenum
	add	esp, 8
	test	eax, eax
	je	SHORT $LN162@getVkFromS
; Line 538
	mov	eax, 216				; 000000d8H
	pop	esi
; Line 612
	ret	0
$LN162@getVkFromS:
; Line 539
	push	OFFSET ??_C@_0CC@CJJKKANO@VK_GAMEPAD_RIGHT_THUMBSTICK_RIG@
	push	esi
	call	_dslisenum
	add	esp, 8
	test	eax, eax
	je	SHORT $LN163@getVkFromS
; Line 540
	mov	eax, 217				; 000000d9H
	pop	esi
; Line 612
	ret	0
$LN163@getVkFromS:
; Line 541
	push	OFFSET ??_C@_0CB@FNNMHCKF@VK_GAMEPAD_RIGHT_THUMBSTICK_LEF@
	push	esi
	call	_dslisenum
	add	esp, 8
	test	eax, eax
	je	SHORT $LN164@getVkFromS
; Line 542
	mov	eax, 218				; 000000daH
	pop	esi
; Line 612
	ret	0
$LN164@getVkFromS:
; Line 543
	push	OFFSET ??_C@_08GCHNOBFC@VK_OEM_4@
	push	esi
	call	_dslisenum
	add	esp, 8
	test	eax, eax
	je	SHORT $LN165@getVkFromS
; Line 544
	mov	eax, 219				; 000000dbH
	pop	esi
; Line 612
	ret	0
$LN165@getVkFromS:
; Line 545
	push	OFFSET ??_C@_08HLGGNABD@VK_OEM_5@
	push	esi
	call	_dslisenum
	add	esp, 8
	test	eax, eax
	je	SHORT $LN166@getVkFromS
; Line 546
	mov	eax, 220				; 000000dcH
	pop	esi
; Line 612
	ret	0
$LN166@getVkFromS:
; Line 547
	push	OFFSET ??_C@_08FAELIDNA@VK_OEM_6@
	push	esi
	call	_dslisenum
	add	esp, 8
	test	eax, eax
	je	SHORT $LN167@getVkFromS
; Line 548
	mov	eax, 221				; 000000ddH
	pop	esi
; Line 612
	ret	0
$LN167@getVkFromS:
; Line 549
	push	OFFSET ??_C@_08EJFALCJB@VK_OEM_7@
	push	esi
	call	_dslisenum
	add	esp, 8
	test	eax, eax
	je	SHORT $LN168@getVkFromS
; Line 550
	mov	eax, 222				; 000000deH
	pop	esi
; Line 612
	ret	0
$LN168@getVkFromS:
; Line 551
	push	OFFSET ??_C@_08MOMIKOFO@VK_OEM_8@
	push	esi
	call	_dslisenum
	add	esp, 8
	test	eax, eax
	je	SHORT $LN169@getVkFromS
; Line 552
	mov	eax, 223				; 000000dfH
	pop	esi
; Line 612
	ret	0
$LN169@getVkFromS:
; Line 553
	push	OFFSET ??_C@_09KFFPDANO@VK_OEM_AX@
	push	esi
	call	_dslisenum
	add	esp, 8
	test	eax, eax
	je	SHORT $LN170@getVkFromS
; Line 554
	mov	eax, 225				; 000000e1H
	pop	esi
; Line 612
	ret	0
$LN170@getVkFromS:
; Line 555
	push	OFFSET ??_C@_0L@KBEFMOJG@VK_OEM_102@
	push	esi
	call	_dslisenum
	add	esp, 8
	test	eax, eax
	je	SHORT $LN171@getVkFromS
; Line 556
	mov	eax, 226				; 000000e2H
	pop	esi
; Line 612
	ret	0
$LN171@getVkFromS:
; Line 557
	push	OFFSET ??_C@_0M@HHNANIIF@VK_ICO_HELP@
	push	esi
	call	_dslisenum
	add	esp, 8
	test	eax, eax
	je	SHORT $LN172@getVkFromS
; Line 558
	mov	eax, 227				; 000000e3H
	pop	esi
; Line 612
	ret	0
$LN172@getVkFromS:
; Line 559
	push	OFFSET ??_C@_09JCABFGFB@VK_ICO_00@
	push	esi
	call	_dslisenum
	add	esp, 8
	test	eax, eax
	je	SHORT $LN173@getVkFromS
; Line 560
	mov	eax, 228				; 000000e4H
	pop	esi
; Line 612
	ret	0
$LN173@getVkFromS:
; Line 561
	push	OFFSET ??_C@_0O@DEOHIMHJ@VK_PROCESSKEY@
	push	esi
	call	_dslisenum
	add	esp, 8
	test	eax, eax
	je	SHORT $LN174@getVkFromS
; Line 562
	mov	eax, 229				; 000000e5H
	pop	esi
; Line 612
	ret	0
$LN174@getVkFromS:
; Line 563
	push	OFFSET ??_C@_0N@BCBDIMNO@VK_ICO_CLEAR@
	push	esi
	call	_dslisenum
	add	esp, 8
	test	eax, eax
	je	SHORT $LN175@getVkFromS
; Line 564
	mov	eax, 230				; 000000e6H
	pop	esi
; Line 612
	ret	0
$LN175@getVkFromS:
; Line 565
	push	OFFSET ??_C@_09GEKPAHJG@VK_PACKET@
	push	esi
	call	_dslisenum
	add	esp, 8
	test	eax, eax
	je	SHORT $LN176@getVkFromS
; Line 566
	mov	eax, 231				; 000000e7H
	pop	esi
; Line 612
	ret	0
$LN176@getVkFromS:
; Line 567
	push	OFFSET ??_C@_0N@MPIJDGDI@VK_OEM_RESET@
	push	esi
	call	_dslisenum
	add	esp, 8
	test	eax, eax
	je	SHORT $LN177@getVkFromS
; Line 568
	mov	eax, 233				; 000000e9H
	pop	esi
; Line 612
	ret	0
$LN177@getVkFromS:
; Line 569
	push	OFFSET ??_C@_0M@HOCBNHGJ@VK_OEM_JUMP@
	push	esi
	call	_dslisenum
	add	esp, 8
	test	eax, eax
	je	SHORT $LN178@getVkFromS
; Line 570
	mov	eax, 234				; 000000eaH
	pop	esi
; Line 612
	ret	0
$LN178@getVkFromS:
; Line 571
	push	OFFSET ??_C@_0L@FMMBAPFE@VK_OEM_PA1@
	push	esi
	call	_dslisenum
	add	esp, 8
	test	eax, eax
	je	SHORT $LN179@getVkFromS
; Line 572
	mov	eax, 235				; 000000ebH
	pop	esi
; Line 612
	ret	0
$LN179@getVkFromS:
; Line 573
	push	OFFSET ??_C@_0L@HHOMFMJH@VK_OEM_PA2@
	push	esi
	call	_dslisenum
	add	esp, 8
	test	eax, eax
	je	SHORT $LN180@getVkFromS
; Line 574
	mov	eax, 236				; 000000ecH
	pop	esi
; Line 612
	ret	0
$LN180@getVkFromS:
; Line 575
	push	OFFSET ??_C@_0L@GOPHGNNG@VK_OEM_PA3@
	push	esi
	call	_dslisenum
	add	esp, 8
	test	eax, eax
	je	SHORT $LN181@getVkFromS
; Line 576
	mov	eax, 237				; 000000edH
	pop	esi
; Line 612
	ret	0
$LN181@getVkFromS:
; Line 577
	push	OFFSET ??_C@_0O@HPHOCEEK@VK_OEM_WSCTRL@
	push	esi
	call	_dslisenum
	add	esp, 8
	test	eax, eax
	je	SHORT $LN182@getVkFromS
; Line 578
	mov	eax, 238				; 000000eeH
	pop	esi
; Line 612
	ret	0
$LN182@getVkFromS:
; Line 579
	push	OFFSET ??_C@_0N@OFPIOINN@VK_OEM_CUSEL@
	push	esi
	call	_dslisenum
	add	esp, 8
	test	eax, eax
	je	SHORT $LN183@getVkFromS
; Line 580
	mov	eax, 239				; 000000efH
	pop	esi
; Line 612
	ret	0
$LN183@getVkFromS:
; Line 581
	push	OFFSET ??_C@_0M@HGPLCGDN@VK_OEM_ATTN@
	push	esi
	call	_dslisenum
	add	esp, 8
	test	eax, eax
	je	SHORT $LN184@getVkFromS
; Line 582
	mov	eax, 240				; 000000f0H
	pop	esi
; Line 612
	ret	0
$LN184@getVkFromS:
; Line 583
	push	OFFSET ??_C@_0O@CDNHHGAN@VK_OEM_FINISH@
	push	esi
	call	_dslisenum
	add	esp, 8
	test	eax, eax
	je	SHORT $LN185@getVkFromS
; Line 584
	mov	eax, 241				; 000000f1H
	pop	esi
; Line 612
	ret	0
$LN185@getVkFromS:
; Line 585
	push	OFFSET ??_C@_0M@IJKJIJIJ@VK_OEM_COPY@
	push	esi
	call	_dslisenum
	add	esp, 8
	test	eax, eax
	je	SHORT $LN186@getVkFromS
; Line 586
	mov	eax, 242				; 000000f2H
	pop	esi
; Line 612
	ret	0
$LN186@getVkFromS:
; Line 587
	push	OFFSET ??_C@_0M@NHFMHABJ@VK_OEM_AUTO@
	push	esi
	call	_dslisenum
	add	esp, 8
	test	eax, eax
	je	SHORT $LN187@getVkFromS
; Line 588
	mov	eax, 243				; 000000f3H
	pop	esi
; Line 612
	ret	0
$LN187@getVkFromS:
; Line 589
	push	OFFSET ??_C@_0M@DFOKGMNG@VK_OEM_ENLW@
	push	esi
	call	_dslisenum
	add	esp, 8
	test	eax, eax
	je	SHORT $LN188@getVkFromS
; Line 590
	mov	eax, 244				; 000000f4H
	pop	esi
; Line 612
	ret	0
$LN188@getVkFromS:
; Line 591
	push	OFFSET ??_C@_0P@FPCAIFFJ@VK_OEM_BACKTAB@
	push	esi
	call	_dslisenum
	add	esp, 8
	test	eax, eax
	je	SHORT $LN189@getVkFromS
; Line 592
	mov	eax, 245				; 000000f5H
	pop	esi
; Line 612
	ret	0
$LN189@getVkFromS:
; Line 593
	push	OFFSET ??_C@_07JGPDEMJN@VK_ATTN@
	push	esi
	call	_dslisenum
	add	esp, 8
	test	eax, eax
	je	SHORT $LN190@getVkFromS
; Line 594
	mov	eax, 246				; 000000f6H
	pop	esi
; Line 612
	ret	0
$LN190@getVkFromS:
; Line 595
	push	OFFSET ??_C@_08IBOOJPEP@VK_CRSEL@
	push	esi
	call	_dslisenum
	add	esp, 8
	test	eax, eax
	je	SHORT $LN191@getVkFromS
; Line 596
	mov	eax, 247				; 000000f7H
	pop	esi
; Line 612
	ret	0
$LN191@getVkFromS:
; Line 597
	push	OFFSET ??_C@_08BNAHGEPD@VK_EXSEL@
	push	esi
	call	_dslisenum
	add	esp, 8
	test	eax, eax
	je	SHORT $LN192@getVkFromS
; Line 598
	mov	eax, 248				; 000000f8H
	pop	esi
; Line 612
	ret	0
$LN192@getVkFromS:
; Line 599
	push	OFFSET ??_C@_08NFLNBJEN@VK_EREOF@
	push	esi
	call	_dslisenum
	add	esp, 8
	test	eax, eax
	je	SHORT $LN193@getVkFromS
; Line 600
	mov	eax, 249				; 000000f9H
	pop	esi
; Line 612
	ret	0
$LN193@getVkFromS:
; Line 601
	push	OFFSET ??_C@_07EBLAGINC@VK_PLAY@
	push	esi
	call	_dslisenum
	add	esp, 8
	test	eax, eax
	je	SHORT $LN194@getVkFromS
; Line 602
	mov	eax, 250				; 000000faH
	pop	esi
; Line 612
	ret	0
$LN194@getVkFromS:
; Line 603
	push	OFFSET ??_C@_07DNIFCFMC@VK_ZOOM@
	push	esi
	call	_dslisenum
	add	esp, 8
	test	eax, eax
	je	SHORT $LN195@getVkFromS
; Line 604
	mov	eax, 251				; 000000fbH
	pop	esi
; Line 612
	ret	0
$LN195@getVkFromS:
; Line 605
	push	OFFSET ??_C@_09KDKDNHAI@VK_NONAME@
	push	esi
	call	_dslisenum
	add	esp, 8
	test	eax, eax
	je	SHORT $LN196@getVkFromS
; Line 606
	mov	eax, 252				; 000000fcH
	pop	esi
; Line 612
	ret	0
$LN196@getVkFromS:
; Line 607
	push	OFFSET ??_C@_06IBECLBFO@VK_PA1@
	push	esi
	call	_dslisenum
	add	esp, 8
	test	eax, eax
	je	SHORT $LN197@getVkFromS
; Line 608
	mov	eax, 253				; 000000fdH
	pop	esi
; Line 612
	ret	0
$LN197@getVkFromS:
; Line 609
	push	OFFSET ??_C@_0N@CODCICGO@VK_OEM_CLEAR@
	push	esi
	call	_dslisenum
	add	esp, 8
	neg	eax
	sbb	eax, eax
	and	eax, 254				; 000000feH
	pop	esi
; Line 612
	ret	0
$LN200@getVkFromS:
; Line 424
	mov	eax, 146				; 00000092H
	pop	esi
; Line 612
	ret	0
$LN201@getVkFromS:
; Line 268
	mov	eax, 25					; 00000019H
	pop	esi
; Line 612
	ret	0
$LN202@getVkFromS:
; Line 258
	mov	eax, 21					; 00000015H
	pop	esi
; Line 612
	ret	0
_getVkFromString ENDP
_TEXT	ENDS
; Function compile flags: /Ogtpy
;	COMDAT _getDikFromString
_TEXT	SEGMENT
_dik$ = 8						; size = 4
_getDikFromString PROC					; COMDAT
; File C:\Program Files (x86)\Steam\steamapps\common\Bully Scholarship Edition\_derpy_script_loader\src\client\library\lib_input.c
; Line 205
	push	esi
	mov	esi, DWORD PTR _dik$[esp]
	push	edi
	npad	10
$LL7@getDikFrom:
; Line 208
	mov	edi, 160				; 000000a0H
$LL2@getDikFrom:
; Line 210
	push	DWORD PTR _dik_keys[edi*8-8]
	dec	edi
	push	esi
	call	_dslisenum
	add	esp, 8
	test	eax, eax
	jne	SHORT $LN10@getDikFrom
; Line 209
	test	edi, edi
	jne	SHORT $LL2@getDikFrom
; Line 212
	movsx	eax, BYTE PTR [esi]
	push	eax
	call	_toupper
	add	esp, 4
	cmp	eax, 68					; 00000044H
	jne	SHORT $LN5@getDikFrom
	movsx	eax, BYTE PTR [esi+1]
	push	eax
	call	_toupper
	add	esp, 4
	cmp	eax, 73					; 00000049H
	jne	SHORT $LN5@getDikFrom
	movsx	eax, BYTE PTR [esi+2]
	push	eax
	call	_toupper
	add	esp, 4
	cmp	eax, 75					; 0000004bH
	jne	SHORT $LN5@getDikFrom
	cmp	BYTE PTR [esi+3], 95			; 0000005fH
	jne	SHORT $LN5@getDikFrom
; Line 213
	add	esi, 4
	jmp	SHORT $LL7@getDikFrom
$LN5@getDikFrom:
	pop	edi
; Line 214
	xor	eax, eax
; Line 215
	pop	esi
	ret	0
$LN10@getDikFrom:
; Line 211
	mov	eax, DWORD PTR _dik_keys[edi*8+4]
	pop	edi
; Line 215
	pop	esi
	ret	0
_getDikFromString ENDP
_TEXT	ENDS
; Function compile flags: /Ogtpy
;	COMDAT _getController
_TEXT	SEGMENT
tv146 = -4						; size = 4
_lua$ = 8						; size = 4
_stack$ = 12						; size = 4
_getController PROC					; COMDAT
; File C:\Program Files (x86)\Steam\steamapps\common\Bully Scholarship Edition\_derpy_script_loader\src\client\library\lib_input.c
; Line 190
	push	ecx
	push	ebx
; Line 193
	mov	ebx, DWORD PTR _lua$[esp+4]
	push	esi
	push	edi
	mov	edi, DWORD PTR _stack$[esp+12]
	push	3
	push	edi
	push	ebx
	call	_luaL_checktype
; Line 194
	push	edi
	push	ebx
	call	_lua_tonumber
	fstp	DWORD PTR tv146[esp+36]
	cvttss2si esi, DWORD PTR tv146[esp+36]
	add	esp, 20					; 00000014H
; Line 195
	test	esi, esi
	js	SHORT $LN3@getControl
	cmp	esi, 3
	jle	SHORT $LN2@getControl
$LN3@getControl:
; Line 196
	push	OFFSET ??_C@_0BD@GAFPKPMG@invalid?5controller@
	push	edi
	push	ebx
	call	_luaL_argerror
	add	esp, 12					; 0000000cH
$LN2@getControl:
; Line 197
	test	esi, esi
	jne	SHORT $LN4@getControl
; Line 198
	mov	esi, DWORD PTR ds:34401512
; Line 201
	imul	eax, esi, 2324
	pop	edi
	pop	esi
	pop	ebx
	add	eax, 34401520				; 020cecf0H
; Line 202
	pop	ecx
	ret	0
$LN4@getControl:
; Line 199
	cmp	esi, 1
	jne	SHORT $LN6@getControl
; Line 200
	mov	esi, DWORD PTR ds:12350608
$LN6@getControl:
; Line 201
	imul	eax, esi, 2324
	pop	edi
	pop	esi
	pop	ebx
	add	eax, 34401520				; 020cecf0H
; Line 202
	pop	ecx
	ret	0
_getController ENDP
_TEXT	ENDS
END
