; Listing generated by Microsoft (R) Optimizing Compiler Version 19.23.28107.0 

	TITLE	C:\Program Files (x86)\Steam\steamapps\common\Bully Scholarship Edition\_derpy_script_loader\src\client\library\lib_pool.c
	.686P
	.XMM
	include listing.inc
	.model	flat

INCLUDELIB LIBCMT
INCLUDELIB OLDNAMES

PUBLIC	??_C@_08FFHDBOKJ@ptr_node@			; `string'
PUBLIC	??_C@_0BA@LJDNFGEC@entry_info_node@		; `string'
PUBLIC	??_C@_07CJDNLGID@vehicle@			; `string'
PUBLIC	??_C@_03PKAJCHBH@ped@				; `string'
PUBLIC	??_C@_0BF@MELOHGMC@entity_effect_keeper@	; `string'
PUBLIC	??_C@_0BE@PAHECGFO@accessory_container@		; `string'
PUBLIC	??_C@_0N@MPBCBHIF@attitude_set@			; `string'
PUBLIC	??_C@_0BA@MHNLFLFC@ped_action_tree@		; `string'
PUBLIC	??_C@_0BB@KAKBNAMJ@targeting_system@		; `string'
PUBLIC	??_C@_0BL@PDADPFJJ@weapon_accessory_container@	; `string'
PUBLIC	??_C@_0BC@MPFIAANB@motion_controller@		; `string'
PUBLIC	??_C@_09LMBDDKDN@unknown_a@			; `string'
PUBLIC	??_C@_0BB@GNNFLADN@joint_constraint@		; `string'
PUBLIC	??_C@_09JHDOGJPO@unknown_b@			; `string'
PUBLIC	??_C@_0P@KDPADHGO@accessory_pool@		; `string'
PUBLIC	??_C@_06OHLGPBPO@sounds@			; `string'
PUBLIC	??_C@_07PKKCMMCH@weapons@			; `string'
PUBLIC	??_C@_0L@JALGBIHL@lua_script@			; `string'
PUBLIC	??_C@_05JLNEMJLN@dummy@				; `string'
PUBLIC	??_C@_09MEOMBKNE@prop_anim@			; `string'
PUBLIC	??_C@_08KMKCGJNO@building@			; `string'
PUBLIC	??_C@_09HHBHDBCJ@treadable@			; `string'
PUBLIC	??_C@_09GLLOPLAJ@col_model@			; `string'
PUBLIC	??_C@_08EEGMDJBD@stimulus@			; `string'
PUBLIC	??_C@_06IEOJBDIK@object@			; `string'
PUBLIC	??_C@_0L@BOMCPGNF@projectile@			; `string'
PUBLIC	??_C@_09GEAJKEFP@cut_scene@			; `string'
PUBLIC	??_C@_09IOCFFILP@unknown_c@			; `string'
;	COMDAT ??_C@_09IOCFFILP@unknown_c@
CONST	SEGMENT
??_C@_09IOCFFILP@unknown_c@ DB 'unknown_c', 00H		; `string'
CONST	ENDS
;	COMDAT ??_C@_09GEAJKEFP@cut_scene@
CONST	SEGMENT
??_C@_09GEAJKEFP@cut_scene@ DB 'cut_scene', 00H		; `string'
CONST	ENDS
;	COMDAT ??_C@_0L@BOMCPGNF@projectile@
CONST	SEGMENT
??_C@_0L@BOMCPGNF@projectile@ DB 'projectile', 00H	; `string'
CONST	ENDS
;	COMDAT ??_C@_06IEOJBDIK@object@
CONST	SEGMENT
??_C@_06IEOJBDIK@object@ DB 'object', 00H		; `string'
CONST	ENDS
;	COMDAT ??_C@_08EEGMDJBD@stimulus@
CONST	SEGMENT
??_C@_08EEGMDJBD@stimulus@ DB 'stimulus', 00H		; `string'
CONST	ENDS
;	COMDAT ??_C@_09GLLOPLAJ@col_model@
CONST	SEGMENT
??_C@_09GLLOPLAJ@col_model@ DB 'col_model', 00H		; `string'
CONST	ENDS
;	COMDAT ??_C@_09HHBHDBCJ@treadable@
CONST	SEGMENT
??_C@_09HHBHDBCJ@treadable@ DB 'treadable', 00H		; `string'
CONST	ENDS
;	COMDAT ??_C@_08KMKCGJNO@building@
CONST	SEGMENT
??_C@_08KMKCGJNO@building@ DB 'building', 00H		; `string'
CONST	ENDS
;	COMDAT ??_C@_09MEOMBKNE@prop_anim@
CONST	SEGMENT
??_C@_09MEOMBKNE@prop_anim@ DB 'prop_anim', 00H		; `string'
CONST	ENDS
;	COMDAT ??_C@_05JLNEMJLN@dummy@
CONST	SEGMENT
??_C@_05JLNEMJLN@dummy@ DB 'dummy', 00H			; `string'
CONST	ENDS
;	COMDAT ??_C@_0L@JALGBIHL@lua_script@
CONST	SEGMENT
??_C@_0L@JALGBIHL@lua_script@ DB 'lua_script', 00H	; `string'
CONST	ENDS
;	COMDAT ??_C@_07PKKCMMCH@weapons@
CONST	SEGMENT
??_C@_07PKKCMMCH@weapons@ DB 'weapons', 00H		; `string'
CONST	ENDS
;	COMDAT ??_C@_06OHLGPBPO@sounds@
CONST	SEGMENT
??_C@_06OHLGPBPO@sounds@ DB 'sounds', 00H		; `string'
CONST	ENDS
;	COMDAT ??_C@_0P@KDPADHGO@accessory_pool@
CONST	SEGMENT
??_C@_0P@KDPADHGO@accessory_pool@ DB 'accessory_pool', 00H ; `string'
CONST	ENDS
;	COMDAT ??_C@_09JHDOGJPO@unknown_b@
CONST	SEGMENT
??_C@_09JHDOGJPO@unknown_b@ DB 'unknown_b', 00H		; `string'
CONST	ENDS
;	COMDAT ??_C@_0BB@GNNFLADN@joint_constraint@
CONST	SEGMENT
??_C@_0BB@GNNFLADN@joint_constraint@ DB 'joint_constraint', 00H ; `string'
CONST	ENDS
;	COMDAT ??_C@_09LMBDDKDN@unknown_a@
CONST	SEGMENT
??_C@_09LMBDDKDN@unknown_a@ DB 'unknown_a', 00H		; `string'
CONST	ENDS
;	COMDAT ??_C@_0BC@MPFIAANB@motion_controller@
CONST	SEGMENT
??_C@_0BC@MPFIAANB@motion_controller@ DB 'motion_controller', 00H ; `string'
CONST	ENDS
;	COMDAT ??_C@_0BL@PDADPFJJ@weapon_accessory_container@
CONST	SEGMENT
??_C@_0BL@PDADPFJJ@weapon_accessory_container@ DB 'weapon_accessory_conta'
	DB	'iner', 00H					; `string'
CONST	ENDS
;	COMDAT ??_C@_0BB@KAKBNAMJ@targeting_system@
CONST	SEGMENT
??_C@_0BB@KAKBNAMJ@targeting_system@ DB 'targeting_system', 00H ; `string'
CONST	ENDS
;	COMDAT ??_C@_0BA@MHNLFLFC@ped_action_tree@
CONST	SEGMENT
??_C@_0BA@MHNLFLFC@ped_action_tree@ DB 'ped_action_tree', 00H ; `string'
CONST	ENDS
;	COMDAT ??_C@_0N@MPBCBHIF@attitude_set@
CONST	SEGMENT
??_C@_0N@MPBCBHIF@attitude_set@ DB 'attitude_set', 00H	; `string'
CONST	ENDS
;	COMDAT ??_C@_0BE@PAHECGFO@accessory_container@
CONST	SEGMENT
??_C@_0BE@PAHECGFO@accessory_container@ DB 'accessory_container', 00H ; `string'
CONST	ENDS
;	COMDAT ??_C@_0BF@MELOHGMC@entity_effect_keeper@
CONST	SEGMENT
??_C@_0BF@MELOHGMC@entity_effect_keeper@ DB 'entity_effect_keeper', 00H ; `string'
CONST	ENDS
;	COMDAT ??_C@_03PKAJCHBH@ped@
CONST	SEGMENT
??_C@_03PKAJCHBH@ped@ DB 'ped', 00H			; `string'
CONST	ENDS
;	COMDAT ??_C@_07CJDNLGID@vehicle@
CONST	SEGMENT
??_C@_07CJDNLGID@vehicle@ DB 'vehicle', 00H		; `string'
CONST	ENDS
;	COMDAT ??_C@_0BA@LJDNFGEC@entry_info_node@
CONST	SEGMENT
??_C@_0BA@LJDNFGEC@entry_info_node@ DB 'entry_info_node', 00H ; `string'
CONST	ENDS
;	COMDAT ??_C@_08FFHDBOKJ@ptr_node@
CONST	SEGMENT
??_C@_08FFHDBOKJ@ptr_node@ DB 'ptr_node', 00H		; `string'
CONST	ENDS
CONST	SEGMENT
_pools	DD	FLAT:??_C@_08FFHDBOKJ@ptr_node@
	DD	0c0f5e8H
	DD	FLAT:??_C@_0BA@LJDNFGEC@entry_info_node@
	DD	0c0f5ecH
	DD	FLAT:??_C@_07CJDNLGID@vehicle@
	DD	0c0f5f4H
	DD	FLAT:??_C@_03PKAJCHBH@ped@
	DD	0c0f5f0H
	DD	FLAT:??_C@_0BF@MELOHGMC@entity_effect_keeper@
	DD	0c0f628H
	DD	FLAT:??_C@_0BE@PAHECGFO@accessory_container@
	DD	0c0f62cH
	DD	FLAT:??_C@_0N@MPBCBHIF@attitude_set@
	DD	0c0f630H
	DD	FLAT:??_C@_0BA@MHNLFLFC@ped_action_tree@
	DD	0c0f634H
	DD	FLAT:??_C@_0BB@KAKBNAMJ@targeting_system@
	DD	0c0f638H
	DD	FLAT:??_C@_0BL@PDADPFJJ@weapon_accessory_container@
	DD	0c0f63cH
	DD	FLAT:??_C@_0BC@MPFIAANB@motion_controller@
	DD	0c0f640H
	DD	FLAT:??_C@_09LMBDDKDN@unknown_a@
	DD	0c0f648H
	DD	FLAT:??_C@_0BB@GNNFLADN@joint_constraint@
	DD	0c0f644H
	DD	FLAT:??_C@_09JHDOGJPO@unknown_b@
	DD	0c0f64cH
	DD	FLAT:??_C@_0P@KDPADHGO@accessory_pool@
	DD	0c0f60cH
	DD	FLAT:??_C@_06OHLGPBPO@sounds@
	DD	0c0f620H
	DD	FLAT:??_C@_07PKKCMMCH@weapons@
	DD	0c0f654H
	DD	FLAT:??_C@_0L@JALGBIHL@lua_script@
	DD	0c0f650H
	DD	FLAT:??_C@_05JLNEMJLN@dummy@
	DD	0c0f600H
	DD	FLAT:??_C@_09MEOMBKNE@prop_anim@
	DD	0c0f608H
	DD	FLAT:??_C@_08KMKCGJNO@building@
	DD	0c0f5f8H
	DD	FLAT:??_C@_09HHBHDBCJ@treadable@
	DD	0c0f5fcH
	DD	FLAT:??_C@_09GLLOPLAJ@col_model@
	DD	0c0f604H
	DD	FLAT:??_C@_08EEGMDJBD@stimulus@
	DD	0c0f610H
	DD	FLAT:??_C@_06IEOJBDIK@object@
	DD	0c0f614H
	DD	FLAT:??_C@_0L@BOMCPGNF@projectile@
	DD	0c0f618H
	DD	FLAT:??_C@_09GEAJKEFP@cut_scene@
	DD	0c0f61cH
	DD	FLAT:??_C@_09IOCFFILP@unknown_c@
	DD	0c0f624H
	DD	00H
	DD	00H
CONST	ENDS
PUBLIC	_dslopen_pool
PUBLIC	??_C@_08CNHDCFLI@PTR_NODE@			; `string'
PUBLIC	??_C@_0BA@HHLBMDLF@ENTRY_INFO_NODE@		; `string'
PUBLIC	??_C@_07NEGAAKAH@VEHICLE@			; `string'
PUBLIC	??_C@_03PHPCOKGL@PED@				; `string'
PUBLIC	??_C@_0BB@BEPLEGCJ@JOINT_CONSTRAINT@		; `string'
PUBLIC	??_C@_06GANGLKEK@WEAPON@			; `string'
PUBLIC	??_C@_0L@NPKNMIAN@LUA_SCRIPT@			; `string'
PUBLIC	??_C@_05FAECCOPD@DUMMY@				; `string'
PUBLIC	??_C@_09PDLBCCBF@PROP_ANIM@			; `string'
PUBLIC	??_C@_08NDAOFHPJ@BUILDING@			; `string'
PUBLIC	??_C@_09EHOGAMNO@TREADABLE@			; `string'
PUBLIC	??_C@_09JEPCPPGC@COL_MODEL@			; `string'
PUBLIC	??_C@_08DLMAAHDE@STIMULUS@			; `string'
PUBLIC	??_C@_06IAMCMNFI@OBJECT@			; `string'
PUBLIC	??_C@_0L@KIKPEEPF@PROJECTILE@			; `string'
PUBLIC	??_C@_09JLEFKADE@CUT_SCENE@			; `string'
PUBLIC	??_C@_07NFANNNEC@UNKNOWN@			; `string'
PUBLIC	??_C@_0N@MDNGKHBN@unknown?5pool@		; `string'
PUBLIC	??_C@_04MEMAJGDJ@name@				; `string'
PUBLIC	??_C@_04IAGNFIBA@size@				; `string'
PUBLIC	??_C@_05GADAOHMC@limit@				; `string'
PUBLIC	??_C@_05IOMEMJEC@count@				; `string'
PUBLIC	??_C@_0BG@IPGBEPPI@no?5DSL?5script?5running@	; `string'
PUBLIC	??_C@_0FJ@LFOOGOM@?$CFs?$CFs?5requires?5a?5larger?5?$CFs?5pool?5@ ; `string'
PUBLIC	??_C@_0M@BPNAAHMN@GetPoolSize@			; `string'
PUBLIC	??_C@_0N@IFNFJJCG@GetPoolUsage@			; `string'
PUBLIC	??_C@_0N@BDCFKIDH@GetPoolSpace@			; `string'
PUBLIC	??_C@_0P@GIECBOAJ@GetAllPoolInfo@		; `string'
PUBLIC	??_C@_0BA@NIOEDCEE@RequirePoolSize@		; `string'
PUBLIC	__xmm@41f00000000000000000000000000000
EXTRN	_lua_tonumber:PROC
EXTRN	_lua_tostring:PROC
EXTRN	_lua_pushnil:PROC
EXTRN	_lua_pushnumber:PROC
EXTRN	_lua_pushstring:PROC
EXTRN	_lua_pushcclosure:PROC
EXTRN	_lua_newtable:PROC
EXTRN	_lua_settable:PROC
EXTRN	_lua_rawset:PROC
EXTRN	_lua_rawseti:PROC
EXTRN	_lua_error:PROC
EXTRN	_luaL_argerror:PROC
EXTRN	_luaL_checktype:PROC
EXTRN	_luaL_error:PROC
EXTRN	_getDslState:PROC
EXTRN	_getDslPrintPrefix:PROC
EXTRN	_dslisenum:PROC
EXTRN	_printConsoleFormatted:PROC
EXTRN	__fltused:DWORD
;	COMDAT __xmm@41f00000000000000000000000000000
CONST	SEGMENT
__xmm@41f00000000000000000000000000000 DB 00H, 00H, 00H, 00H, 00H, 00H, 00H
	DB	00H, 00H, 00H, 00H, 00H, 00H, 00H, 0f0H, 'A'
CONST	ENDS
;	COMDAT ??_C@_0BA@NIOEDCEE@RequirePoolSize@
CONST	SEGMENT
??_C@_0BA@NIOEDCEE@RequirePoolSize@ DB 'RequirePoolSize', 00H ; `string'
CONST	ENDS
;	COMDAT ??_C@_0P@GIECBOAJ@GetAllPoolInfo@
CONST	SEGMENT
??_C@_0P@GIECBOAJ@GetAllPoolInfo@ DB 'GetAllPoolInfo', 00H ; `string'
CONST	ENDS
;	COMDAT ??_C@_0N@BDCFKIDH@GetPoolSpace@
CONST	SEGMENT
??_C@_0N@BDCFKIDH@GetPoolSpace@ DB 'GetPoolSpace', 00H	; `string'
CONST	ENDS
;	COMDAT ??_C@_0N@IFNFJJCG@GetPoolUsage@
CONST	SEGMENT
??_C@_0N@IFNFJJCG@GetPoolUsage@ DB 'GetPoolUsage', 00H	; `string'
CONST	ENDS
;	COMDAT ??_C@_0M@BPNAAHMN@GetPoolSize@
CONST	SEGMENT
??_C@_0M@BPNAAHMN@GetPoolSize@ DB 'GetPoolSize', 00H	; `string'
CONST	ENDS
;	COMDAT ??_C@_0FJ@LFOOGOM@?$CFs?$CFs?5requires?5a?5larger?5?$CFs?5pool?5@
CONST	SEGMENT
??_C@_0FJ@LFOOGOM@?$CFs?$CFs?5requires?5a?5larger?5?$CFs?5pool?5@ DB '%s%'
	DB	's requires a larger %s pool (%d / %d, check DSL config or use'
	DB	' your own pool adjuster)', 00H		; `string'
CONST	ENDS
;	COMDAT ??_C@_0BG@IPGBEPPI@no?5DSL?5script?5running@
CONST	SEGMENT
??_C@_0BG@IPGBEPPI@no?5DSL?5script?5running@ DB 'no DSL script running', 00H ; `string'
CONST	ENDS
;	COMDAT ??_C@_05IOMEMJEC@count@
CONST	SEGMENT
??_C@_05IOMEMJEC@count@ DB 'count', 00H			; `string'
CONST	ENDS
;	COMDAT ??_C@_05GADAOHMC@limit@
CONST	SEGMENT
??_C@_05GADAOHMC@limit@ DB 'limit', 00H			; `string'
CONST	ENDS
;	COMDAT ??_C@_04IAGNFIBA@size@
CONST	SEGMENT
??_C@_04IAGNFIBA@size@ DB 'size', 00H			; `string'
CONST	ENDS
;	COMDAT ??_C@_04MEMAJGDJ@name@
CONST	SEGMENT
??_C@_04MEMAJGDJ@name@ DB 'name', 00H			; `string'
CONST	ENDS
;	COMDAT ??_C@_0N@MDNGKHBN@unknown?5pool@
CONST	SEGMENT
??_C@_0N@MDNGKHBN@unknown?5pool@ DB 'unknown pool', 00H	; `string'
CONST	ENDS
;	COMDAT ??_C@_07NFANNNEC@UNKNOWN@
CONST	SEGMENT
??_C@_07NFANNNEC@UNKNOWN@ DB 'UNKNOWN', 00H		; `string'
CONST	ENDS
;	COMDAT ??_C@_09JLEFKADE@CUT_SCENE@
CONST	SEGMENT
??_C@_09JLEFKADE@CUT_SCENE@ DB 'CUT_SCENE', 00H		; `string'
CONST	ENDS
;	COMDAT ??_C@_0L@KIKPEEPF@PROJECTILE@
CONST	SEGMENT
??_C@_0L@KIKPEEPF@PROJECTILE@ DB 'PROJECTILE', 00H	; `string'
CONST	ENDS
;	COMDAT ??_C@_06IAMCMNFI@OBJECT@
CONST	SEGMENT
??_C@_06IAMCMNFI@OBJECT@ DB 'OBJECT', 00H		; `string'
CONST	ENDS
;	COMDAT ??_C@_08DLMAAHDE@STIMULUS@
CONST	SEGMENT
??_C@_08DLMAAHDE@STIMULUS@ DB 'STIMULUS', 00H		; `string'
CONST	ENDS
;	COMDAT ??_C@_09JEPCPPGC@COL_MODEL@
CONST	SEGMENT
??_C@_09JEPCPPGC@COL_MODEL@ DB 'COL_MODEL', 00H		; `string'
CONST	ENDS
;	COMDAT ??_C@_09EHOGAMNO@TREADABLE@
CONST	SEGMENT
??_C@_09EHOGAMNO@TREADABLE@ DB 'TREADABLE', 00H		; `string'
CONST	ENDS
;	COMDAT ??_C@_08NDAOFHPJ@BUILDING@
CONST	SEGMENT
??_C@_08NDAOFHPJ@BUILDING@ DB 'BUILDING', 00H		; `string'
CONST	ENDS
;	COMDAT ??_C@_09PDLBCCBF@PROP_ANIM@
CONST	SEGMENT
??_C@_09PDLBCCBF@PROP_ANIM@ DB 'PROP_ANIM', 00H		; `string'
CONST	ENDS
;	COMDAT ??_C@_05FAECCOPD@DUMMY@
CONST	SEGMENT
??_C@_05FAECCOPD@DUMMY@ DB 'DUMMY', 00H			; `string'
CONST	ENDS
;	COMDAT ??_C@_0L@NPKNMIAN@LUA_SCRIPT@
CONST	SEGMENT
??_C@_0L@NPKNMIAN@LUA_SCRIPT@ DB 'LUA_SCRIPT', 00H	; `string'
CONST	ENDS
;	COMDAT ??_C@_06GANGLKEK@WEAPON@
CONST	SEGMENT
??_C@_06GANGLKEK@WEAPON@ DB 'WEAPON', 00H		; `string'
CONST	ENDS
;	COMDAT ??_C@_0BB@BEPLEGCJ@JOINT_CONSTRAINT@
CONST	SEGMENT
??_C@_0BB@BEPLEGCJ@JOINT_CONSTRAINT@ DB 'JOINT_CONSTRAINT', 00H ; `string'
CONST	ENDS
;	COMDAT ??_C@_03PHPCOKGL@PED@
CONST	SEGMENT
??_C@_03PHPCOKGL@PED@ DB 'PED', 00H			; `string'
CONST	ENDS
;	COMDAT ??_C@_07NEGAAKAH@VEHICLE@
CONST	SEGMENT
??_C@_07NEGAAKAH@VEHICLE@ DB 'VEHICLE', 00H		; `string'
CONST	ENDS
;	COMDAT ??_C@_0BA@HHLBMDLF@ENTRY_INFO_NODE@
CONST	SEGMENT
??_C@_0BA@HHLBMDLF@ENTRY_INFO_NODE@ DB 'ENTRY_INFO_NODE', 00H ; `string'
CONST	ENDS
;	COMDAT ??_C@_08CNHDCFLI@PTR_NODE@
CONST	SEGMENT
??_C@_08CNHDCFLI@PTR_NODE@ DB 'PTR_NODE', 00H		; `string'
CONST	ENDS
; Function compile flags: /Ogtpy
;	COMDAT _dslopen_pool
_TEXT	SEGMENT
_lua$ = 8						; size = 4
_dslopen_pool PROC					; COMDAT
; File C:\Program Files (x86)\Steam\steamapps\common\Bully Scholarship Edition\_derpy_script_loader\src\client\library\lib_pool.c
; Line 180
	push	esi
; Line 181
	mov	esi, DWORD PTR _lua$[esp]
	push	OFFSET ??_C@_0M@BPNAAHMN@GetPoolSize@
	push	esi
	call	_lua_pushstring
	push	0
	push	OFFSET _GetPoolSize
	push	esi
	call	_lua_pushcclosure
	push	-10001					; ffffd8efH
	push	esi
	call	_lua_settable
; Line 182
	push	OFFSET ??_C@_0N@IFNFJJCG@GetPoolUsage@
	push	esi
	call	_lua_pushstring
	push	0
	push	OFFSET _GetPoolUsage
	push	esi
	call	_lua_pushcclosure
	push	-10001					; ffffd8efH
	push	esi
	call	_lua_settable
; Line 183
	push	OFFSET ??_C@_0N@BDCFKIDH@GetPoolSpace@
	push	esi
	call	_lua_pushstring
	add	esp, 64					; 00000040H
	push	0
	push	OFFSET _GetPoolSpace
	push	esi
	call	_lua_pushcclosure
	push	-10001					; ffffd8efH
	push	esi
	call	_lua_settable
; Line 184
	push	OFFSET ??_C@_0P@GIECBOAJ@GetAllPoolInfo@
	push	esi
	call	_lua_pushstring
	push	0
	push	OFFSET _GetAllPoolInfo
	push	esi
	call	_lua_pushcclosure
	push	-10001					; ffffd8efH
	push	esi
	call	_lua_settable
; Line 185
	push	OFFSET ??_C@_0BA@NIOEDCEE@RequirePoolSize@
	push	esi
	call	_lua_pushstring
	push	0
	push	OFFSET _RequirePoolSize
	push	esi
	call	_lua_pushcclosure
	add	esp, 68					; 00000044H
	push	-10001					; ffffd8efH
	push	esi
	call	_lua_settable
	add	esp, 8
; Line 186
	xor	eax, eax
	pop	esi
; Line 187
	ret	0
_dslopen_pool ENDP
_TEXT	ENDS
; Function compile flags: /Ogtpy
;	COMDAT _RequirePoolSize
_TEXT	SEGMENT
tv183 = -4						; size = 4
_lua$ = 8						; size = 4
_RequirePoolSize PROC					; COMDAT
; File C:\Program Files (x86)\Steam\steamapps\common\Bully Scholarship Edition\_derpy_script_loader\src\client\library\lib_pool.c
; Line 155
	push	ecx
	push	ebx
	push	ebp
	push	esi
; Line 161
	mov	esi, DWORD PTR _lua$[esp+12]
	push	edi
	push	4
	push	1
	push	esi
	call	_luaL_checktype
; Line 162
	push	3
	push	2
	push	esi
	call	_luaL_checktype
; Line 163
	push	1
	push	esi
	call	_lua_tostring
	push	eax
	call	_getPoolByName
	mov	ebx, eax
	add	esp, 36					; 00000024H
; Line 164
	test	ebx, ebx
	jne	SHORT $LN2@RequirePoo
; Line 165
	push	OFFSET ??_C@_0N@MDNGKHBN@unknown?5pool@
	push	1
	push	esi
	call	_luaL_argerror
	add	esp, 12					; 0000000cH
$LN2@RequirePoo:
; Line 166
	push	1
	push	esi
	call	_getDslState
	mov	edi, eax
	add	esp, 8
; Line 167
	mov	ebp, DWORD PTR [edi+32]
; Line 168
	cmp	DWORD PTR [ebp+16], 0
	jne	SHORT $LN3@RequirePoo
; Line 169
	push	OFFSET ??_C@_0BG@IPGBEPPI@no?5DSL?5script?5running@
	push	esi
	call	_luaL_error
	add	esp, 8
$LN3@RequirePoo:
; Line 170
	push	2
	push	esi
	call	_lua_tonumber
; Line 171
	mov	ecx, DWORD PTR [ebx+8]
	add	esp, 8
	fstp	DWORD PTR tv183[esp+20]
	cvttss2si eax, DWORD PTR tv183[esp+20]
	cmp	ecx, eax
	jae	SHORT $LN6@RequirePoo
; Line 172
	push	eax
	push	ecx
	push	1
	push	esi
	call	_lua_tostring
	add	esp, 8
	push	eax
	mov	eax, DWORD PTR [ebp+16]
	add	eax, 11072				; 00002b40H
	push	eax
	push	0
	push	edi
	call	_getDslPrintPrefix
	add	esp, 8
	push	eax
	push	OFFSET ??_C@_0FJ@LFOOGOM@?$CFs?$CFs?5requires?5a?5larger?5?$CFs?5pool?5@
	push	1
	push	DWORD PTR [edi+24]
	call	_printConsoleFormatted
; Line 173
	push	esi
	call	_lua_pushnil
; Line 174
	push	esi
	call	_lua_error
	add	esp, 40					; 00000028H
$LN6@RequirePoo:
; Line 177
	pop	edi
	pop	esi
	pop	ebp
	xor	eax, eax
	pop	ebx
	pop	ecx
	ret	0
_RequirePoolSize ENDP
_TEXT	ENDS
; Function compile flags: /Ogtpy
;	COMDAT _GetAllPoolInfo
_TEXT	SEGMENT
_pool$1$ = -4						; size = 4
_lua$ = 8						; size = 4
_GetAllPoolInfo PROC					; COMDAT
; File C:\Program Files (x86)\Steam\steamapps\common\Bully Scholarship Edition\_derpy_script_loader\src\client\library\lib_pool.c
; Line 125
	push	ecx
	push	ebp
	push	edi
; Line 131
	mov	edi, DWORD PTR _lua$[esp+8]
	push	edi
	call	_lua_newtable
; Line 132
	xor	ebp, ebp
	add	esp, 4
; Line 133
	cmp	DWORD PTR _pools, ebp
	je	$LN20@GetAllPool
	push	ebx
	push	esi
	xor	eax, eax
	mov	esi, OFFSET _pools
$LL2@GetAllPool:
; Line 134
	mov	eax, DWORD PTR _pools[eax+4]
; Line 135
	push	edi
	mov	ebx, DWORD PTR [eax]
	mov	DWORD PTR _pool$1$[esp+24], ebx
	call	_lua_newtable
; Line 136
	push	OFFSET ??_C@_04MEMAJGDJ@name@
	push	edi
	call	_lua_pushstring
; Line 137
	push	DWORD PTR [esi]
	push	edi
	call	_lua_pushstring
; Line 138
	push	-3					; fffffffdH
	push	edi
	call	_lua_rawset
; Line 139
	push	OFFSET ??_C@_04IAGNFIBA@size@
	push	edi
	call	_lua_pushstring
; Line 140
	mov	eax, DWORD PTR [ebx+12]
	add	esp, 32					; 00000020H
	movd	xmm0, eax
	cvtdq2pd xmm0, xmm0
	shr	eax, 31					; 0000001fH
	addsd	xmm0, QWORD PTR __xmm@41f00000000000000000000000000000[eax*8]
	cvtpd2ps xmm0, xmm0
	movss	DWORD PTR [esp], xmm0
	push	edi
	call	_lua_pushnumber
; Line 141
	push	-3					; fffffffdH
	push	edi
	call	_lua_rawset
; Line 142
	push	OFFSET ??_C@_05GADAOHMC@limit@
	push	edi
	call	_lua_pushstring
; Line 143
	mov	eax, DWORD PTR [ebx+8]
	add	esp, 20					; 00000014H
	movd	xmm0, eax
	cvtdq2pd xmm0, xmm0
	shr	eax, 31					; 0000001fH
	addsd	xmm0, QWORD PTR __xmm@41f00000000000000000000000000000[eax*8]
	cvtpd2ps xmm0, xmm0
	movss	DWORD PTR [esp], xmm0
	push	edi
	call	_lua_pushnumber
; Line 144
	push	-3					; fffffffdH
	push	edi
	call	_lua_rawset
; Line 145
	mov	ebx, DWORD PTR [ebx+8]
	add	esp, 16					; 00000010H
	xor	ecx, ecx
	xor	esi, esi
	test	ebx, ebx
	je	SHORT $LN5@GetAllPool
; Line 146
	mov	edx, DWORD PTR _pool$1$[esp+20]
	mov	edx, DWORD PTR [edx+4]
$LL13@GetAllPool:
; Line 145
	cmp	BYTE PTR [edx+ecx], 0
	lea	eax, DWORD PTR [esi+1]
	cmovge	eax, esi
	inc	ecx
	mov	esi, eax
	cmp	ecx, ebx
	jb	SHORT $LL13@GetAllPool
$LN5@GetAllPool:
; Line 148
	push	OFFSET ??_C@_05IOMEMJEC@count@
	push	edi
	call	_lua_pushstring
; Line 149
	mov	eax, DWORD PTR _pool$1$[esp+28]
	add	esp, 4
	mov	eax, DWORD PTR [eax+8]
	sub	eax, esi
	movd	xmm0, eax
	cvtdq2pd xmm0, xmm0
	shr	eax, 31					; 0000001fH
	addsd	xmm0, QWORD PTR __xmm@41f00000000000000000000000000000[eax*8]
	cvtpd2ps xmm0, xmm0
	movss	DWORD PTR [esp], xmm0
	push	edi
	call	_lua_pushnumber
; Line 150
	push	-3					; fffffffdH
	push	edi
	call	_lua_rawset
; Line 151
	inc	ebp
	push	ebp
	push	-2					; fffffffeH
	push	edi
	call	_lua_rawseti
	lea	eax, DWORD PTR [ebp*8]
	add	esp, 28					; 0000001cH
	cmp	DWORD PTR _pools[eax], 0
	lea	esi, DWORD PTR _pools[eax]
	jne	$LL2@GetAllPool
; Line 153
	pop	esi
	pop	ebx
$LN20@GetAllPool:
; Line 154
	pop	edi
	mov	eax, 1
	pop	ebp
	pop	ecx
	ret	0
_GetAllPoolInfo ENDP
_TEXT	ENDS
; Function compile flags: /Ogtpy
;	COMDAT _GetPoolSpace
_TEXT	SEGMENT
_lua$ = 8						; size = 4
_GetPoolSpace PROC					; COMDAT
; File C:\Program Files (x86)\Steam\steamapps\common\Bully Scholarship Edition\_derpy_script_loader\src\client\library\lib_pool.c
; Line 108
	push	esi
; Line 113
	mov	esi, DWORD PTR _lua$[esp]
	push	edi
	push	4
	push	1
	push	esi
	call	_luaL_checktype
; Line 114
	push	1
	push	esi
	call	_lua_tostring
	push	eax
	call	_getPoolByName
	mov	edi, eax
	add	esp, 24					; 00000018H
; Line 115
	test	edi, edi
	jne	SHORT $LN4@GetPoolSpa
; Line 116
	push	OFFSET ??_C@_0N@MDNGKHBN@unknown?5pool@
	push	1
	push	esi
	call	_luaL_argerror
	add	esp, 12					; 0000000cH
$LN4@GetPoolSpa:
; Line 117
	mov	ecx, DWORD PTR [edi+8]
; Line 118
	xor	edx, edx
; Line 119
	test	ecx, ecx
	je	SHORT $LN3@GetPoolSpa
; Line 120
	mov	edi, DWORD PTR [edi+4]
$LL8@GetPoolSpa:
	dec	ecx
	lea	eax, DWORD PTR [edx+1]
	cmp	BYTE PTR [edi+ecx], 0
	cmovge	eax, edx
	mov	edx, eax
	test	ecx, ecx
	jne	SHORT $LL8@GetPoolSpa
$LN3@GetPoolSpa:
	movd	xmm0, edx
; Line 122
	cvtdq2ps xmm0, xmm0
	push	ecx
	movss	DWORD PTR [esp], xmm0
	push	esi
	call	_lua_pushnumber
	add	esp, 8
; Line 123
	mov	eax, 1
	pop	edi
	pop	esi
; Line 124
	ret	0
_GetPoolSpace ENDP
_TEXT	ENDS
; Function compile flags: /Ogtpy
;	COMDAT _GetPoolUsage
_TEXT	SEGMENT
_lua$ = 8						; size = 4
_GetPoolUsage PROC					; COMDAT
; File C:\Program Files (x86)\Steam\steamapps\common\Bully Scholarship Edition\_derpy_script_loader\src\client\library\lib_pool.c
; Line 91
	push	esi
	push	edi
; Line 96
	mov	edi, DWORD PTR _lua$[esp+4]
	push	4
	push	1
	push	edi
	call	_luaL_checktype
; Line 97
	push	1
	push	edi
	call	_lua_tostring
	push	eax
	call	_getPoolByName
	mov	esi, eax
	add	esp, 24					; 00000018H
; Line 98
	test	esi, esi
	jne	SHORT $LN4@GetPoolUsa
; Line 99
	push	OFFSET ??_C@_0N@MDNGKHBN@unknown?5pool@
	push	1
	push	edi
	call	_luaL_argerror
	add	esp, 12					; 0000000cH
$LN4@GetPoolUsa:
; Line 100
	mov	ecx, DWORD PTR [esi+8]
; Line 101
	xor	edx, edx
; Line 102
	test	ecx, ecx
	je	SHORT $LN3@GetPoolUsa
; Line 103
	push	ebx
	mov	ebx, DWORD PTR [esi+4]
$LL8@GetPoolUsa:
	dec	ecx
	lea	eax, DWORD PTR [edx+1]
	cmp	BYTE PTR [ebx+ecx], 0
	cmovge	eax, edx
	mov	edx, eax
	test	ecx, ecx
	jne	SHORT $LL8@GetPoolUsa
	mov	ecx, DWORD PTR [esi+8]
	pop	ebx
$LN3@GetPoolUsa:
; Line 105
	sub	ecx, edx
	movd	xmm0, ecx
	cvtdq2pd xmm0, xmm0
	shr	ecx, 31					; 0000001fH
	push	ecx
	addsd	xmm0, QWORD PTR __xmm@41f00000000000000000000000000000[ecx*8]
	cvtpd2ps xmm0, xmm0
	movss	DWORD PTR [esp], xmm0
	push	edi
	call	_lua_pushnumber
	add	esp, 8
; Line 106
	mov	eax, 1
	pop	edi
	pop	esi
; Line 107
	ret	0
_GetPoolUsage ENDP
_TEXT	ENDS
; Function compile flags: /Ogtpy
;	COMDAT _GetPoolSize
_TEXT	SEGMENT
_lua$ = 8						; size = 4
_GetPoolSize PROC					; COMDAT
; File C:\Program Files (x86)\Steam\steamapps\common\Bully Scholarship Edition\_derpy_script_loader\src\client\library\lib_pool.c
; Line 81
	push	esi
; Line 84
	mov	esi, DWORD PTR _lua$[esp]
	push	edi
	push	4
	push	1
	push	esi
	call	_luaL_checktype
; Line 85
	push	1
	push	esi
	call	_lua_tostring
	push	eax
	call	_getPoolByName
	mov	edi, eax
	add	esp, 24					; 00000018H
; Line 86
	test	edi, edi
	jne	SHORT $LN2@GetPoolSiz
; Line 87
	push	OFFSET ??_C@_0N@MDNGKHBN@unknown?5pool@
	push	1
	push	esi
	call	_luaL_argerror
	add	esp, 12					; 0000000cH
$LN2@GetPoolSiz:
; Line 88
	mov	eax, DWORD PTR [edi+8]
	push	ecx
	movd	xmm0, eax
	cvtdq2pd xmm0, xmm0
	shr	eax, 31					; 0000001fH
	addsd	xmm0, QWORD PTR __xmm@41f00000000000000000000000000000[eax*8]
	cvtpd2ps xmm0, xmm0
	movss	DWORD PTR [esp], xmm0
	push	esi
	call	_lua_pushnumber
	add	esp, 8
; Line 89
	mov	eax, 1
	pop	edi
	pop	esi
; Line 90
	ret	0
_GetPoolSize ENDP
_TEXT	ENDS
; Function compile flags: /Ogtpy
;	COMDAT _getPoolByName
_TEXT	SEGMENT
_name$ = 8						; size = 4
_getPoolByName PROC					; COMDAT
; File C:\Program Files (x86)\Steam\steamapps\common\Bully Scholarship Edition\_derpy_script_loader\src\client\library\lib_pool.c
; Line 42
	push	esi
; Line 43
	mov	esi, DWORD PTR _name$[esp]
	push	OFFSET ??_C@_08CNHDCFLI@PTR_NODE@
	push	esi
	call	_dslisenum
	add	esp, 8
	test	eax, eax
	je	SHORT $LN2@getPoolByN
; Line 44
	mov	eax, DWORD PTR ds:12645864
	pop	esi
; Line 78
	ret	0
$LN2@getPoolByN:
; Line 45
	push	OFFSET ??_C@_0BA@HHLBMDLF@ENTRY_INFO_NODE@
	push	esi
	call	_dslisenum
	add	esp, 8
	test	eax, eax
	je	SHORT $LN3@getPoolByN
; Line 46
	mov	eax, DWORD PTR ds:12645868
	pop	esi
; Line 78
	ret	0
$LN3@getPoolByN:
; Line 47
	push	OFFSET ??_C@_07NEGAAKAH@VEHICLE@
	push	esi
	call	_dslisenum
	add	esp, 8
	test	eax, eax
	je	SHORT $LN4@getPoolByN
; Line 48
	mov	eax, DWORD PTR ds:12645876
	pop	esi
; Line 78
	ret	0
$LN4@getPoolByN:
; Line 49
	push	OFFSET ??_C@_03PHPCOKGL@PED@
	push	esi
	call	_dslisenum
	add	esp, 8
	test	eax, eax
	je	SHORT $LN5@getPoolByN
; Line 50
	mov	eax, DWORD PTR ds:12645872
	pop	esi
; Line 78
	ret	0
$LN5@getPoolByN:
; Line 51
	push	OFFSET ??_C@_0BB@BEPLEGCJ@JOINT_CONSTRAINT@
	push	esi
	call	_dslisenum
	add	esp, 8
	test	eax, eax
	je	SHORT $LN6@getPoolByN
; Line 52
	mov	eax, DWORD PTR ds:12645956
	pop	esi
; Line 78
	ret	0
$LN6@getPoolByN:
; Line 53
	push	OFFSET ??_C@_06GANGLKEK@WEAPON@
	push	esi
	call	_dslisenum
	add	esp, 8
	test	eax, eax
	je	SHORT $LN7@getPoolByN
; Line 54
	mov	eax, DWORD PTR ds:12645972
	pop	esi
; Line 78
	ret	0
$LN7@getPoolByN:
; Line 55
	push	OFFSET ??_C@_0L@NPKNMIAN@LUA_SCRIPT@
	push	esi
	call	_dslisenum
	add	esp, 8
	test	eax, eax
	je	SHORT $LN8@getPoolByN
; Line 56
	mov	eax, DWORD PTR ds:12645968
	pop	esi
; Line 78
	ret	0
$LN8@getPoolByN:
; Line 57
	push	OFFSET ??_C@_05FAECCOPD@DUMMY@
	push	esi
	call	_dslisenum
	add	esp, 8
	test	eax, eax
	je	SHORT $LN9@getPoolByN
; Line 58
	mov	eax, DWORD PTR ds:12645888
	pop	esi
; Line 78
	ret	0
$LN9@getPoolByN:
; Line 59
	push	OFFSET ??_C@_09PDLBCCBF@PROP_ANIM@
	push	esi
	call	_dslisenum
	add	esp, 8
	test	eax, eax
	je	SHORT $LN10@getPoolByN
; Line 60
	mov	eax, DWORD PTR ds:12645896
	pop	esi
; Line 78
	ret	0
$LN10@getPoolByN:
; Line 61
	push	OFFSET ??_C@_08NDAOFHPJ@BUILDING@
	push	esi
	call	_dslisenum
	add	esp, 8
	test	eax, eax
	je	SHORT $LN11@getPoolByN
; Line 62
	mov	eax, DWORD PTR ds:12645880
	pop	esi
; Line 78
	ret	0
$LN11@getPoolByN:
; Line 63
	push	OFFSET ??_C@_09EHOGAMNO@TREADABLE@
	push	esi
	call	_dslisenum
	add	esp, 8
	test	eax, eax
	je	SHORT $LN12@getPoolByN
; Line 64
	mov	eax, DWORD PTR ds:12645884
	pop	esi
; Line 78
	ret	0
$LN12@getPoolByN:
; Line 65
	push	OFFSET ??_C@_09JEPCPPGC@COL_MODEL@
	push	esi
	call	_dslisenum
	add	esp, 8
	test	eax, eax
	je	SHORT $LN13@getPoolByN
; Line 66
	mov	eax, DWORD PTR ds:12645892
	pop	esi
; Line 78
	ret	0
$LN13@getPoolByN:
; Line 67
	push	OFFSET ??_C@_08DLMAAHDE@STIMULUS@
	push	esi
	call	_dslisenum
	add	esp, 8
	test	eax, eax
	je	SHORT $LN14@getPoolByN
; Line 68
	mov	eax, DWORD PTR ds:12645904
	pop	esi
; Line 78
	ret	0
$LN14@getPoolByN:
; Line 69
	push	OFFSET ??_C@_06IAMCMNFI@OBJECT@
	push	esi
	call	_dslisenum
	add	esp, 8
	test	eax, eax
	je	SHORT $LN15@getPoolByN
; Line 70
	mov	eax, DWORD PTR ds:12645908
	pop	esi
; Line 78
	ret	0
$LN15@getPoolByN:
; Line 71
	push	OFFSET ??_C@_0L@KIKPEEPF@PROJECTILE@
	push	esi
	call	_dslisenum
	add	esp, 8
	test	eax, eax
	je	SHORT $LN16@getPoolByN
; Line 72
	mov	eax, DWORD PTR ds:12645912
	pop	esi
; Line 78
	ret	0
$LN16@getPoolByN:
; Line 73
	push	OFFSET ??_C@_09JLEFKADE@CUT_SCENE@
	push	esi
	call	_dslisenum
	add	esp, 8
	test	eax, eax
	je	SHORT $LN17@getPoolByN
; Line 74
	mov	eax, DWORD PTR ds:12645916
	pop	esi
; Line 78
	ret	0
$LN17@getPoolByN:
; Line 75
	push	OFFSET ??_C@_07NFANNNEC@UNKNOWN@
	push	esi
	call	_dslisenum
	add	esp, 8
	test	eax, eax
	je	SHORT $LN18@getPoolByN
; Line 76
	mov	eax, DWORD PTR ds:12645924
	pop	esi
; Line 78
	ret	0
$LN18@getPoolByN:
; Line 77
	xor	eax, eax
	pop	esi
; Line 78
	ret	0
_getPoolByName ENDP
_TEXT	ENDS
END
