; Listing generated by Microsoft (R) Optimizing Compiler Version 19.23.28107.0 

	TITLE	C:\Program Files (x86)\Steam\steamapps\common\Bully Scholarship Edition\_derpy_script_loader\src\client\library\lib_client.c
	.686P
	.XMM
	include listing.inc
	.model	flat

INCLUDELIB LIBCMT
INCLUDELIB OLDNAMES

PUBLIC	_dslopen_client
PUBLIC	??_C@_05NHJPDJPA@17017@				; `string'
PUBLIC	??_C@_0BI@EGDCGCF@networking?5is?5not?5ready@	; `string'
PUBLIC	??_C@_0BK@DJEONAPG@networking?5is?5not?5allowed@ ; `string'
PUBLIC	??_C@_0BL@HLNOLLKM@server?5address?5is?5too?5long@ ; `string'
PUBLIC	??_C@_0M@KFDGPHID@list_server@			; `string'
PUBLIC	??_C@_01EFFIKLCJ@n@				; `string'
PUBLIC	??_C@_0BN@GMPOGGPP@not?5ready?5for?5network?5events@ ; `string'
PUBLIC	??_C@_0BI@BAJFOJFB@not?5connected?5to?5server@	; `string'
PUBLIC	??_C@_0BA@MFFACDKG@ConnectToServer@		; `string'
PUBLIC	??_C@_0BF@BGEOLNMB@DisconnectFromServer@	; `string'
PUBLIC	??_C@_0O@FPFKHCI@GetServerList@			; `string'
PUBLIC	??_C@_0BE@KFJDEDFL@IsNetworkingAllowed@		; `string'
PUBLIC	??_C@_0BF@COCHPDPB@RequestServerListing@	; `string'
PUBLIC	??_C@_0BB@DDLGIODH@SendNetworkEvent@		; `string'
PUBLIC	??_C@_0BF@JINGPEJH@GetNetworkSendBuffer@	; `string'
EXTRN	_lua_gettop:PROC
EXTRN	_lua_pushvalue:PROC
EXTRN	_lua_type:PROC
EXTRN	_lua_tostring:PROC
EXTRN	_lua_strlen:PROC
EXTRN	_lua_pushnumber:PROC
EXTRN	_lua_pushstring:PROC
EXTRN	_lua_pushcclosure:PROC
EXTRN	_lua_pushboolean:PROC
EXTRN	_lua_newtable:PROC
EXTRN	_lua_settable:PROC
EXTRN	_lua_rawset:PROC
EXTRN	_lua_rawseti:PROC
EXTRN	_luaL_argerror:PROC
EXTRN	_luaL_checktype:PROC
EXTRN	_luaL_error:PROC
EXTRN	_luaL_getn:PROC
EXTRN	_getDslState:PROC
EXTRN	_packLuaTableAdvanced:PROC
EXTRN	_getConfigStringArray:PROC
EXTRN	_getNetworkSendBufferBytes:PROC
EXTRN	_requestNetworkListing:PROC
EXTRN	_promptNetworkServer:PROC
EXTRN	_disconnectFromPlaying:PROC
EXTRN	_sendNetworkServerEvent:PROC
EXTRN	@__security_check_cookie@4:PROC
EXTRN	___security_cookie:DWORD
EXTRN	__fltused:DWORD
;	COMDAT ??_C@_0BF@JINGPEJH@GetNetworkSendBuffer@
CONST	SEGMENT
??_C@_0BF@JINGPEJH@GetNetworkSendBuffer@ DB 'GetNetworkSendBuffer', 00H ; `string'
CONST	ENDS
;	COMDAT ??_C@_0BB@DDLGIODH@SendNetworkEvent@
CONST	SEGMENT
??_C@_0BB@DDLGIODH@SendNetworkEvent@ DB 'SendNetworkEvent', 00H ; `string'
CONST	ENDS
;	COMDAT ??_C@_0BF@COCHPDPB@RequestServerListing@
CONST	SEGMENT
??_C@_0BF@COCHPDPB@RequestServerListing@ DB 'RequestServerListing', 00H ; `string'
CONST	ENDS
;	COMDAT ??_C@_0BE@KFJDEDFL@IsNetworkingAllowed@
CONST	SEGMENT
??_C@_0BE@KFJDEDFL@IsNetworkingAllowed@ DB 'IsNetworkingAllowed', 00H ; `string'
CONST	ENDS
;	COMDAT ??_C@_0O@FPFKHCI@GetServerList@
CONST	SEGMENT
??_C@_0O@FPFKHCI@GetServerList@ DB 'GetServerList', 00H	; `string'
CONST	ENDS
;	COMDAT ??_C@_0BF@BGEOLNMB@DisconnectFromServer@
CONST	SEGMENT
??_C@_0BF@BGEOLNMB@DisconnectFromServer@ DB 'DisconnectFromServer', 00H ; `string'
CONST	ENDS
;	COMDAT ??_C@_0BA@MFFACDKG@ConnectToServer@
CONST	SEGMENT
??_C@_0BA@MFFACDKG@ConnectToServer@ DB 'ConnectToServer', 00H ; `string'
CONST	ENDS
;	COMDAT ??_C@_0BI@BAJFOJFB@not?5connected?5to?5server@
CONST	SEGMENT
??_C@_0BI@BAJFOJFB@not?5connected?5to?5server@ DB 'not connected to serve'
	DB	'r', 00H					; `string'
CONST	ENDS
;	COMDAT ??_C@_0BN@GMPOGGPP@not?5ready?5for?5network?5events@
CONST	SEGMENT
??_C@_0BN@GMPOGGPP@not?5ready?5for?5network?5events@ DB 'not ready for ne'
	DB	'twork events', 00H				; `string'
CONST	ENDS
;	COMDAT ??_C@_01EFFIKLCJ@n@
CONST	SEGMENT
??_C@_01EFFIKLCJ@n@ DB 'n', 00H				; `string'
CONST	ENDS
;	COMDAT ??_C@_0M@KFDGPHID@list_server@
CONST	SEGMENT
??_C@_0M@KFDGPHID@list_server@ DB 'list_server', 00H	; `string'
CONST	ENDS
;	COMDAT ??_C@_0BL@HLNOLLKM@server?5address?5is?5too?5long@
CONST	SEGMENT
??_C@_0BL@HLNOLLKM@server?5address?5is?5too?5long@ DB 'server address is '
	DB	'too long', 00H				; `string'
CONST	ENDS
;	COMDAT ??_C@_0BK@DJEONAPG@networking?5is?5not?5allowed@
CONST	SEGMENT
??_C@_0BK@DJEONAPG@networking?5is?5not?5allowed@ DB 'networking is not al'
	DB	'lowed', 00H					; `string'
CONST	ENDS
;	COMDAT ??_C@_0BI@EGDCGCF@networking?5is?5not?5ready@
CONST	SEGMENT
??_C@_0BI@EGDCGCF@networking?5is?5not?5ready@ DB 'networking is not ready'
	DB	00H						; `string'
CONST	ENDS
;	COMDAT ??_C@_05NHJPDJPA@17017@
CONST	SEGMENT
??_C@_05NHJPDJPA@17017@ DB '17017', 00H			; `string'
CONST	ENDS
; Function compile flags: /Ogtpy
;	COMDAT _dslopen_client
_TEXT	SEGMENT
_lua$ = 8						; size = 4
_dslopen_client PROC					; COMDAT
; File C:\Program Files (x86)\Steam\steamapps\common\Bully Scholarship Edition\_derpy_script_loader\src\client\library\lib_client.c
; Line 136
	push	esi
; Line 137
	mov	esi, DWORD PTR _lua$[esp]
	push	OFFSET ??_C@_0BA@MFFACDKG@ConnectToServer@
	push	esi
	call	_lua_pushstring
	push	0
	push	OFFSET _ConnectToServer
	push	esi
	call	_lua_pushcclosure
	push	-10001					; ffffd8efH
	push	esi
	call	_lua_settable
; Line 138
	push	OFFSET ??_C@_0BF@BGEOLNMB@DisconnectFromServer@
	push	esi
	call	_lua_pushstring
	push	0
	push	OFFSET _DisconnectFromServer
	push	esi
	call	_lua_pushcclosure
	push	-10001					; ffffd8efH
	push	esi
	call	_lua_settable
; Line 139
	push	OFFSET ??_C@_0O@FPFKHCI@GetServerList@
	push	esi
	call	_lua_pushstring
	add	esp, 64					; 00000040H
	push	0
	push	OFFSET _GetServerList
	push	esi
	call	_lua_pushcclosure
	push	-10001					; ffffd8efH
	push	esi
	call	_lua_settable
; Line 140
	push	OFFSET ??_C@_0BE@KFJDEDFL@IsNetworkingAllowed@
	push	esi
	call	_lua_pushstring
	push	0
	push	OFFSET _IsNetworkingAllowed
	push	esi
	call	_lua_pushcclosure
	push	-10001					; ffffd8efH
	push	esi
	call	_lua_settable
; Line 141
	push	OFFSET ??_C@_0BF@COCHPDPB@RequestServerListing@
	push	esi
	call	_lua_pushstring
	push	0
	push	OFFSET _RequestServerListing
	push	esi
	call	_lua_pushcclosure
	add	esp, 68					; 00000044H
	push	-10001					; ffffd8efH
	push	esi
	call	_lua_settable
; Line 142
	push	OFFSET ??_C@_0BB@DDLGIODH@SendNetworkEvent@
	push	esi
	call	_lua_pushstring
	push	0
	push	OFFSET _SendNetworkEvent
	push	esi
	call	_lua_pushcclosure
	push	-10001					; ffffd8efH
	push	esi
	call	_lua_settable
; Line 143
	push	1
	push	esi
	call	_getDslState
	add	esp, 44					; 0000002cH
	test	BYTE PTR [eax+340], 4
	je	SHORT $LN4@dslopen_cl
; Line 144
	push	OFFSET ??_C@_0BF@JINGPEJH@GetNetworkSendBuffer@
	push	esi
	call	_lua_pushstring
	push	0
	push	OFFSET _GetNetworkSendBuffer
	push	esi
	call	_lua_pushcclosure
	push	-10001					; ffffd8efH
	push	esi
	call	_lua_settable
	add	esp, 28					; 0000001cH
$LN4@dslopen_cl:
; Line 146
	xor	eax, eax
	pop	esi
	ret	0
_dslopen_client ENDP
_TEXT	ENDS
; Function compile flags: /Ogtpy
;	COMDAT _GetNetworkSendBuffer
_TEXT	SEGMENT
_lua$ = 8						; size = 4
_GetNetworkSendBuffer PROC				; COMDAT
; File C:\Program Files (x86)\Steam\steamapps\common\Bully Scholarship Edition\_derpy_script_loader\src\client\library\lib_client.c
; Line 122
	push	esi
; Line 126
	mov	esi, DWORD PTR _lua$[esp]
	push	edi
	push	1
	push	esi
	call	_getDslState
	mov	edi, eax
	add	esp, 8
; Line 19
	cmp	DWORD PTR [edi+40], 0
	jne	SHORT $LN4@GetNetwork
; Line 21
	test	BYTE PTR [edi+340], 2
	je	SHORT $LN6@GetNetwork
; Line 22
	push	OFFSET ??_C@_0BI@EGDCGCF@networking?5is?5not?5ready@
	push	esi
	call	_luaL_error
	add	esp, 8
$LN6@GetNetwork:
; Line 23
	push	OFFSET ??_C@_0BK@DJEONAPG@networking?5is?5not?5allowed@
	push	esi
	call	_luaL_error
	add	esp, 8
$LN4@GetNetwork:
; Line 128
	push	DWORD PTR [edi+40]
	call	_getNetworkSendBufferBytes
	mov	edi, eax
	add	esp, 4
; Line 129
	cmp	edi, -1
	jne	SHORT $LN2@GetNetwork
; Line 130
	push	OFFSET ??_C@_0BI@BAJFOJFB@not?5connected?5to?5server@
	push	esi
	call	_luaL_error
	add	esp, 8
$LN2@GetNetwork:
; Line 131
	movd	xmm0, edi
	cvtdq2ps xmm0, xmm0
	push	ecx
	movss	DWORD PTR [esp], xmm0
	push	esi
	call	_lua_pushnumber
	add	esp, 8
; Line 132
	mov	eax, 1
	pop	edi
	pop	esi
; Line 133
	ret	0
_GetNetworkSendBuffer ENDP
_TEXT	ENDS
; Function compile flags: /Ogtpy
;	COMDAT _SendNetworkEvent
_TEXT	SEGMENT
_opt$ = -4						; size = 4
_bytes$ = -4						; size = 4
_serialized$ = -4					; size = 4
_lua$ = 8						; size = 4
_SendNetworkEvent PROC					; COMDAT
; File C:\Program Files (x86)\Steam\steamapps\common\Bully Scholarship Edition\_derpy_script_loader\src\client\library\lib_client.c
; Line 84
	push	ecx
	push	ebx
	push	ebp
	push	esi
; Line 92
	mov	esi, DWORD PTR _lua$[esp+12]
	push	edi
	push	1
	push	esi
	call	_getDslState
	mov	ebp, eax
	add	esp, 8
; Line 19
	cmp	DWORD PTR [ebp+40], 0
	jne	SHORT $LN14@SendNetwor
; Line 21
	test	BYTE PTR [ebp+340], 2
	je	SHORT $LN16@SendNetwor
; Line 22
	push	OFFSET ??_C@_0BI@EGDCGCF@networking?5is?5not?5ready@
	push	esi
	call	_luaL_error
	add	esp, 8
$LN16@SendNetwor:
; Line 23
	push	OFFSET ??_C@_0BK@DJEONAPG@networking?5is?5not?5allowed@
	push	esi
	call	_luaL_error
	add	esp, 8
$LN14@SendNetwor:
; Line 94
	push	4
	push	1
	push	esi
	call	_luaL_checktype
; Line 95
	push	esi
	call	_lua_gettop
	mov	ebx, eax
	add	esp, 16					; 00000010H
	cmp	ebx, 2
	jne	SHORT $LN5@SendNetwor
	push	eax
	push	esi
	call	_lua_type
	add	esp, 8
	cmp	eax, 5
	jne	SHORT $LN22@SendNetwor
; Line 96
	push	1
	lea	eax, DWORD PTR _bytes$[esp+24]
	push	eax
	push	esi
	call	_packLuaTableAdvanced
	mov	edi, eax
	add	esp, 12					; 0000000cH
; Line 97
	test	edi, edi
	jne	SHORT $LN7@SendNetwor
; Line 98
	push	-1
	push	esi
	call	_lua_tostring
	push	eax
	push	esi
	call	_luaL_error
	add	esp, 16					; 00000010H
$LN7@SendNetwor:
; Line 99
	mov	eax, 1
	jmp	$LN9@SendNetwor
$LN5@SendNetwor:
; Line 100
	cmp	ebx, 1
	jle	$LN8@SendNetwor
$LN22@SendNetwor:
; Line 101
	push	esi
	call	_lua_newtable
	mov	edi, 2
	add	esp, 4
; Line 102
	cmp	ebx, edi
	jl	SHORT $LN3@SendNetwor
$LL4@SendNetwor:
; Line 103
	push	edi
	push	esi
	call	_lua_pushvalue
; Line 104
	lea	eax, DWORD PTR [edi-1]
	push	eax
	push	-2					; fffffffeH
	push	esi
	call	_lua_rawseti
	inc	edi
	add	esp, 20					; 00000014H
	cmp	edi, ebx
	jle	SHORT $LL4@SendNetwor
$LN3@SendNetwor:
; Line 107
	push	-1
	push	esi
	dec	ebx
	call	_luaL_getn
	add	esp, 8
	cmp	eax, ebx
	je	SHORT $LN10@SendNetwor
; Line 108
	push	OFFSET ??_C@_01EFFIKLCJ@n@
	push	esi
	call	_lua_pushstring
	movd	xmm0, ebx
; Line 109
	add	esp, 4
	cvtdq2ps xmm0, xmm0
	movss	DWORD PTR [esp], xmm0
	push	esi
	call	_lua_pushnumber
; Line 110
	push	-3					; fffffffdH
	push	esi
	call	_lua_rawset
	add	esp, 16					; 00000010H
$LN10@SendNetwor:
; Line 112
	push	1
	lea	eax, DWORD PTR _bytes$[esp+24]
	push	eax
	push	esi
	call	_packLuaTableAdvanced
	mov	edi, eax
	add	esp, 12					; 0000000cH
; Line 113
	test	edi, edi
	jne	SHORT $LN11@SendNetwor
; Line 114
	push	-1
	push	esi
	call	_lua_tostring
	push	eax
	push	esi
	call	_luaL_error
	add	esp, 16					; 00000010H
$LN11@SendNetwor:
; Line 115
	xor	eax, eax
; Line 116
	jmp	SHORT $LN9@SendNetwor
$LN8@SendNetwor:
; Line 117
	mov	DWORD PTR _bytes$[esp+20], 0
	mov	edi, DWORD PTR _serialized$[esp+20]
	mov	eax, DWORD PTR _opt$[esp+20]
$LN9@SendNetwor:
; Line 118
	push	eax
	push	DWORD PTR _bytes$[esp+24]
	push	edi
	push	1
	push	esi
	call	_lua_tostring
	add	esp, 8
	push	eax
	push	DWORD PTR [ebp+40]
	call	_sendNetworkServerEvent
	add	esp, 20					; 00000014H
	test	eax, eax
	je	SHORT $LN23@SendNetwor
; Line 119
	push	OFFSET ??_C@_0BN@GMPOGGPP@not?5ready?5for?5network?5events@
	push	esi
	call	_luaL_error
	add	esp, 8
$LN23@SendNetwor:
; Line 121
	pop	edi
	pop	esi
	pop	ebp
	xor	eax, eax
	pop	ebx
	pop	ecx
	ret	0
_SendNetworkEvent ENDP
_TEXT	ENDS
; Function compile flags: /Ogtpy
;	COMDAT _RequestServerListing
_TEXT	SEGMENT
_ip$ = -132						; size = 128
__$ArrayPad$ = -4					; size = 4
_lua$ = 8						; size = 4
_RequestServerListing PROC				; COMDAT
; File C:\Program Files (x86)\Steam\steamapps\common\Bully Scholarship Edition\_derpy_script_loader\src\client\library\lib_client.c
; Line 67
	sub	esp, 132				; 00000084H
	mov	eax, DWORD PTR ___security_cookie
	xor	eax, esp
	mov	DWORD PTR __$ArrayPad$[esp+132], eax
	push	esi
	mov	esi, DWORD PTR _lua$[esp+132]
	push	edi
; Line 72
	push	1
	push	esi
	call	_getDslState
	mov	edi, eax
	add	esp, 8
; Line 19
	cmp	DWORD PTR [edi+40], 0
	jne	SHORT $LN6@RequestSer
; Line 21
	test	BYTE PTR [edi+340], 2
	je	SHORT $LN8@RequestSer
; Line 22
	push	OFFSET ??_C@_0BI@EGDCGCF@networking?5is?5not?5ready@
	push	esi
	call	_luaL_error
	add	esp, 8
$LN8@RequestSer:
; Line 23
	push	OFFSET ??_C@_0BK@DJEONAPG@networking?5is?5not?5allowed@
	push	esi
	call	_luaL_error
	add	esp, 8
$LN6@RequestSer:
; Line 74
	push	4
	push	1
	push	esi
	call	_luaL_checktype
; Line 75
	push	1
	push	esi
	call	_lua_strlen
	add	esp, 20					; 00000014H
	cmp	eax, 128				; 00000080H
	jb	SHORT $LN2@RequestSer
; Line 76
	push	OFFSET ??_C@_0BL@HLNOLLKM@server?5address?5is?5too?5long@
	push	1
	push	esi
	call	_luaL_argerror
	add	esp, 12					; 0000000cH
$LN2@RequestSer:
; Line 77
	push	1
	push	esi
	call	_lua_tostring
	lea	edx, DWORD PTR _ip$[esp+148]
	add	esp, 8
	sub	edx, eax
$LL5@RequestSer:
	mov	cl, BYTE PTR [eax]
	lea	eax, DWORD PTR [eax+1]
	mov	BYTE PTR [edx+eax-1], cl
	test	cl, cl
	jne	SHORT $LL5@RequestSer
; Line 78
	push	ebx
; Line 10
	mov	bl, BYTE PTR _ip$[esp+144]
; Line 78
	lea	ecx, DWORD PTR _ip$[esp+144]
; Line 10
	xor	edx, edx
	test	bl, bl
	je	SHORT $LN24@RequestSer
	npad	2
$LL13@RequestSer:
	cmp	bl, 58					; 0000003aH
	mov	eax, ecx
	mov	bl, BYTE PTR [ecx+1]
	cmovne	eax, edx
	inc	ecx
	mov	edx, eax
	test	bl, bl
	jne	SHORT $LL13@RequestSer
; Line 13
	test	edx, edx
	je	SHORT $LN24@RequestSer
; Line 15
	mov	BYTE PTR [edx], bl
; Line 16
	inc	edx
	jmp	SHORT $LN10@RequestSer
$LN24@RequestSer:
; Line 14
	mov	edx, OFFSET ??_C@_05NHJPDJPA@17017@
$LN10@RequestSer:
; Line 78
	push	edx
	lea	eax, DWORD PTR _ip$[esp+148]
	push	eax
	push	edi
	call	_requestNetworkListing
	add	esp, 12					; 0000000cH
	pop	ebx
; Line 79
	test	eax, eax
	jne	SHORT $LN3@RequestSer
; Line 83
	pop	edi
	pop	esi
	mov	ecx, DWORD PTR __$ArrayPad$[esp+132]
	xor	ecx, esp
	call	@__security_check_cookie@4
	add	esp, 132				; 00000084H
	ret	0
$LN3@RequestSer:
; Line 81
	push	eax
	push	esi
	call	_lua_pushstring
; Line 83
	mov	ecx, DWORD PTR __$ArrayPad$[esp+148]
	add	esp, 8
	mov	eax, 1
	pop	edi
	pop	esi
	xor	ecx, esp
	call	@__security_check_cookie@4
	add	esp, 132				; 00000084H
	ret	0
_RequestServerListing ENDP
_TEXT	ENDS
; Function compile flags: /Ogtpy
;	COMDAT _IsNetworkingAllowed
_TEXT	SEGMENT
_lua$ = 8						; size = 4
_IsNetworkingAllowed PROC				; COMDAT
; File C:\Program Files (x86)\Steam\steamapps\common\Bully Scholarship Edition\_derpy_script_loader\src\client\library\lib_client.c
; Line 64
	push	1
	push	DWORD PTR _lua$[esp]
	call	_getDslState
	mov	eax, DWORD PTR [eax+340]
	and	eax, 2
	push	eax
	push	DWORD PTR _lua$[esp+8]
	call	_lua_pushboolean
	add	esp, 16					; 00000010H
; Line 65
	mov	eax, 1
; Line 66
	ret	0
_IsNetworkingAllowed ENDP
_TEXT	ENDS
; Function compile flags: /Ogtpy
;	COMDAT _GetServerList
_TEXT	SEGMENT
_lua$ = 8						; size = 4
_GetServerList PROC					; COMDAT
; File C:\Program Files (x86)\Steam\steamapps\common\Bully Scholarship Edition\_derpy_script_loader\src\client\library\lib_client.c
; Line 48
	push	ebx
	push	esi
; Line 53
	mov	esi, DWORD PTR _lua$[esp+4]
	push	edi
	push	1
	push	esi
	call	_getDslState
	mov	ebx, eax
	add	esp, 8
; Line 19
	cmp	DWORD PTR [ebx+40], 0
	jne	SHORT $LN5@GetServerL
; Line 21
	test	BYTE PTR [ebx+340], 2
	je	SHORT $LN7@GetServerL
; Line 22
	push	OFFSET ??_C@_0BI@EGDCGCF@networking?5is?5not?5ready@
	push	esi
	call	_luaL_error
	add	esp, 8
$LN7@GetServerL:
; Line 23
	push	OFFSET ??_C@_0BK@DJEONAPG@networking?5is?5not?5allowed@
	push	esi
	call	_luaL_error
	add	esp, 8
$LN5@GetServerL:
; Line 55
	push	esi
	call	_lua_newtable
; Line 56
	xor	edi, edi
; Line 57
	push	edi
	push	OFFSET ??_C@_0M@KFDGPHID@list_server@
	push	DWORD PTR [ebx+8]
	call	_getConfigStringArray
	add	esp, 16					; 00000010H
	test	eax, eax
	je	SHORT $LN13@GetServerL
	npad	4
$LL2@GetServerL:
; Line 58
	push	eax
	push	esi
	call	_lua_pushstring
; Line 59
	inc	edi
	push	edi
	push	-2					; fffffffeH
	push	esi
	call	_lua_rawseti
	push	edi
	push	OFFSET ??_C@_0M@KFDGPHID@list_server@
	push	DWORD PTR [ebx+8]
	call	_getConfigStringArray
	add	esp, 32					; 00000020H
	test	eax, eax
	jne	SHORT $LL2@GetServerL
$LN13@GetServerL:
	pop	edi
; Line 62
	pop	esi
	mov	eax, 1
	pop	ebx
	ret	0
_GetServerList ENDP
_TEXT	ENDS
; Function compile flags: /Ogtpy
;	COMDAT _DisconnectFromServer
_TEXT	SEGMENT
_lua$ = 8						; size = 4
_DisconnectFromServer PROC				; COMDAT
; File C:\Program Files (x86)\Steam\steamapps\common\Bully Scholarship Edition\_derpy_script_loader\src\client\library\lib_client.c
; Line 40
	push	esi
; Line 43
	mov	esi, DWORD PTR _lua$[esp]
	push	edi
	push	1
	push	esi
	call	_getDslState
	mov	edi, eax
	add	esp, 8
; Line 19
	cmp	DWORD PTR [edi+40], 0
	jne	SHORT $LN3@Disconnect
; Line 21
	test	BYTE PTR [edi+340], 2
	je	SHORT $LN5@Disconnect
; Line 22
	push	OFFSET ??_C@_0BI@EGDCGCF@networking?5is?5not?5ready@
	push	esi
	call	_luaL_error
	add	esp, 8
$LN5@Disconnect:
; Line 23
	push	OFFSET ??_C@_0BK@DJEONAPG@networking?5is?5not?5allowed@
	push	esi
	call	_luaL_error
	add	esp, 8
$LN3@Disconnect:
; Line 45
	push	edi
	call	_disconnectFromPlaying
	neg	eax
	sbb	eax, eax
	inc	eax
	push	eax
	push	esi
	call	_lua_pushboolean
	add	esp, 12					; 0000000cH
; Line 46
	mov	eax, 1
	pop	edi
	pop	esi
; Line 47
	ret	0
_DisconnectFromServer ENDP
_TEXT	ENDS
; Function compile flags: /Ogtpy
;	COMDAT _ConnectToServer
_TEXT	SEGMENT
_ip$ = -132						; size = 128
__$ArrayPad$ = -4					; size = 4
_lua$ = 8						; size = 4
_ConnectToServer PROC					; COMDAT
; File C:\Program Files (x86)\Steam\steamapps\common\Bully Scholarship Edition\_derpy_script_loader\src\client\library\lib_client.c
; Line 27
	sub	esp, 132				; 00000084H
	mov	eax, DWORD PTR ___security_cookie
	xor	eax, esp
	mov	DWORD PTR __$ArrayPad$[esp+132], eax
	push	esi
	mov	esi, DWORD PTR _lua$[esp+132]
	push	edi
; Line 31
	push	1
	push	esi
	call	_getDslState
	mov	edi, eax
	add	esp, 8
; Line 19
	cmp	DWORD PTR [edi+40], 0
	jne	SHORT $LN5@ConnectToS
; Line 21
	test	BYTE PTR [edi+340], 2
	je	SHORT $LN7@ConnectToS
; Line 22
	push	OFFSET ??_C@_0BI@EGDCGCF@networking?5is?5not?5ready@
	push	esi
	call	_luaL_error
	add	esp, 8
$LN7@ConnectToS:
; Line 23
	push	OFFSET ??_C@_0BK@DJEONAPG@networking?5is?5not?5allowed@
	push	esi
	call	_luaL_error
	add	esp, 8
$LN5@ConnectToS:
; Line 33
	push	4
	push	1
	push	esi
	call	_luaL_checktype
; Line 34
	push	1
	push	esi
	call	_lua_strlen
	add	esp, 20					; 00000014H
	cmp	eax, 128				; 00000080H
	jb	SHORT $LN2@ConnectToS
; Line 35
	push	OFFSET ??_C@_0BL@HLNOLLKM@server?5address?5is?5too?5long@
	push	1
	push	esi
	call	_luaL_argerror
	add	esp, 12					; 0000000cH
$LN2@ConnectToS:
; Line 36
	push	1
	push	esi
	call	_lua_tostring
	lea	edx, DWORD PTR _ip$[esp+148]
	add	esp, 8
	sub	edx, eax
$LL4@ConnectToS:
	mov	cl, BYTE PTR [eax]
	lea	eax, DWORD PTR [eax+1]
	mov	BYTE PTR [edx+eax-1], cl
	test	cl, cl
	jne	SHORT $LL4@ConnectToS
; Line 37
	push	0
	lea	eax, DWORD PTR _ip$[esp+144]
	push	eax
	push	edi
	call	_promptNetworkServer
	push	eax
	push	esi
	call	_lua_pushboolean
; Line 39
	mov	ecx, DWORD PTR __$ArrayPad$[esp+160]
	add	esp, 20					; 00000014H
	mov	eax, 1
	pop	edi
	pop	esi
	xor	ecx, esp
	call	@__security_check_cookie@4
	add	esp, 132				; 00000084H
	ret	0
_ConnectToServer ENDP
_TEXT	ENDS
; Function compile flags: /Ogtpy
;	COMDAT _assertNetwork
_TEXT	SEGMENT
_lua$ = 8						; size = 4
_dsl$ = 12						; size = 4
_assertNetwork PROC					; COMDAT
; File C:\Program Files (x86)\Steam\steamapps\common\Bully Scholarship Edition\_derpy_script_loader\src\client\library\lib_client.c
; Line 19
	mov	eax, DWORD PTR _dsl$[esp-4]
	cmp	DWORD PTR [eax+40], 0
	jne	SHORT $LN1@assertNetw
; Line 21
	test	BYTE PTR [eax+340], 2
	je	SHORT $LN3@assertNetw
; Line 22
	push	OFFSET ??_C@_0BI@EGDCGCF@networking?5is?5not?5ready@
	push	DWORD PTR _lua$[esp]
	call	_luaL_error
	add	esp, 8
$LN3@assertNetw:
; Line 23
	mov	DWORD PTR _dsl$[esp-4], OFFSET ??_C@_0BK@DJEONAPG@networking?5is?5not?5allowed@
	jmp	_luaL_error
$LN1@assertNetw:
; Line 24
	ret	0
_assertNetwork ENDP
_TEXT	ENDS
; Function compile flags: /Ogtpy
;	COMDAT _seperatePort
_TEXT	SEGMENT
_ip$ = 8						; size = 4
_seperatePort PROC					; COMDAT
; File C:\Program Files (x86)\Steam\steamapps\common\Bully Scholarship Edition\_derpy_script_loader\src\client\library\lib_client.c
; Line 10
	mov	ecx, DWORD PTR _ip$[esp-4]
	xor	edx, edx
	push	ebx
	mov	bl, BYTE PTR [ecx]
	test	bl, bl
	je	SHORT $LN12@seperatePo
	npad	3
$LL4@seperatePo:
	cmp	bl, 58					; 0000003aH
	mov	eax, ecx
	mov	bl, BYTE PTR [ecx+1]
	cmovne	eax, edx
	inc	ecx
	mov	edx, eax
	test	bl, bl
	jne	SHORT $LL4@seperatePo
; Line 13
	test	edx, edx
	je	SHORT $LN12@seperatePo
; Line 15
	mov	BYTE PTR [edx], bl
; Line 16
	lea	eax, DWORD PTR [edx+1]
	pop	ebx
; Line 17
	ret	0
$LN12@seperatePo:
; Line 14
	mov	eax, OFFSET ??_C@_05NHJPDJPA@17017@
	pop	ebx
; Line 17
	ret	0
_seperatePort ENDP
_TEXT	ENDS
END
