; Listing generated by Microsoft (R) Optimizing Compiler Version 19.23.28107.0 

	TITLE	C:\Program Files (x86)\Steam\steamapps\common\Bully Scholarship Edition\_derpy_script_loader\src\client\library\lib_render.c
	.686P
	.XMM
	include listing.inc
	.model	flat

INCLUDELIB LIBCMT
INCLUDELIB OLDNAMES

PUBLIC	??_C@_01INIBCBCB@f@				; `string'
PUBLIC	??_C@_07JDHEGGGP@texture@			; `string'
PUBLIC	??_C@_01MCMALHOG@a@				; `string'
PUBLIC	??_C@_05IAEKHIAN@alpha@				; `string'
PUBLIC	??_C@_01OJONOECF@b@				; `string'
PUBLIC	??_C@_04PJDGFHHN@bold@				; `string'
PUBLIC	??_C@_04OBGPFBCN@blue@				; `string'
PUBLIC	??_C@_01PAPGNFGE@c@				; `string'
PUBLIC	??_C@_04EDBDANFH@cyan@				; `string'
PUBLIC	??_C@_04EFPADHIC@font@				; `string'
PUBLIC	??_C@_01JEJKBAGA@g@				; `string'
PUBLIC	??_C@_05GBEEJKMC@green@				; `string'
PUBLIC	??_C@_06LNLHEAAG@height@			; `string'
PUBLIC	??_C@_01KBJDNOO@i@				; `string'
PUBLIC	??_C@_06DAHKLION@italic@			; `string'
PUBLIC	??_C@_01GOHFPIOK@m@				; `string'
PUBLIC	??_C@_07EMDGAPCI@magenta@			; `string'
PUBLIC	??_C@_01EFFIKLCJ@n@				; `string'
PUBLIC	??_C@_06IKLLLDHL@normal@			; `string'
PUBLIC	??_C@_01FMEDJKGI@o@				; `string'
PUBLIC	??_C@_09FKEDLGBF@objective@			; `string'
PUBLIC	??_C@_01KDCPPGHE@r@				; `string'
PUBLIC	??_C@_03FAAAOPJM@red@				; `string'
PUBLIC	??_C@_03FNOJMHE@rgb@				; `string'
PUBLIC	??_C@_01LKDEMHDF@s@				; `string'
PUBLIC	??_C@_08JBMKBGPP@subtitle@			; `string'
PUBLIC	??_C@_05MHMEBBGO@scale@				; `string'
PUBLIC	??_C@_01PFHFFBPC@t@				; `string'
PUBLIC	??_C@_01NOFIACDB@w@				; `string'
PUBLIC	??_C@_05PMAELIEO@white@				; `string'
PUBLIC	??_C@_02KEKBNNLK@xy@				; `string'
PUBLIC	??_C@_01EANLCPLP@y@				; `string'
PUBLIC	??_C@_06ENJNJKEL@yellow@			; `string'
;	COMDAT ??_C@_06ENJNJKEL@yellow@
CONST	SEGMENT
??_C@_06ENJNJKEL@yellow@ DB 'yellow', 00H		; `string'
CONST	ENDS
;	COMDAT ??_C@_01EANLCPLP@y@
CONST	SEGMENT
??_C@_01EANLCPLP@y@ DB 'y', 00H				; `string'
CONST	ENDS
;	COMDAT ??_C@_02KEKBNNLK@xy@
CONST	SEGMENT
??_C@_02KEKBNNLK@xy@ DB 'xy', 00H			; `string'
CONST	ENDS
;	COMDAT ??_C@_05PMAELIEO@white@
CONST	SEGMENT
??_C@_05PMAELIEO@white@ DB 'white', 00H			; `string'
CONST	ENDS
;	COMDAT ??_C@_01NOFIACDB@w@
CONST	SEGMENT
??_C@_01NOFIACDB@w@ DB 'w', 00H				; `string'
CONST	ENDS
;	COMDAT ??_C@_01PFHFFBPC@t@
CONST	SEGMENT
??_C@_01PFHFFBPC@t@ DB 't', 00H				; `string'
CONST	ENDS
;	COMDAT ??_C@_05MHMEBBGO@scale@
CONST	SEGMENT
??_C@_05MHMEBBGO@scale@ DB 'scale', 00H			; `string'
CONST	ENDS
;	COMDAT ??_C@_08JBMKBGPP@subtitle@
CONST	SEGMENT
??_C@_08JBMKBGPP@subtitle@ DB 'subtitle', 00H		; `string'
CONST	ENDS
;	COMDAT ??_C@_01LKDEMHDF@s@
CONST	SEGMENT
??_C@_01LKDEMHDF@s@ DB 's', 00H				; `string'
CONST	ENDS
;	COMDAT ??_C@_03FNOJMHE@rgb@
CONST	SEGMENT
??_C@_03FNOJMHE@rgb@ DB 'rgb', 00H			; `string'
CONST	ENDS
;	COMDAT ??_C@_03FAAAOPJM@red@
CONST	SEGMENT
??_C@_03FAAAOPJM@red@ DB 'red', 00H			; `string'
CONST	ENDS
;	COMDAT ??_C@_01KDCPPGHE@r@
CONST	SEGMENT
??_C@_01KDCPPGHE@r@ DB 'r', 00H				; `string'
CONST	ENDS
;	COMDAT ??_C@_09FKEDLGBF@objective@
CONST	SEGMENT
??_C@_09FKEDLGBF@objective@ DB 'objective', 00H		; `string'
CONST	ENDS
;	COMDAT ??_C@_01FMEDJKGI@o@
CONST	SEGMENT
??_C@_01FMEDJKGI@o@ DB 'o', 00H				; `string'
CONST	ENDS
;	COMDAT ??_C@_06IKLLLDHL@normal@
CONST	SEGMENT
??_C@_06IKLLLDHL@normal@ DB 'normal', 00H		; `string'
CONST	ENDS
;	COMDAT ??_C@_01EFFIKLCJ@n@
CONST	SEGMENT
??_C@_01EFFIKLCJ@n@ DB 'n', 00H				; `string'
CONST	ENDS
;	COMDAT ??_C@_07EMDGAPCI@magenta@
CONST	SEGMENT
??_C@_07EMDGAPCI@magenta@ DB 'magenta', 00H		; `string'
CONST	ENDS
;	COMDAT ??_C@_01GOHFPIOK@m@
CONST	SEGMENT
??_C@_01GOHFPIOK@m@ DB 'm', 00H				; `string'
CONST	ENDS
;	COMDAT ??_C@_06DAHKLION@italic@
CONST	SEGMENT
??_C@_06DAHKLION@italic@ DB 'italic', 00H		; `string'
CONST	ENDS
;	COMDAT ??_C@_01KBJDNOO@i@
CONST	SEGMENT
??_C@_01KBJDNOO@i@ DB 'i', 00H				; `string'
CONST	ENDS
;	COMDAT ??_C@_06LNLHEAAG@height@
CONST	SEGMENT
??_C@_06LNLHEAAG@height@ DB 'height', 00H		; `string'
CONST	ENDS
;	COMDAT ??_C@_05GBEEJKMC@green@
CONST	SEGMENT
??_C@_05GBEEJKMC@green@ DB 'green', 00H			; `string'
CONST	ENDS
;	COMDAT ??_C@_01JEJKBAGA@g@
CONST	SEGMENT
??_C@_01JEJKBAGA@g@ DB 'g', 00H				; `string'
CONST	ENDS
;	COMDAT ??_C@_04EFPADHIC@font@
CONST	SEGMENT
??_C@_04EFPADHIC@font@ DB 'font', 00H			; `string'
CONST	ENDS
;	COMDAT ??_C@_04EDBDANFH@cyan@
CONST	SEGMENT
??_C@_04EDBDANFH@cyan@ DB 'cyan', 00H			; `string'
CONST	ENDS
;	COMDAT ??_C@_01PAPGNFGE@c@
CONST	SEGMENT
??_C@_01PAPGNFGE@c@ DB 'c', 00H				; `string'
CONST	ENDS
;	COMDAT ??_C@_04OBGPFBCN@blue@
CONST	SEGMENT
??_C@_04OBGPFBCN@blue@ DB 'blue', 00H			; `string'
CONST	ENDS
;	COMDAT ??_C@_04PJDGFHHN@bold@
CONST	SEGMENT
??_C@_04PJDGFHHN@bold@ DB 'bold', 00H			; `string'
CONST	ENDS
;	COMDAT ??_C@_01OJONOECF@b@
CONST	SEGMENT
??_C@_01OJONOECF@b@ DB 'b', 00H				; `string'
CONST	ENDS
;	COMDAT ??_C@_05IAEKHIAN@alpha@
CONST	SEGMENT
??_C@_05IAEKHIAN@alpha@ DB 'alpha', 00H			; `string'
CONST	ENDS
;	COMDAT ??_C@_01MCMALHOG@a@
CONST	SEGMENT
??_C@_01MCMALHOG@a@ DB 'a', 00H				; `string'
CONST	ENDS
CONST	SEGMENT
_inline_specifiers DD FLAT:??_C@_01MCMALHOG@a@
	DD	FLAT:??_C@_05IAEKHIAN@alpha@
	DD	FLAT:_inline_alpha
	DD	01H
	DD	03H
	ORG $+8
	DD	FLAT:??_C@_01OJONOECF@b@
	DD	FLAT:??_C@_04PJDGFHHN@bold@
	DD	FLAT:_inline_bold
	DD	00H
	ORG $+12
	DD	FLAT:??_C@_04OBGPFBCN@blue@
	DD	00H
	DD	FLAT:_inline_blue
	DD	00H
	ORG $+12
	DD	FLAT:??_C@_01PAPGNFGE@c@
	DD	FLAT:??_C@_04EDBDANFH@cyan@
	DD	FLAT:_inline_cyan
	DD	00H
	ORG $+12
	DD	FLAT:??_C@_01INIBCBCB@f@
	DD	FLAT:??_C@_04EFPADHIC@font@
	DD	FLAT:_inline_font
	DD	0ffffffffH
	DD	04H
	DD	07H
	ORG $+4
	DD	FLAT:??_C@_01JEJKBAGA@g@
	DD	FLAT:??_C@_05GBEEJKMC@green@
	DD	FLAT:_inline_green
	DD	00H
	ORG $+12
	DD	FLAT:??_C@_06LNLHEAAG@height@
	DD	00H
	DD	FLAT:_inline_height
	DD	01H
	DD	03H
	ORG $+8
	DD	FLAT:??_C@_01KBJDNOO@i@
	DD	FLAT:??_C@_06DAHKLION@italic@
	DD	FLAT:_inline_italic
	DD	00H
	ORG $+12
	DD	FLAT:??_C@_01GOHFPIOK@m@
	DD	FLAT:??_C@_07EMDGAPCI@magenta@
	DD	FLAT:_inline_magenta
	DD	00H
	ORG $+12
	DD	FLAT:??_C@_01EFFIKLCJ@n@
	DD	FLAT:??_C@_06IKLLLDHL@normal@
	DD	FLAT:_inline_normal
	DD	00H
	ORG $+12
	DD	FLAT:??_C@_01FMEDJKGI@o@
	DD	FLAT:??_C@_09FKEDLGBF@objective@
	DD	FLAT:_inline_objective
	DD	00H
	ORG $+12
	DD	FLAT:??_C@_01KDCPPGHE@r@
	DD	FLAT:??_C@_03FAAAOPJM@red@
	DD	FLAT:_inline_red
	DD	00H
	ORG $+12
	DD	FLAT:??_C@_03FNOJMHE@rgb@
	DD	00H
	DD	FLAT:_inline_rgb
	DD	03H
	DD	03H
	DD	03H
	DD	03H
	DD	FLAT:??_C@_01LKDEMHDF@s@
	DD	FLAT:??_C@_08JBMKBGPP@subtitle@
	DD	FLAT:_inline_subtitle
	DD	00H
	ORG $+12
	DD	FLAT:??_C@_05MHMEBBGO@scale@
	DD	00H
	DD	FLAT:_inline_scale
	DD	01H
	DD	03H
	ORG $+8
	DD	FLAT:??_C@_01PFHFFBPC@t@
	DD	FLAT:??_C@_07JDHEGGGP@texture@
	DD	FLAT:_inline_texture
	DD	01H
	DD	07H
	ORG $+8
	DD	FLAT:??_C@_01NOFIACDB@w@
	DD	FLAT:??_C@_05PMAELIEO@white@
	DD	FLAT:_inline_white
	DD	00H
	ORG $+12
	DD	FLAT:??_C@_02KEKBNNLK@xy@
	DD	00H
	DD	FLAT:_inline_xy
	DD	02H
	DD	03H
	DD	03H
	ORG $+4
	DD	FLAT:??_C@_01EANLCPLP@y@
	DD	FLAT:??_C@_06ENJNJKEL@yellow@
	DD	FLAT:_inline_yellow
	DD	00H
	ORG $+12
CONST	ENDS
;	COMDAT ??_C@_07JDHEGGGP@texture@
CONST	SEGMENT
??_C@_07JDHEGGGP@texture@ DB 'texture', 00H		; `string'
CONST	ENDS
;	COMDAT ??_C@_01INIBCBCB@f@
CONST	SEGMENT
??_C@_01INIBCBCB@f@ DB 'f', 00H				; `string'
CONST	ENDS
PUBLIC	___local_stdio_printf_options
PUBLIC	__vsnprintf_l
PUBLIC	__vsprintf_l
PUBLIC	_sprintf
PUBLIC	_dslopen_render
PUBLIC	??_C@_0L@LNMHOCME@dsl_render@			; `string'
PUBLIC	??_C@_04BDLIKKMN@__gc@				; `string'
PUBLIC	??_C@_06BPGFKLEK@__mode@			; `string'
PUBLIC	??_C@_01MHEDDDHA@v@				; `string'
PUBLIC	??_C@_0BB@ELFFKIAH@invalid?5renderer@		; `string'
PUBLIC	??_C@_04HDOCAJNK@?$CFs?$CFs@			; `string'
PUBLIC	??_C@_0BK@FGOEOOHP@an?5unknown?5error?5occurred@ ; `string'
PUBLIC	??_C@_0L@ILOABIJA@POST_WORLD@			; `string'
PUBLIC	??_C@_08JJMKLCIN@PRE_FADE@			; `string'
PUBLIC	??_C@_09FLCHFCFJ@POST_FADE@			; `string'
PUBLIC	??_C@_0BA@EEPCJNBC@unknown?5layer?3?5@		; `string'
PUBLIC	??_C@_02DKCKIIND@?$CFs@				; `string'
PUBLIC	??_C@_08FEJHICA@font?3?5?$CFs@			; `string'
PUBLIC	??_C@_0L@HDFPAPPH@__tostring@			; `string'
PUBLIC	??_C@_0BO@LLMELLC@failed?5to?5allocate?5font?5cache@ ; `string'
PUBLIC	??_C@_06ICGJLFIM@string@			; `string'
PUBLIC	??_C@_06DLEPGFEF@format@			; `string'
PUBLIC	??_C@_08FNIIFOJC@tostring@			; `string'
PUBLIC	??_C@_05MPFIAJAP@Arial@				; `string'
PUBLIC	??_C@_0L@PFIBJIPN@?$CFs?5or?5font@		; `string'
PUBLIC	??_C@_0BP@MEEICDCE@unknown?5horizontal?5alignment?3?5@ ; `string'
PUBLIC	??_C@_0BN@OLJEILMP@unknown?5vertical?5alignment?3?5@ ; `string'
PUBLIC	??_C@_0BO@FJBNHMOM@negative?5clipping?5not?5allowed@ ; `string'
PUBLIC	??_C@_0BO@PAJPJHHM@negative?5wrapping?5not?5allowed@ ; `string'
PUBLIC	??_C@_0BJ@KDGDBNLE@unknown?5redrawing?5mode?3?5@ ; `string'
PUBLIC	??_C@_07IHKKODPD@Georgia@			; `string'
PUBLIC	??_C@_0BI@EFDLLCHF@unknown?5format?5number?3?5@	; `string'
PUBLIC	??_C@_0BI@DAFDIFPA@?$CFs?5or?5text?5format?5table@ ; `string'
PUBLIC	??_C@_0BG@OMCIBOM@bad?5text?5format?5table@	; `string'
PUBLIC	??_C@_0BJ@HIOBOMGM@width?5cannot?5be?5negative@	; `string'
PUBLIC	??_C@_0BM@KAMPCLBM@unfinished?5format?5specifier@ ; `string'
PUBLIC	??_C@_0BJ@JNDNOEDN@unknown?5format?5specifier@	; `string'
PUBLIC	??_C@_0BJ@JOKDHPBJ@cannot?5use?5nil?5for?5style@ ; `string'
PUBLIC	??_C@_0BH@BBBAKPGP@unknown?5text?5style?3?5?$CFd@ ; `string'
PUBLIC	??_C@_0CJ@GFPKOCOL@?$CFs?5or?5text?5format?5table?5expecte@ ; `string'
PUBLIC	??_C@_0BH@GGEONFEF@unexpected?5extra?5value@	; `string'
PUBLIC	??_C@_0BN@JFMNEPDM@tried?5to?5draw?5too?5many?5lines@ ; `string'
PUBLIC	??_C@_0BN@HBEDCOBA@failed?5to?5set?5renderer?5state@ ; `string'
PUBLIC	??_C@_0P@PPJHFMDD@Lucida?5Console@		; `string'
PUBLIC	??_C@_04CFJMJGDJ@?$CF?42X@			; `string'
PUBLIC	??_C@_05GABIMIAL@?$CL0x?$CFX@			; `string'
PUBLIC	??_C@_0BF@BLHGBKME@GetDisplayResolution@	; `string'
PUBLIC	??_C@_0BG@CBCOHFCL@GetDisplayAspectRatio@	; `string'
PUBLIC	??_C@_0N@FPKBLDOB@SetDrawLayer@			; `string'
PUBLIC	??_C@_0O@DPFNOGDL@DrawRectangle@		; `string'
PUBLIC	??_C@_0O@PBBGAKJL@CreateTexture@		; `string'
PUBLIC	??_C@_0M@ELDJLLNA@DrawTexture@			; `string'
PUBLIC	??_C@_0N@GLOILPBO@DrawTexture2@			; `string'
PUBLIC	??_C@_0BB@HMGMMJGI@SetTextureBounds@		; `string'
PUBLIC	??_C@_0BF@LIFBMJBG@GetTextureResolution@	; `string'
PUBLIC	??_C@_0BG@EJFAOBAA@GetTextureAspectRatio@	; `string'
PUBLIC	??_C@_0BN@LBIHCDBK@GetTextureDisplayAspectRatio@ ; `string'
PUBLIC	??_C@_0L@NOCJHKCD@CreateFont@			; `string'
PUBLIC	??_C@_08JPMBLOLP@DrawText@			; `string'
PUBLIC	??_C@_0M@OLMKAOJF@MeasureText@			; `string'
PUBLIC	??_C@_0M@MAEPFJBD@DiscardText@			; `string'
PUBLIC	??_C@_0BA@MJEFIMFG@SetTextPosition@		; `string'
PUBLIC	??_C@_0O@MNOPHNJG@SetTextHeight@		; `string'
PUBLIC	??_C@_0N@PFANAOGL@SetTextScale@			; `string'
PUBLIC	??_C@_0M@FEIDNBKO@SetTextFont@			; `string'
PUBLIC	??_C@_0N@BDFGCEOP@SetTextAlign@			; `string'
PUBLIC	??_C@_0N@MGIEADOD@SetTextColor@			; `string'
PUBLIC	??_C@_0O@CBIDDKDA@SetTextColour@		; `string'
PUBLIC	??_C@_0O@BIAPAHBF@SetTextShadow@		; `string'
PUBLIC	??_C@_0P@NKFLCKO@SetTextOutline@		; `string'
PUBLIC	??_C@_0M@OIEFLBFB@SetTextBold@			; `string'
PUBLIC	??_C@_0N@CKAICCDH@SetTextBlack@			; `string'
PUBLIC	??_C@_0O@EACCIFHN@SetTextItalic@		; `string'
PUBLIC	??_C@_0BA@BAHABCGM@SetTextClipping@		; `string'
PUBLIC	??_C@_0BA@LLICGMGP@SetTextWrapping@		; `string'
PUBLIC	??_C@_0BB@IDKBADJP@SetTextRedrawing@		; `string'
PUBLIC	??_C@_0BC@JACKEEPP@GetTextFormatting@		; `string'
PUBLIC	??_C@_0BC@LJLKIBFN@PopTextFormatting@		; `string'
PUBLIC	??_C@_0BC@LFCBMPOB@SetTextFormatting@		; `string'
PUBLIC	??_C@_0P@NPJHGEPG@DrawTextInline@		; `string'
PUBLIC	??_C@_0BC@ONJOANDP@MeasureTextInline@		; `string'
PUBLIC	??_C@_0N@BNOCKKGE@ClearDisplay@			; `string'
PUBLIC	??_C@_0BD@FMLPFAKC@CreateRenderTarget@		; `string'
PUBLIC	??_C@_0BJ@ELGOBEEN@DrawBackBufferOntoTarget@	; `string'
PUBLIC	??_C@_0BJ@NJPBJEMD@SetRendererAlphaBlending@	; `string'
PUBLIC	??_C@_0BA@OAOAJMJB@DrawDebugMemory@		; `string'
PUBLIC	??_C@_0BC@GGCINGEE@GetTextCacheDebug@		; `string'
PUBLIC	__real@00000000
PUBLIC	__real@3b03126f
PUBLIC	__real@3b83126f
PUBLIC	__real@3c23d70a
PUBLIC	__real@3ccccccd
PUBLIC	__real@3d178d50
PUBLIC	__real@3d48b439
PUBLIC	__real@3e374bc7
PUBLIC	__real@3e800000
PUBLIC	__real@3f000000
PUBLIC	__real@3f553f7d
PUBLIC	__real@3f800000
PUBLIC	__real@3f91df46a2529d39
PUBLIC	__real@40800000
PUBLIC	__real@41800000
PUBLIC	__real@447a0000
PUBLIC	__xmm@41f00000000000000000000000000000
EXTRN	___stdio_common_vsprintf:PROC
EXTRN	_free:PROC
EXTRN	_malloc:PROC
EXTRN	_strtol:PROC
EXTRN	_strtoul:PROC
EXTRN	_isspace:PROC
EXTRN	_toupper:PROC
EXTRN	_tolower:PROC
EXTRN	_lua_gettop:PROC
EXTRN	_lua_settop:PROC
EXTRN	_lua_pushvalue:PROC
EXTRN	_lua_remove:PROC
EXTRN	_lua_insert:PROC
EXTRN	_lua_replace:PROC
EXTRN	_lua_checkstack:PROC
EXTRN	_lua_isnumber:PROC
EXTRN	_lua_isstring:PROC
EXTRN	_lua_isuserdata:PROC
EXTRN	_lua_type:PROC
EXTRN	_lua_typename:PROC
EXTRN	_lua_tonumber:PROC
EXTRN	_lua_toboolean:PROC
EXTRN	_lua_tostring:PROC
EXTRN	_lua_strlen:PROC
EXTRN	_lua_touserdata:PROC
EXTRN	_lua_pushnil:PROC
EXTRN	_lua_pushnumber:PROC
EXTRN	_lua_pushstring:PROC
EXTRN	_lua_pushfstring:PROC
EXTRN	_lua_pushcclosure:PROC
EXTRN	_lua_gettable:PROC
EXTRN	_lua_rawget:PROC
EXTRN	_lua_rawgeti:PROC
EXTRN	_lua_newtable:PROC
EXTRN	_lua_newuserdata:PROC
EXTRN	_lua_settable:PROC
EXTRN	_lua_rawset:PROC
EXTRN	_lua_rawseti:PROC
EXTRN	_lua_setmetatable:PROC
EXTRN	_lua_call:PROC
EXTRN	_lua_pcall:PROC
EXTRN	_lua_setgcthreshold:PROC
EXTRN	_lua_concat:PROC
EXTRN	_lua_getstack:PROC
EXTRN	_lua_getinfo:PROC
EXTRN	_luaL_typerror:PROC
EXTRN	_luaL_argerror:PROC
EXTRN	_luaL_checklstring:PROC
EXTRN	_luaL_checknumber:PROC
EXTRN	_luaL_checktype:PROC
EXTRN	_luaL_checkany:PROC
EXTRN	_luaL_error:PROC
EXTRN	_luaL_ref:PROC
EXTRN	_luaL_unref:PROC
EXTRN	_getRenderErrorString:PROC
EXTRN	_isRenderActive:PROC
EXTRN	_getRenderAspect:PROC
EXTRN	_getRenderResolution:PROC
EXTRN	_drawRenderRectangle:PROC
EXTRN	_drawRenderTextureUV:PROC
EXTRN	_drawRenderTextureUV2:PROC
EXTRN	_drawRenderString:PROC
EXTRN	_clearRenderDisplay:PROC
EXTRN	_getRenderTextureAspect:PROC
EXTRN	_getRenderTextureResolution:PROC
EXTRN	_fillRenderTextureBackBuffer:PROC
EXTRN	_createRenderFont:PROC
EXTRN	_destroyRenderFont:PROC
EXTRN	_getRenderStringCacheCount:PROC
EXTRN	_getDslState:PROC
EXTRN	_getDslPrintPrefix:PROC
EXTRN	_createLuaTexture:PROC
EXTRN	_dslisenum:PROC
EXTRN	_addScriptEventCallback:PROC
EXTRN	_printConsoleFormatted:PROC
EXTRN	@__security_check_cookie@4:PROC
EXTRN	__ftol2_sse:PROC
EXTRN	__ftoui3:PROC
EXTRN	_memset:PROC
EXTRN	___security_cookie:DWORD
EXTRN	__fltused:DWORD
_DATA	SEGMENT
COMM	?_OptionsStorage@?1??__local_stdio_printf_options@@9@9:QWORD							; `__local_stdio_printf_options'::`2'::_OptionsStorage
_DATA	ENDS
;	COMDAT __xmm@41f00000000000000000000000000000
CONST	SEGMENT
__xmm@41f00000000000000000000000000000 DB 00H, 00H, 00H, 00H, 00H, 00H, 00H
	DB	00H, 00H, 00H, 00H, 00H, 00H, 00H, 0f0H, 'A'
CONST	ENDS
;	COMDAT __real@447a0000
CONST	SEGMENT
__real@447a0000 DD 0447a0000r			; 1000
CONST	ENDS
;	COMDAT __real@41800000
CONST	SEGMENT
__real@41800000 DD 041800000r			; 16
CONST	ENDS
;	COMDAT __real@40800000
CONST	SEGMENT
__real@40800000 DD 040800000r			; 4
CONST	ENDS
;	COMDAT __real@3f91df46a2529d39
CONST	SEGMENT
__real@3f91df46a2529d39 DQ 03f91df46a2529d39r	; 0.0174533
CONST	ENDS
;	COMDAT __real@3f800000
CONST	SEGMENT
__real@3f800000 DD 03f800000r			; 1
CONST	ENDS
;	COMDAT __real@3f553f7d
CONST	SEGMENT
__real@3f553f7d DD 03f553f7dr			; 0.833
CONST	ENDS
;	COMDAT __real@3f000000
CONST	SEGMENT
__real@3f000000 DD 03f000000r			; 0.5
CONST	ENDS
;	COMDAT __real@3e800000
CONST	SEGMENT
__real@3e800000 DD 03e800000r			; 0.25
CONST	ENDS
;	COMDAT __real@3e374bc7
CONST	SEGMENT
__real@3e374bc7 DD 03e374bc7r			; 0.179
CONST	ENDS
;	COMDAT __real@3d48b439
CONST	SEGMENT
__real@3d48b439 DD 03d48b439r			; 0.049
CONST	ENDS
;	COMDAT __real@3d178d50
CONST	SEGMENT
__real@3d178d50 DD 03d178d50r			; 0.037
CONST	ENDS
;	COMDAT __real@3ccccccd
CONST	SEGMENT
__real@3ccccccd DD 03ccccccdr			; 0.025
CONST	ENDS
;	COMDAT __real@3c23d70a
CONST	SEGMENT
__real@3c23d70a DD 03c23d70ar			; 0.01
CONST	ENDS
;	COMDAT __real@3b83126f
CONST	SEGMENT
__real@3b83126f DD 03b83126fr			; 0.004
CONST	ENDS
;	COMDAT __real@3b03126f
CONST	SEGMENT
__real@3b03126f DD 03b03126fr			; 0.002
CONST	ENDS
;	COMDAT __real@00000000
CONST	SEGMENT
__real@00000000 DD 000000000r			; 0
CONST	ENDS
;	COMDAT ??_C@_0BC@GGCINGEE@GetTextCacheDebug@
CONST	SEGMENT
??_C@_0BC@GGCINGEE@GetTextCacheDebug@ DB 'GetTextCacheDebug', 00H ; `string'
CONST	ENDS
;	COMDAT ??_C@_0BA@OAOAJMJB@DrawDebugMemory@
CONST	SEGMENT
??_C@_0BA@OAOAJMJB@DrawDebugMemory@ DB 'DrawDebugMemory', 00H ; `string'
CONST	ENDS
;	COMDAT ??_C@_0BJ@NJPBJEMD@SetRendererAlphaBlending@
CONST	SEGMENT
??_C@_0BJ@NJPBJEMD@SetRendererAlphaBlending@ DB 'SetRendererAlphaBlending'
	DB	00H						; `string'
CONST	ENDS
;	COMDAT ??_C@_0BJ@ELGOBEEN@DrawBackBufferOntoTarget@
CONST	SEGMENT
??_C@_0BJ@ELGOBEEN@DrawBackBufferOntoTarget@ DB 'DrawBackBufferOntoTarget'
	DB	00H						; `string'
CONST	ENDS
;	COMDAT ??_C@_0BD@FMLPFAKC@CreateRenderTarget@
CONST	SEGMENT
??_C@_0BD@FMLPFAKC@CreateRenderTarget@ DB 'CreateRenderTarget', 00H ; `string'
CONST	ENDS
;	COMDAT ??_C@_0N@BNOCKKGE@ClearDisplay@
CONST	SEGMENT
??_C@_0N@BNOCKKGE@ClearDisplay@ DB 'ClearDisplay', 00H	; `string'
CONST	ENDS
;	COMDAT ??_C@_0BC@ONJOANDP@MeasureTextInline@
CONST	SEGMENT
??_C@_0BC@ONJOANDP@MeasureTextInline@ DB 'MeasureTextInline', 00H ; `string'
CONST	ENDS
;	COMDAT ??_C@_0P@NPJHGEPG@DrawTextInline@
CONST	SEGMENT
??_C@_0P@NPJHGEPG@DrawTextInline@ DB 'DrawTextInline', 00H ; `string'
CONST	ENDS
;	COMDAT ??_C@_0BC@LFCBMPOB@SetTextFormatting@
CONST	SEGMENT
??_C@_0BC@LFCBMPOB@SetTextFormatting@ DB 'SetTextFormatting', 00H ; `string'
CONST	ENDS
;	COMDAT ??_C@_0BC@LJLKIBFN@PopTextFormatting@
CONST	SEGMENT
??_C@_0BC@LJLKIBFN@PopTextFormatting@ DB 'PopTextFormatting', 00H ; `string'
CONST	ENDS
;	COMDAT ??_C@_0BC@JACKEEPP@GetTextFormatting@
CONST	SEGMENT
??_C@_0BC@JACKEEPP@GetTextFormatting@ DB 'GetTextFormatting', 00H ; `string'
CONST	ENDS
;	COMDAT ??_C@_0BB@IDKBADJP@SetTextRedrawing@
CONST	SEGMENT
??_C@_0BB@IDKBADJP@SetTextRedrawing@ DB 'SetTextRedrawing', 00H ; `string'
CONST	ENDS
;	COMDAT ??_C@_0BA@LLICGMGP@SetTextWrapping@
CONST	SEGMENT
??_C@_0BA@LLICGMGP@SetTextWrapping@ DB 'SetTextWrapping', 00H ; `string'
CONST	ENDS
;	COMDAT ??_C@_0BA@BAHABCGM@SetTextClipping@
CONST	SEGMENT
??_C@_0BA@BAHABCGM@SetTextClipping@ DB 'SetTextClipping', 00H ; `string'
CONST	ENDS
;	COMDAT ??_C@_0O@EACCIFHN@SetTextItalic@
CONST	SEGMENT
??_C@_0O@EACCIFHN@SetTextItalic@ DB 'SetTextItalic', 00H ; `string'
CONST	ENDS
;	COMDAT ??_C@_0N@CKAICCDH@SetTextBlack@
CONST	SEGMENT
??_C@_0N@CKAICCDH@SetTextBlack@ DB 'SetTextBlack', 00H	; `string'
CONST	ENDS
;	COMDAT ??_C@_0M@OIEFLBFB@SetTextBold@
CONST	SEGMENT
??_C@_0M@OIEFLBFB@SetTextBold@ DB 'SetTextBold', 00H	; `string'
CONST	ENDS
;	COMDAT ??_C@_0P@NKFLCKO@SetTextOutline@
CONST	SEGMENT
??_C@_0P@NKFLCKO@SetTextOutline@ DB 'SetTextOutline', 00H ; `string'
CONST	ENDS
;	COMDAT ??_C@_0O@BIAPAHBF@SetTextShadow@
CONST	SEGMENT
??_C@_0O@BIAPAHBF@SetTextShadow@ DB 'SetTextShadow', 00H ; `string'
CONST	ENDS
;	COMDAT ??_C@_0O@CBIDDKDA@SetTextColour@
CONST	SEGMENT
??_C@_0O@CBIDDKDA@SetTextColour@ DB 'SetTextColour', 00H ; `string'
CONST	ENDS
;	COMDAT ??_C@_0N@MGIEADOD@SetTextColor@
CONST	SEGMENT
??_C@_0N@MGIEADOD@SetTextColor@ DB 'SetTextColor', 00H	; `string'
CONST	ENDS
;	COMDAT ??_C@_0N@BDFGCEOP@SetTextAlign@
CONST	SEGMENT
??_C@_0N@BDFGCEOP@SetTextAlign@ DB 'SetTextAlign', 00H	; `string'
CONST	ENDS
;	COMDAT ??_C@_0M@FEIDNBKO@SetTextFont@
CONST	SEGMENT
??_C@_0M@FEIDNBKO@SetTextFont@ DB 'SetTextFont', 00H	; `string'
CONST	ENDS
;	COMDAT ??_C@_0N@PFANAOGL@SetTextScale@
CONST	SEGMENT
??_C@_0N@PFANAOGL@SetTextScale@ DB 'SetTextScale', 00H	; `string'
CONST	ENDS
;	COMDAT ??_C@_0O@MNOPHNJG@SetTextHeight@
CONST	SEGMENT
??_C@_0O@MNOPHNJG@SetTextHeight@ DB 'SetTextHeight', 00H ; `string'
CONST	ENDS
;	COMDAT ??_C@_0BA@MJEFIMFG@SetTextPosition@
CONST	SEGMENT
??_C@_0BA@MJEFIMFG@SetTextPosition@ DB 'SetTextPosition', 00H ; `string'
CONST	ENDS
;	COMDAT ??_C@_0M@MAEPFJBD@DiscardText@
CONST	SEGMENT
??_C@_0M@MAEPFJBD@DiscardText@ DB 'DiscardText', 00H	; `string'
CONST	ENDS
;	COMDAT ??_C@_0M@OLMKAOJF@MeasureText@
CONST	SEGMENT
??_C@_0M@OLMKAOJF@MeasureText@ DB 'MeasureText', 00H	; `string'
CONST	ENDS
;	COMDAT ??_C@_08JPMBLOLP@DrawText@
CONST	SEGMENT
??_C@_08JPMBLOLP@DrawText@ DB 'DrawText', 00H		; `string'
CONST	ENDS
;	COMDAT ??_C@_0L@NOCJHKCD@CreateFont@
CONST	SEGMENT
??_C@_0L@NOCJHKCD@CreateFont@ DB 'CreateFont', 00H	; `string'
CONST	ENDS
;	COMDAT ??_C@_0BN@LBIHCDBK@GetTextureDisplayAspectRatio@
CONST	SEGMENT
??_C@_0BN@LBIHCDBK@GetTextureDisplayAspectRatio@ DB 'GetTextureDisplayAsp'
	DB	'ectRatio', 00H				; `string'
CONST	ENDS
;	COMDAT ??_C@_0BG@EJFAOBAA@GetTextureAspectRatio@
CONST	SEGMENT
??_C@_0BG@EJFAOBAA@GetTextureAspectRatio@ DB 'GetTextureAspectRatio', 00H ; `string'
CONST	ENDS
;	COMDAT ??_C@_0BF@LIFBMJBG@GetTextureResolution@
CONST	SEGMENT
??_C@_0BF@LIFBMJBG@GetTextureResolution@ DB 'GetTextureResolution', 00H ; `string'
CONST	ENDS
;	COMDAT ??_C@_0BB@HMGMMJGI@SetTextureBounds@
CONST	SEGMENT
??_C@_0BB@HMGMMJGI@SetTextureBounds@ DB 'SetTextureBounds', 00H ; `string'
CONST	ENDS
;	COMDAT ??_C@_0N@GLOILPBO@DrawTexture2@
CONST	SEGMENT
??_C@_0N@GLOILPBO@DrawTexture2@ DB 'DrawTexture2', 00H	; `string'
CONST	ENDS
;	COMDAT ??_C@_0M@ELDJLLNA@DrawTexture@
CONST	SEGMENT
??_C@_0M@ELDJLLNA@DrawTexture@ DB 'DrawTexture', 00H	; `string'
CONST	ENDS
;	COMDAT ??_C@_0O@PBBGAKJL@CreateTexture@
CONST	SEGMENT
??_C@_0O@PBBGAKJL@CreateTexture@ DB 'CreateTexture', 00H ; `string'
CONST	ENDS
;	COMDAT ??_C@_0O@DPFNOGDL@DrawRectangle@
CONST	SEGMENT
??_C@_0O@DPFNOGDL@DrawRectangle@ DB 'DrawRectangle', 00H ; `string'
CONST	ENDS
;	COMDAT ??_C@_0N@FPKBLDOB@SetDrawLayer@
CONST	SEGMENT
??_C@_0N@FPKBLDOB@SetDrawLayer@ DB 'SetDrawLayer', 00H	; `string'
CONST	ENDS
;	COMDAT ??_C@_0BG@CBCOHFCL@GetDisplayAspectRatio@
CONST	SEGMENT
??_C@_0BG@CBCOHFCL@GetDisplayAspectRatio@ DB 'GetDisplayAspectRatio', 00H ; `string'
CONST	ENDS
;	COMDAT ??_C@_0BF@BLHGBKME@GetDisplayResolution@
CONST	SEGMENT
??_C@_0BF@BLHGBKME@GetDisplayResolution@ DB 'GetDisplayResolution', 00H ; `string'
CONST	ENDS
;	COMDAT ??_C@_05GABIMIAL@?$CL0x?$CFX@
CONST	SEGMENT
??_C@_05GABIMIAL@?$CL0x?$CFX@ DB '+0x%X', 00H		; `string'
CONST	ENDS
;	COMDAT ??_C@_04CFJMJGDJ@?$CF?42X@
CONST	SEGMENT
??_C@_04CFJMJGDJ@?$CF?42X@ DB '%.2X', 00H		; `string'
CONST	ENDS
;	COMDAT ??_C@_0P@PPJHFMDD@Lucida?5Console@
CONST	SEGMENT
??_C@_0P@PPJHFMDD@Lucida?5Console@ DB 'Lucida Console', 00H ; `string'
CONST	ENDS
;	COMDAT ??_C@_0BN@HBEDCOBA@failed?5to?5set?5renderer?5state@
CONST	SEGMENT
??_C@_0BN@HBEDCOBA@failed?5to?5set?5renderer?5state@ DB 'failed to set re'
	DB	'nderer state', 00H				; `string'
CONST	ENDS
;	COMDAT ??_C@_0BN@JFMNEPDM@tried?5to?5draw?5too?5many?5lines@
CONST	SEGMENT
??_C@_0BN@JFMNEPDM@tried?5to?5draw?5too?5many?5lines@ DB 'tried to draw t'
	DB	'oo many lines', 00H				; `string'
CONST	ENDS
;	COMDAT ??_C@_0BH@GGEONFEF@unexpected?5extra?5value@
CONST	SEGMENT
??_C@_0BH@GGEONFEF@unexpected?5extra?5value@ DB 'unexpected extra value', 00H ; `string'
CONST	ENDS
;	COMDAT ??_C@_0CJ@GFPKOCOL@?$CFs?5or?5text?5format?5table?5expecte@
CONST	SEGMENT
??_C@_0CJ@GFPKOCOL@?$CFs?5or?5text?5format?5table?5expecte@ DB '%s or tex'
	DB	't format table expected, got %s', 00H	; `string'
CONST	ENDS
;	COMDAT ??_C@_0BH@BBBAKPGP@unknown?5text?5style?3?5?$CFd@
CONST	SEGMENT
??_C@_0BH@BBBAKPGP@unknown?5text?5style?3?5?$CFd@ DB 'unknown text style:'
	DB	' %d', 00H					; `string'
CONST	ENDS
;	COMDAT ??_C@_0BJ@JOKDHPBJ@cannot?5use?5nil?5for?5style@
CONST	SEGMENT
??_C@_0BJ@JOKDHPBJ@cannot?5use?5nil?5for?5style@ DB 'cannot use nil for s'
	DB	'tyle', 00H					; `string'
CONST	ENDS
;	COMDAT ??_C@_0BJ@JNDNOEDN@unknown?5format?5specifier@
CONST	SEGMENT
??_C@_0BJ@JNDNOEDN@unknown?5format?5specifier@ DB 'unknown format specifi'
	DB	'er', 00H					; `string'
CONST	ENDS
;	COMDAT ??_C@_0BM@KAMPCLBM@unfinished?5format?5specifier@
CONST	SEGMENT
??_C@_0BM@KAMPCLBM@unfinished?5format?5specifier@ DB 'unfinished format s'
	DB	'pecifier', 00H				; `string'
CONST	ENDS
;	COMDAT ??_C@_0BJ@HIOBOMGM@width?5cannot?5be?5negative@
CONST	SEGMENT
??_C@_0BJ@HIOBOMGM@width?5cannot?5be?5negative@ DB 'width cannot be negat'
	DB	'ive', 00H					; `string'
CONST	ENDS
;	COMDAT ??_C@_0BG@OMCIBOM@bad?5text?5format?5table@
CONST	SEGMENT
??_C@_0BG@OMCIBOM@bad?5text?5format?5table@ DB 'bad text format table', 00H ; `string'
CONST	ENDS
;	COMDAT ??_C@_0BI@DAFDIFPA@?$CFs?5or?5text?5format?5table@
CONST	SEGMENT
??_C@_0BI@DAFDIFPA@?$CFs?5or?5text?5format?5table@ DB '%s or text format '
	DB	'table', 00H					; `string'
CONST	ENDS
;	COMDAT ??_C@_0BI@EFDLLCHF@unknown?5format?5number?3?5@
CONST	SEGMENT
??_C@_0BI@EFDLLCHF@unknown?5format?5number?3?5@ DB 'unknown format number'
	DB	': ', 00H					; `string'
CONST	ENDS
;	COMDAT ??_C@_07IHKKODPD@Georgia@
CONST	SEGMENT
??_C@_07IHKKODPD@Georgia@ DB 'Georgia', 00H		; `string'
CONST	ENDS
;	COMDAT ??_C@_0BJ@KDGDBNLE@unknown?5redrawing?5mode?3?5@
CONST	SEGMENT
??_C@_0BJ@KDGDBNLE@unknown?5redrawing?5mode?3?5@ DB 'unknown redrawing mo'
	DB	'de: ', 00H					; `string'
CONST	ENDS
;	COMDAT ??_C@_0BO@PAJPJHHM@negative?5wrapping?5not?5allowed@
CONST	SEGMENT
??_C@_0BO@PAJPJHHM@negative?5wrapping?5not?5allowed@ DB 'negative wrappin'
	DB	'g not allowed', 00H				; `string'
CONST	ENDS
;	COMDAT ??_C@_0BO@FJBNHMOM@negative?5clipping?5not?5allowed@
CONST	SEGMENT
??_C@_0BO@FJBNHMOM@negative?5clipping?5not?5allowed@ DB 'negative clippin'
	DB	'g not allowed', 00H				; `string'
CONST	ENDS
;	COMDAT ??_C@_0BN@OLJEILMP@unknown?5vertical?5alignment?3?5@
CONST	SEGMENT
??_C@_0BN@OLJEILMP@unknown?5vertical?5alignment?3?5@ DB 'unknown vertical'
	DB	' alignment: ', 00H				; `string'
CONST	ENDS
;	COMDAT ??_C@_0BP@MEEICDCE@unknown?5horizontal?5alignment?3?5@
CONST	SEGMENT
??_C@_0BP@MEEICDCE@unknown?5horizontal?5alignment?3?5@ DB 'unknown horizo'
	DB	'ntal alignment: ', 00H			; `string'
CONST	ENDS
;	COMDAT ??_C@_0L@PFIBJIPN@?$CFs?5or?5font@
CONST	SEGMENT
??_C@_0L@PFIBJIPN@?$CFs?5or?5font@ DB '%s or font', 00H	; `string'
CONST	ENDS
;	COMDAT ??_C@_05MPFIAJAP@Arial@
CONST	SEGMENT
??_C@_05MPFIAJAP@Arial@ DB 'Arial', 00H			; `string'
CONST	ENDS
;	COMDAT ??_C@_08FNIIFOJC@tostring@
CONST	SEGMENT
??_C@_08FNIIFOJC@tostring@ DB 'tostring', 00H		; `string'
CONST	ENDS
;	COMDAT ??_C@_06DLEPGFEF@format@
CONST	SEGMENT
??_C@_06DLEPGFEF@format@ DB 'format', 00H		; `string'
CONST	ENDS
;	COMDAT ??_C@_06ICGJLFIM@string@
CONST	SEGMENT
??_C@_06ICGJLFIM@string@ DB 'string', 00H		; `string'
CONST	ENDS
;	COMDAT ??_C@_0BO@LLMELLC@failed?5to?5allocate?5font?5cache@
CONST	SEGMENT
??_C@_0BO@LLMELLC@failed?5to?5allocate?5font?5cache@ DB 'failed to alloca'
	DB	'te font cache', 00H				; `string'
CONST	ENDS
;	COMDAT ??_C@_0L@HDFPAPPH@__tostring@
CONST	SEGMENT
??_C@_0L@HDFPAPPH@__tostring@ DB '__tostring', 00H	; `string'
CONST	ENDS
;	COMDAT ??_C@_08FEJHICA@font?3?5?$CFs@
CONST	SEGMENT
??_C@_08FEJHICA@font?3?5?$CFs@ DB 'font: %s', 00H	; `string'
CONST	ENDS
;	COMDAT ??_C@_02DKCKIIND@?$CFs@
CONST	SEGMENT
??_C@_02DKCKIIND@?$CFs@ DB '%s', 00H			; `string'
CONST	ENDS
;	COMDAT ??_C@_0BA@EEPCJNBC@unknown?5layer?3?5@
CONST	SEGMENT
??_C@_0BA@EEPCJNBC@unknown?5layer?3?5@ DB 'unknown layer: ', 00H ; `string'
CONST	ENDS
;	COMDAT ??_C@_09FLCHFCFJ@POST_FADE@
CONST	SEGMENT
??_C@_09FLCHFCFJ@POST_FADE@ DB 'POST_FADE', 00H		; `string'
CONST	ENDS
;	COMDAT ??_C@_08JJMKLCIN@PRE_FADE@
CONST	SEGMENT
??_C@_08JJMKLCIN@PRE_FADE@ DB 'PRE_FADE', 00H		; `string'
CONST	ENDS
;	COMDAT ??_C@_0L@ILOABIJA@POST_WORLD@
CONST	SEGMENT
??_C@_0L@ILOABIJA@POST_WORLD@ DB 'POST_WORLD', 00H	; `string'
CONST	ENDS
;	COMDAT ??_C@_0BK@FGOEOOHP@an?5unknown?5error?5occurred@
CONST	SEGMENT
??_C@_0BK@FGOEOOHP@an?5unknown?5error?5occurred@ DB 'an unknown error occ'
	DB	'urred', 00H					; `string'
CONST	ENDS
;	COMDAT ??_C@_04HDOCAJNK@?$CFs?$CFs@
CONST	SEGMENT
??_C@_04HDOCAJNK@?$CFs?$CFs@ DB '%s%s', 00H		; `string'
CONST	ENDS
;	COMDAT ??_C@_0BB@ELFFKIAH@invalid?5renderer@
CONST	SEGMENT
??_C@_0BB@ELFFKIAH@invalid?5renderer@ DB 'invalid renderer', 00H ; `string'
CONST	ENDS
;	COMDAT ??_C@_01MHEDDDHA@v@
CONST	SEGMENT
??_C@_01MHEDDDHA@v@ DB 'v', 00H				; `string'
CONST	ENDS
;	COMDAT ??_C@_06BPGFKLEK@__mode@
CONST	SEGMENT
??_C@_06BPGFKLEK@__mode@ DB '__mode', 00H		; `string'
CONST	ENDS
;	COMDAT ??_C@_04BDLIKKMN@__gc@
CONST	SEGMENT
??_C@_04BDLIKKMN@__gc@ DB '__gc', 00H			; `string'
CONST	ENDS
;	COMDAT ??_C@_0L@LNMHOCME@dsl_render@
CONST	SEGMENT
??_C@_0L@LNMHOCME@dsl_render@ DB 'dsl_render', 00H	; `string'
CONST	ENDS
; Function compile flags: /Ogtpy
;	COMDAT _dslopen_render
_TEXT	SEGMENT
_dsl$1$ = -4						; size = 4
_lua$ = 8						; size = 4
_dslopen_render PROC					; COMDAT
; File C:\Program Files (x86)\Steam\steamapps\common\Bully Scholarship Edition\_derpy_script_loader\src\client\library\lib_render.c
; Line 1555
	push	ecx
	push	ebx
	push	ebp
	push	esi
; Line 1559
	mov	esi, DWORD PTR _lua$[esp+12]
	push	edi
	push	1
	push	esi
	call	_getDslState
	mov	edi, eax
; Line 67
	push	OFFSET ??_C@_0L@LNMHOCME@dsl_render@
	push	esi
; Line 1559
	mov	DWORD PTR _dsl$1$[esp+36], edi
; Line 67
	call	_lua_pushstring
; Line 68
	push	100					; 00000064H
	push	esi
	call	_lua_newuserdata
; Line 69
	push	100					; 00000064H
	mov	ebp, eax
	push	0
	push	ebp
	call	_memset
; Line 70
	mov	ecx, DWORD PTR [edi+12]
	mov	DWORD PTR [ebp], ecx
; Line 71
	lea	ecx, DWORD PTR [ebp+8]
; Line 73
	push	esi
	mov	DWORD PTR [ebp+32], ecx
	mov	DWORD PTR [ebp+40], -2			; fffffffeH
	call	_lua_newtable
; Line 74
	push	OFFSET ??_C@_04BDLIKKMN@__gc@
	push	esi
	call	_lua_pushstring
; Line 75
	push	0
	push	OFFSET _freeLuaRender
	push	esi
	call	_lua_pushcclosure
; Line 76
	push	-3					; fffffffdH
	push	esi
	call	_lua_rawset
	add	esp, 68					; 00000044H
; Line 77
	push	-2					; fffffffeH
	push	esi
	call	_lua_setmetatable
; Line 78
	push	-10000					; ffffd8f0H
	push	esi
	call	_lua_rawset
	add	esp, 16					; 00000010H
; Line 1559
	lea	edi, DWORD PTR [ebp+12]
	mov	ebx, 3
$LL7@dslopen_re:
; Line 80
	push	esi
	call	_lua_newtable
; Line 81
	push	-10000					; ffffd8f0H
	push	esi
	call	_luaL_ref
	add	esp, 12					; 0000000cH
	mov	DWORD PTR [edi], eax
	lea	edi, DWORD PTR [edi+8]
	sub	ebx, 1
	jne	SHORT $LL7@dslopen_re
; Line 83
	push	esi
	call	_lua_newtable
; Line 84
	push	esi
	call	_lua_newtable
; Line 85
	push	OFFSET ??_C@_06BPGFKLEK@__mode@
	push	esi
	call	_lua_pushstring
; Line 86
	push	OFFSET ??_C@_01MHEDDDHA@v@
	push	esi
	call	_lua_pushstring
; Line 87
	push	-3					; fffffffdH
	push	esi
	call	_lua_rawset
; Line 88
	push	-2					; fffffffeH
	push	esi
	call	_lua_setmetatable
; Line 89
	push	-10000					; ffffd8f0H
	push	esi
	call	_luaL_ref
; Line 1561
	mov	ebx, DWORD PTR _dsl$1$[esp+68]
	push	ebp
	push	OFFSET _updatingThread
; Line 89
	mov	DWORD PTR [ebp+44], eax
; Line 1561
	push	2
	push	DWORD PTR [ebx+20]
	call	_addScriptEventCallback
	add	esp, 64					; 00000040H
; Line 1562
	push	ebp
	push	OFFSET _updatedManager
	push	0
	push	DWORD PTR [ebx+20]
	call	_addScriptEventCallback
; Line 1564
	push	OFFSET ??_C@_0BF@BLHGBKME@GetDisplayResolution@
	push	esi
	call	_lua_pushstring
	push	0
	push	OFFSET _dsl_GetDisplayResolution
	push	esi
	call	_lua_pushcclosure
	push	-10001					; ffffd8efH
	push	esi
	call	_lua_settable
; Line 1565
	push	OFFSET ??_C@_0BG@CBCOHFCL@GetDisplayAspectRatio@
	push	esi
	call	_lua_pushstring
	push	0
	push	OFFSET _dsl_GetDisplayAspectRatio
	push	esi
	call	_lua_pushcclosure
	add	esp, 64					; 00000040H
	push	-10001					; ffffd8efH
	push	esi
	call	_lua_settable
; Line 1567
	push	OFFSET ??_C@_0N@FPKBLDOB@SetDrawLayer@
	push	esi
	call	_lua_pushstring
	push	0
	push	OFFSET _dsl_SetDrawLayer
	push	esi
	call	_lua_pushcclosure
	push	-10001					; ffffd8efH
	push	esi
	call	_lua_settable
; Line 1569
	push	OFFSET ??_C@_0O@DPFNOGDL@DrawRectangle@
	push	esi
	call	_lua_pushstring
	push	0
	push	OFFSET _dsl_DrawRectangle
	push	esi
	call	_lua_pushcclosure
	push	-10001					; ffffd8efH
	push	esi
	call	_lua_settable
	add	esp, 64					; 00000040H
; Line 1571
	push	OFFSET ??_C@_0O@PBBGAKJL@CreateTexture@
	push	esi
	call	_lua_pushstring
	push	0
	push	OFFSET _dsl_CreateTexture
	push	esi
	call	_lua_pushcclosure
	push	-10001					; ffffd8efH
	push	esi
	call	_lua_settable
; Line 1572
	push	OFFSET ??_C@_0M@ELDJLLNA@DrawTexture@
	push	esi
	call	_lua_pushstring
	push	0
	push	OFFSET _dsl_DrawTexture
	push	esi
	call	_lua_pushcclosure
	push	-10001					; ffffd8efH
	push	esi
	call	_lua_settable
; Line 1573
	push	OFFSET ??_C@_0N@GLOILPBO@DrawTexture2@
	push	esi
	call	_lua_pushstring
	add	esp, 64					; 00000040H
	push	0
	push	OFFSET _dsl_DrawTexture2
	push	esi
	call	_lua_pushcclosure
	push	-10001					; ffffd8efH
	push	esi
	call	_lua_settable
; Line 1574
	push	OFFSET ??_C@_0BB@HMGMMJGI@SetTextureBounds@
	push	esi
	call	_lua_pushstring
	push	0
	push	OFFSET _dsl_SetTextureBounds
	push	esi
	call	_lua_pushcclosure
	push	-10001					; ffffd8efH
	push	esi
	call	_lua_settable
; Line 1575
	push	OFFSET ??_C@_0BF@LIFBMJBG@GetTextureResolution@
	push	esi
	call	_lua_pushstring
	push	0
	push	OFFSET _dsl_GetTextureResolution
	push	esi
	call	_lua_pushcclosure
	add	esp, 68					; 00000044H
	push	-10001					; ffffd8efH
	push	esi
	call	_lua_settable
; Line 1576
	push	OFFSET ??_C@_0BG@EJFAOBAA@GetTextureAspectRatio@
	push	esi
	call	_lua_pushstring
	push	0
	push	OFFSET _dsl_GetTextureAspectRatio
	push	esi
	call	_lua_pushcclosure
	push	-10001					; ffffd8efH
	push	esi
	call	_lua_settable
; Line 1577
	push	OFFSET ??_C@_0BN@LBIHCDBK@GetTextureDisplayAspectRatio@
	push	esi
	call	_lua_pushstring
	push	0
	push	OFFSET _dsl_GetTextureDisplayAspectRatio
	push	esi
	call	_lua_pushcclosure
	push	-10001					; ffffd8efH
	push	esi
	call	_lua_settable
	add	esp, 64					; 00000040H
; Line 1579
	push	OFFSET ??_C@_0L@NOCJHKCD@CreateFont@
	push	esi
	call	_lua_pushstring
	push	0
	push	OFFSET _dsl_CreateFont
	push	esi
	call	_lua_pushcclosure
	push	-10001					; ffffd8efH
	push	esi
	call	_lua_settable
; Line 1580
	push	OFFSET ??_C@_08JPMBLOLP@DrawText@
	push	esi
	call	_lua_pushstring
	push	0
	push	OFFSET _dsl_DrawText
	push	esi
	call	_lua_pushcclosure
	push	-10001					; ffffd8efH
	push	esi
	call	_lua_settable
; Line 1581
	push	OFFSET ??_C@_0M@OLMKAOJF@MeasureText@
	push	esi
	call	_lua_pushstring
	add	esp, 64					; 00000040H
	push	0
	push	OFFSET _dsl_MeasureText
	push	esi
	call	_lua_pushcclosure
	push	-10001					; ffffd8efH
	push	esi
	call	_lua_settable
; Line 1582
	push	OFFSET ??_C@_0M@MAEPFJBD@DiscardText@
	push	esi
	call	_lua_pushstring
	push	0
	push	OFFSET _dsl_DiscardText
	push	esi
	call	_lua_pushcclosure
	push	-10001					; ffffd8efH
	push	esi
	call	_lua_settable
; Line 1583
	push	OFFSET ??_C@_0BA@MJEFIMFG@SetTextPosition@
	push	esi
	call	_lua_pushstring
	push	0
	push	OFFSET _dsl_SetTextPosition
	push	esi
	call	_lua_pushcclosure
	add	esp, 68					; 00000044H
	push	-10001					; ffffd8efH
	push	esi
	call	_lua_settable
; Line 1584
	push	OFFSET ??_C@_0O@MNOPHNJG@SetTextHeight@
	push	esi
	call	_lua_pushstring
	push	0
	push	OFFSET _dsl_SetTextHeight
	push	esi
	call	_lua_pushcclosure
	push	-10001					; ffffd8efH
	push	esi
	call	_lua_settable
; Line 1585
	push	OFFSET ??_C@_0N@PFANAOGL@SetTextScale@
	push	esi
	call	_lua_pushstring
	push	0
	push	OFFSET _dsl_SetTextScale
	push	esi
	call	_lua_pushcclosure
	push	-10001					; ffffd8efH
	push	esi
	call	_lua_settable
	add	esp, 64					; 00000040H
; Line 1586
	push	OFFSET ??_C@_0M@FEIDNBKO@SetTextFont@
	push	esi
	call	_lua_pushstring
	push	0
	push	OFFSET _dsl_SetTextFont
	push	esi
	call	_lua_pushcclosure
	push	-10001					; ffffd8efH
	push	esi
	call	_lua_settable
; Line 1587
	push	OFFSET ??_C@_0N@BDFGCEOP@SetTextAlign@
	push	esi
	call	_lua_pushstring
	push	0
	push	OFFSET _dsl_SetTextAlign
	push	esi
	call	_lua_pushcclosure
	push	-10001					; ffffd8efH
	push	esi
	call	_lua_settable
; Line 1588
	push	OFFSET ??_C@_0N@MGIEADOD@SetTextColor@
	push	esi
	call	_lua_pushstring
	add	esp, 64					; 00000040H
	push	0
	push	OFFSET _dsl_SetTextColor
	push	esi
	call	_lua_pushcclosure
	push	-10001					; ffffd8efH
	push	esi
	call	_lua_settable
; Line 1589
	push	OFFSET ??_C@_0O@CBIDDKDA@SetTextColour@
	push	esi
	call	_lua_pushstring
	push	0
	push	OFFSET _dsl_SetTextColor
	push	esi
	call	_lua_pushcclosure
	push	-10001					; ffffd8efH
	push	esi
	call	_lua_settable
; Line 1590
	push	OFFSET ??_C@_0O@BIAPAHBF@SetTextShadow@
	push	esi
	call	_lua_pushstring
	push	0
	push	OFFSET _dsl_SetTextShadow
	push	esi
	call	_lua_pushcclosure
	add	esp, 68					; 00000044H
	push	-10001					; ffffd8efH
	push	esi
	call	_lua_settable
; Line 1591
	push	OFFSET ??_C@_0P@NKFLCKO@SetTextOutline@
	push	esi
	call	_lua_pushstring
	push	0
	push	OFFSET _dsl_SetTextOutline
	push	esi
	call	_lua_pushcclosure
	push	-10001					; ffffd8efH
	push	esi
	call	_lua_settable
; Line 1592
	push	OFFSET ??_C@_0M@OIEFLBFB@SetTextBold@
	push	esi
	call	_lua_pushstring
	push	0
	push	OFFSET _dsl_SetTextBold
	push	esi
	call	_lua_pushcclosure
	push	-10001					; ffffd8efH
	push	esi
	call	_lua_settable
	add	esp, 64					; 00000040H
; Line 1593
	push	OFFSET ??_C@_0N@CKAICCDH@SetTextBlack@
	push	esi
	call	_lua_pushstring
	push	0
	push	OFFSET _dsl_SetTextBlack
	push	esi
	call	_lua_pushcclosure
	push	-10001					; ffffd8efH
	push	esi
	call	_lua_settable
; Line 1594
	push	OFFSET ??_C@_0O@EACCIFHN@SetTextItalic@
	push	esi
	call	_lua_pushstring
	push	0
	push	OFFSET _dsl_SetTextItalic
	push	esi
	call	_lua_pushcclosure
	push	-10001					; ffffd8efH
	push	esi
	call	_lua_settable
; Line 1595
	push	OFFSET ??_C@_0BA@BAHABCGM@SetTextClipping@
	push	esi
	call	_lua_pushstring
	add	esp, 64					; 00000040H
	push	0
	push	OFFSET _dsl_SetTextClipping
	push	esi
	call	_lua_pushcclosure
	push	-10001					; ffffd8efH
	push	esi
	call	_lua_settable
; Line 1596
	push	OFFSET ??_C@_0BA@LLICGMGP@SetTextWrapping@
	push	esi
	call	_lua_pushstring
	push	0
	push	OFFSET _dsl_SetTextWrapping
	push	esi
	call	_lua_pushcclosure
	push	-10001					; ffffd8efH
	push	esi
	call	_lua_settable
; Line 1597
	push	OFFSET ??_C@_0BB@IDKBADJP@SetTextRedrawing@
	push	esi
	call	_lua_pushstring
	push	0
	push	OFFSET _dsl_SetTextRedrawing
	push	esi
	call	_lua_pushcclosure
	add	esp, 68					; 00000044H
	push	-10001					; ffffd8efH
	push	esi
	call	_lua_settable
; Line 1599
	push	OFFSET ??_C@_0BC@JACKEEPP@GetTextFormatting@
	push	esi
	call	_lua_pushstring
	push	0
	push	OFFSET _dsl_GetTextFormatting
	push	esi
	call	_lua_pushcclosure
	push	-10001					; ffffd8efH
	push	esi
	call	_lua_settable
; Line 1600
	push	OFFSET ??_C@_0BC@LJLKIBFN@PopTextFormatting@
	push	esi
	call	_lua_pushstring
	push	0
	push	OFFSET _dsl_PopTextFormatting
	push	esi
	call	_lua_pushcclosure
	push	-10001					; ffffd8efH
	push	esi
	call	_lua_settable
	add	esp, 64					; 00000040H
; Line 1601
	push	OFFSET ??_C@_0BC@LFCBMPOB@SetTextFormatting@
	push	esi
	call	_lua_pushstring
	push	0
	push	OFFSET _dsl_SetTextFormatting
	push	esi
	call	_lua_pushcclosure
	push	-10001					; ffffd8efH
	push	esi
	call	_lua_settable
; Line 1603
	push	OFFSET ??_C@_0P@NPJHGEPG@DrawTextInline@
	push	esi
	call	_lua_pushstring
	push	0
	push	OFFSET _dsl_DrawTextInline
	push	esi
	call	_lua_pushcclosure
	push	-10001					; ffffd8efH
	push	esi
	call	_lua_settable
; Line 1604
	push	OFFSET ??_C@_0BC@ONJOANDP@MeasureTextInline@
	push	esi
	call	_lua_pushstring
	add	esp, 64					; 00000040H
	push	0
	push	OFFSET _dsl_MeasureTextInline
	push	esi
	call	_lua_pushcclosure
	push	-10001					; ffffd8efH
	push	esi
	call	_lua_settable
; Line 1606
	push	OFFSET ??_C@_0N@BNOCKKGE@ClearDisplay@
	push	esi
	call	_lua_pushstring
	push	0
	push	OFFSET _dsl_ClearDisplay
	push	esi
	call	_lua_pushcclosure
	push	-10001					; ffffd8efH
	push	esi
	call	_lua_settable
; Line 1607
	push	OFFSET ??_C@_0BD@FMLPFAKC@CreateRenderTarget@
	push	esi
	call	_lua_pushstring
	push	0
	push	OFFSET _dsl_CreateRenderTarget
	push	esi
	call	_lua_pushcclosure
	add	esp, 68					; 00000044H
	push	-10001					; ffffd8efH
	push	esi
	call	_lua_settable
; Line 1608
	push	OFFSET ??_C@_0BJ@ELGOBEEN@DrawBackBufferOntoTarget@
	push	esi
	call	_lua_pushstring
	push	0
	push	OFFSET _dsl_DrawBackBufferOntoTarget
	push	esi
	call	_lua_pushcclosure
	push	-10001					; ffffd8efH
	push	esi
	call	_lua_settable
; Line 1610
	push	OFFSET ??_C@_0BJ@NJPBJEMD@SetRendererAlphaBlending@
	push	esi
	call	_lua_pushstring
	push	0
	push	OFFSET _dsl_SetRendererAlphaBlending
	push	esi
	call	_lua_pushcclosure
	push	-10001					; ffffd8efH
	push	esi
	call	_lua_settable
	add	esp, 64					; 00000040H
; Line 1612
	test	BYTE PTR [ebx+340], 4
	je	SHORT $LN13@dslopen_re
; Line 1613
	push	OFFSET ??_C@_0BA@OAOAJMJB@DrawDebugMemory@
	push	esi
	call	_lua_pushstring
	push	0
	push	OFFSET _dsl_DrawDebugMemory
	push	esi
	call	_lua_pushcclosure
	push	-10001					; ffffd8efH
	push	esi
	call	_lua_settable
; Line 1614
	push	OFFSET ??_C@_0BC@GGCINGEE@GetTextCacheDebug@
	push	esi
	call	_lua_pushstring
	push	0
	push	OFFSET _dsl_GetTextCacheDebug
	push	esi
	call	_lua_pushcclosure
	push	-10001					; ffffd8efH
	push	esi
	call	_lua_settable
	add	esp, 56					; 00000038H
$LN13@dslopen_re:
; Line 1617
	pop	edi
	pop	esi
	pop	ebp
	xor	eax, eax
	pop	ebx
	pop	ecx
	ret	0
_dslopen_render ENDP
_TEXT	ENDS
; Function compile flags: /Ogtpy
;	COMDAT _updatedManager
_TEXT	SEGMENT
_lua$ = 8						; size = 4
_lr$ = 12						; size = 4
_type$ = 16						; size = 4
_updatedManager PROC					; COMDAT
; File C:\Program Files (x86)\Steam\steamapps\common\Bully Scholarship Edition\_derpy_script_loader\src\client\library\lib_render.c
; Line 1547
	mov	eax, DWORD PTR _type$[esp-4]
	cmp	eax, 5
	jne	SHORT $LN2@updatedMan
; Line 1548
	mov	ecx, DWORD PTR _lr$[esp-4]
	lea	eax, DWORD PTR [ecx+8]
; Line 1554
	push	eax
	push	ecx
	push	DWORD PTR _lua$[esp+4]
	call	_runCacheCalls
	add	esp, 12					; 0000000cH
	xor	eax, eax
	ret	0
$LN2@updatedMan:
; Line 1549
	cmp	eax, 4
	jne	SHORT $LN4@updatedMan
; Line 1550
	mov	ecx, DWORD PTR _lr$[esp-4]
	lea	eax, DWORD PTR [ecx+16]
; Line 1554
	push	eax
	push	ecx
	push	DWORD PTR _lua$[esp+4]
	call	_runCacheCalls
	add	esp, 12					; 0000000cH
	xor	eax, eax
	ret	0
$LN4@updatedMan:
; Line 1551
	cmp	eax, 3
	jne	SHORT $LN8@updatedMan
; Line 1552
	mov	ecx, DWORD PTR _lr$[esp-4]
	lea	eax, DWORD PTR [ecx+24]
; Line 1554
	push	eax
	push	ecx
	push	DWORD PTR _lua$[esp+4]
	call	_runCacheCalls
	add	esp, 12					; 0000000cH
$LN8@updatedMan:
	xor	eax, eax
	ret	0
_updatedManager ENDP
_TEXT	ENDS
; Function compile flags: /Ogtpy
;	COMDAT _updatingThread
_TEXT	SEGMENT
_lua$ = 8						; size = 4
_lr$ = 12						; size = 4
_t$ = 16						; size = 4
_updatingThread PROC					; COMDAT
; File C:\Program Files (x86)\Steam\steamapps\common\Bully Scholarship Edition\_derpy_script_loader\src\client\library\lib_render.c
; Line 1541
	push	esi
; Line 1542
	mov	esi, DWORD PTR _lr$[esp]
	lea	eax, DWORD PTR [esi+8]
	mov	DWORD PTR [esi+32], eax
; Line 495
	mov	eax, DWORD PTR [esi+40]
	cmp	eax, -2					; fffffffeH
	je	SHORT $LN6@updatingTh
; Line 496
	push	eax
	push	-10000					; ffffd8f0H
	push	DWORD PTR _lua$[esp+8]
	call	_luaL_unref
	add	esp, 12					; 0000000cH
; Line 497
	mov	DWORD PTR [esi+40], -2			; fffffffeH
$LN6@updatingTh:
; Line 1545
	xor	eax, eax
	mov	DWORD PTR [esi+48], eax
	pop	esi
	ret	0
_updatingThread ENDP
_TEXT	ENDS
; Function compile flags: /Ogtpy
;	COMDAT _dsl_GetTextCacheDebug
_TEXT	SEGMENT
_created$ = -4						; size = 4
_lua$ = 8						; size = 4
_dsl_GetTextCacheDebug PROC				; COMDAT
; File C:\Program Files (x86)\Steam\steamapps\common\Bully Scholarship Edition\_derpy_script_loader\src\client\library\lib_render.c
; Line 1532
	push	ecx
	push	esi
; Line 95
	mov	esi, DWORD PTR _lua$[esp+4]
; Line 1532
	push	edi
; Line 95
	push	OFFSET ??_C@_0L@LNMHOCME@dsl_render@
	push	esi
	call	_lua_pushstring
; Line 96
	push	-10000					; ffffd8f0H
	push	esi
	call	_lua_rawget
; Line 97
	push	-1
	push	esi
	call	_lua_touserdata
	mov	edi, eax
	add	esp, 24					; 00000018H
; Line 98
	cmp	DWORD PTR [edi], 0
	jne	SHORT $LN4@dsl_GetTex
; Line 99
	push	OFFSET ??_C@_0BB@ELFFKIAH@invalid?5renderer@
	push	esi
	call	_luaL_error
	add	esp, 8
$LN4@dsl_GetTex:
; Line 100
	push	-2					; fffffffeH
	push	esi
	call	_lua_settop
; Line 1535
	lea	eax, DWORD PTR _created$[esp+20]
	push	eax
	push	DWORD PTR [edi]
	call	_getRenderStringCacheCount
	add	esp, 12					; 0000000cH
	movd	xmm0, eax
	cvtdq2pd xmm0, xmm0
	shr	eax, 31					; 0000001fH
	addsd	xmm0, QWORD PTR __xmm@41f00000000000000000000000000000[eax*8]
	cvtpd2ps xmm0, xmm0
	movss	DWORD PTR [esp], xmm0
	push	esi
	call	_lua_pushnumber
	movd	xmm0, DWORD PTR _created$[esp+20]
; Line 1536
	add	esp, 4
	cvtdq2ps xmm0, xmm0
	movss	DWORD PTR [esp], xmm0
	push	esi
	call	_lua_pushnumber
	add	esp, 8
; Line 1537
	mov	eax, 2
	pop	edi
	pop	esi
; Line 1538
	pop	ecx
	ret	0
_dsl_GetTextCacheDebug ENDP
_TEXT	ENDS
; Function compile flags: /Ogtpy
;	COMDAT _dsl_DrawDebugMemory
_TEXT	SEGMENT
tv695 = -92						; size = 4
tv686 = -92						; size = 4
_offset$1$ = -92					; size = 4
tv612 = -88						; size = 4
_bytes$1$ = -88						; size = 4
_w$ = -84						; size = 4
_font$1$ = -80						; size = 4
_address$1$ = -80					; size = 4
tv611 = -76						; size = 4
tv609 = -76						; size = 4
_h$ = -72						; size = 4
_args$ = -68						; size = 48
_buffer$ = -20						; size = 16
__$ArrayPad$ = -4					; size = 4
_lua$ = 8						; size = 4
_dsl_DrawDebugMemory PROC				; COMDAT
; File C:\Program Files (x86)\Steam\steamapps\common\Bully Scholarship Edition\_derpy_script_loader\src\client\library\lib_render.c
; Line 1471
	sub	esp, 92					; 0000005cH
	mov	eax, DWORD PTR ___security_cookie
	xor	eax, esp
	mov	DWORD PTR __$ArrayPad$[esp+92], eax
	push	ebx
	push	ebp
	push	esi
	mov	esi, DWORD PTR _lua$[esp+100]
	push	edi
; Line 1482
	push	1
	push	esi
	call	_lua_touserdata
	add	esp, 8
	test	eax, eax
	je	SHORT $LN11@dsl_DrawDe
	mov	eax, DWORD PTR [eax]
	test	eax, eax
	je	SHORT $LN11@dsl_DrawDe
; Line 1483
	lea	edi, DWORD PTR [eax+28]
; Line 1484
	mov	DWORD PTR _bytes$1$[esp+108], 11020	; 00002b0cH
; Line 1485
	push	2
	push	esi
	mov	DWORD PTR _address$1$[esp+116], edi
	call	_luaL_checknumber
	fstp	DWORD PTR tv695[esp+116]
	cvttss2si ebp, DWORD PTR tv695[esp+116]
	add	esp, 8
; Line 1486
	jmp	SHORT $LN52@dsl_DrawDe
$LN11@dsl_DrawDe:
; Line 1487
	push	0
	push	0
	push	0
	push	1
	push	esi
	call	_luaL_checklstring
	add	esp, 12					; 0000000cH
	push	eax
	call	_strtoul
	add	esp, 12					; 0000000cH
	mov	DWORD PTR _address$1$[esp+108], eax
; Line 1488
	push	0
	push	0
	push	0
	push	2
	push	esi
	call	_luaL_checklstring
	add	esp, 12					; 0000000cH
	push	eax
	call	_strtol
; Line 1489
	push	3
	push	esi
	mov	DWORD PTR _bytes$1$[esp+128], eax
	call	_luaL_checknumber
	fstp	DWORD PTR tv686[esp+128]
	cvttss2si ebp, DWORD PTR tv686[esp+128]
	add	esp, 20					; 00000014H
$LN52@dsl_DrawDe:
; Line 95
	push	OFFSET ??_C@_0L@LNMHOCME@dsl_render@
	push	esi
	mov	DWORD PTR _offset$1$[esp+116], ebp
	call	_lua_pushstring
; Line 96
	push	-10000					; ffffd8f0H
	push	esi
	call	_lua_rawget
; Line 97
	push	-1
	push	esi
	call	_lua_touserdata
	mov	ebx, eax
	add	esp, 24					; 00000018H
; Line 98
	cmp	DWORD PTR [ebx], 0
	jne	SHORT $LN23@dsl_DrawDe
; Line 99
	push	OFFSET ??_C@_0BB@ELFFKIAH@invalid?5renderer@
	push	esi
	call	_luaL_error
	add	esp, 8
$LN23@dsl_DrawDe:
; Line 100
	push	-2					; fffffffeH
	push	esi
	call	_lua_settop
; Line 177
	mov	edi, DWORD PTR [ebx]
	push	edi
	call	_isRenderActive
	add	esp, 12					; 0000000cH
	test	eax, eax
	jne	SHORT $LN25@dsl_DrawDe
; Line 179
	push	DWORD PTR [ebx+32]
	push	esi
	call	_addCacheCall
	add	esp, 8
; Line 1531
	xor	eax, eax
	pop	edi
	pop	esi
	pop	ebp
	pop	ebx
	mov	ecx, DWORD PTR __$ArrayPad$[esp+92]
	xor	ecx, esp
	call	@__security_check_cookie@4
	add	esp, 92					; 0000005cH
	ret	0
$LN25@dsl_DrawDe:
; Line 1492
	test	edi, edi
	je	$LN45@dsl_DrawDe
; Line 1498
	mov	eax, DWORD PTR _bytes$1$[esp+108]
	xorps	xmm0, xmm0
	sub	eax, ebp
	movlpd	QWORD PTR _args$[esp+116], xmm0
	test	ebp, ebp
	mov	DWORD PTR _args$[esp+124], 0
; Line 95
	push	OFFSET ??_C@_0L@LNMHOCME@dsl_render@
; Line 1498
	cmove	eax, DWORD PTR _bytes$1$[esp+112]
	mov	DWORD PTR tv612[esp+112], eax
	mov	eax, DWORD PTR _address$1$[esp+112]
; Line 95
	push	esi
; Line 1498
	movlpd	QWORD PTR _args$[esp+140], xmm0
	movlpd	QWORD PTR _args$[esp+152], xmm0
	lea	ecx, DWORD PTR [eax+ebp]
	mov	DWORD PTR _args$[esp+160], 0
	cmove	ecx, eax
; Line 1500
	mov	DWORD PTR _args$[esp+148], -1
	lea	eax, DWORD PTR _buffer$[esp+116]
	mov	DWORD PTR tv611[esp+116], ecx
	mov	DWORD PTR _args$[esp+120], eax
; Line 1501
	mov	DWORD PTR _args$[esp+136], 1008981770	; 3c23d70aH
; Line 1502
	mov	DWORD PTR _args$[esp+116], 16384	; 00004000H
; Line 95
	call	_lua_pushstring
; Line 96
	push	-10000					; ffffd8f0H
	push	esi
	call	_lua_rawget
; Line 97
	push	-1
	push	esi
	call	_lua_touserdata
	mov	ebx, eax
	add	esp, 24					; 00000018H
; Line 98
	cmp	DWORD PTR [ebx], 0
	jne	SHORT $LN29@dsl_DrawDe
; Line 99
	push	OFFSET ??_C@_0BB@ELFFKIAH@invalid?5renderer@
	push	esi
	call	_luaL_error
	add	esp, 8
$LN29@dsl_DrawDe:
; Line 100
	push	-2					; fffffffeH
	push	esi
	call	_lua_settop
; Line 1503
	push	OFFSET ??_C@_0P@PPJHFMDD@Lucida?5Console@
	push	ebx
	push	esi
	call	_getLuaCacheFont
; Line 1507
	lea	ecx, DWORD PTR _h$[esp+128]
	mov	DWORD PTR _font$1$[esp+128], eax
	push	ecx
	lea	ecx, DWORD PTR _w$[esp+132]
	mov	WORD PTR _buffer$[esp+132], 12336	; 00003030H
	push	ecx
	lea	ecx, DWORD PTR _args$[esp+136]
	mov	BYTE PTR _buffer$[esp+138], 0
	push	ecx
	push	eax
	push	edi
	call	_drawRenderString
	add	esp, 40					; 00000028H
	test	eax, eax
	jne	SHORT $LN15@dsl_DrawDe
; Line 1508
	push	edi
	call	_getRenderErrorString
	push	eax
	push	OFFSET ??_C@_02DKCKIIND@?$CFs@
	push	esi
	call	_luaL_error
	add	esp, 16					; 00000010H
$LN15@dsl_DrawDe:
; Line 1509
	movss	xmm1, DWORD PTR _w$[esp+108]
	xor	ebx, ebx
	addss	xmm1, DWORD PTR __real@3b83126f
	mov	ebp, -15720432				; ff102010H
	movss	DWORD PTR _w$[esp+108], xmm1
$LL4@dsl_DrawDe:
; Line 1511
	test	bl, 1
	mov	eax, -16773120				; ff001000H
	cmovne	eax, ebp
	push	eax
	mov	eax, ebx
	sub	esp, 16					; 00000010H
	and	eax, 15					; 0000000fH
	mov	DWORD PTR [esp+12], 1065353216		; 3f800000H
	movd	xmm0, eax
	cvtdq2ps xmm0, xmm0
	movss	DWORD PTR [esp+8], xmm1
	mulss	xmm0, xmm1
	mov	DWORD PTR [esp+4], 0
	movss	DWORD PTR [esp], xmm0
	push	edi
	call	_drawRenderRectangle
	add	esp, 24					; 00000018H
	test	eax, eax
	jne	SHORT $LN2@dsl_DrawDe
; Line 1512
	push	edi
	call	_getRenderErrorString
	push	eax
	push	OFFSET ??_C@_02DKCKIIND@?$CFs@
	push	esi
	call	_luaL_error
	add	esp, 16					; 00000010H
$LN2@dsl_DrawDe:
; Line 1510
	inc	ebx
	cmp	ebx, 16					; 00000010H
	jge	SHORT $LN51@dsl_DrawDe
	movss	xmm1, DWORD PTR _w$[esp+108]
	jmp	SHORT $LL4@dsl_DrawDe
$LN51@dsl_DrawDe:
; Line 1513
	and	DWORD PTR _args$[esp+108], -16385	; ffffbfffH
	xor	ebx, ebx
; Line 1514
	mov	eax, DWORD PTR tv612[esp+108]
	mov	ecx, -12517568				; ff40ff40H
	movss	xmm1, DWORD PTR __real@3b03126f
	mov	ebp, DWORD PTR _offset$1$[esp+108]
	test	eax, eax
	jle	$LN6@dsl_DrawDe
	mov	ebp, eax
$LL7@dsl_DrawDe:
; Line 1515
	mov	eax, ebx
; Line 1517
	mov	ecx, DWORD PTR tv611[esp+108]
	and	eax, 15					; 0000000fH
	mov	edx, -12517568				; ff40ff40H
	movd	xmm0, eax
	mov	eax, ebx
	cvtdq2ps xmm0, xmm0
	shr	eax, 4
	mulss	xmm0, DWORD PTR _w$[esp+108]
	addss	xmm0, xmm1
	movss	DWORD PTR _args$[esp+120], xmm0
	movd	xmm0, eax
	mov	eax, -12550080				; ff408040H
	cvtdq2ps xmm0, xmm0
	mulss	xmm0, DWORD PTR _h$[esp+108]
	movss	DWORD PTR _args$[esp+124], xmm0
	cmp	BYTE PTR [ecx+ebx], 0
	cmovne	eax, edx
	mov	DWORD PTR _args$[esp+140], eax
; Line 1518
	movzx	eax, BYTE PTR [ecx+ebx]
	push	eax
	lea	eax, DWORD PTR _buffer$[esp+112]
	push	OFFSET ??_C@_04CFJMJGDJ@?$CF?42X@
	push	eax
	call	_sprintf
; Line 1519
	push	0
	push	0
	lea	eax, DWORD PTR _args$[esp+128]
	push	eax
	push	DWORD PTR _font$1$[esp+132]
	push	edi
	call	_drawRenderString
	add	esp, 32					; 00000020H
	test	eax, eax
	jne	SHORT $LN5@dsl_DrawDe
; Line 1520
	push	edi
	call	_getRenderErrorString
	push	eax
	push	OFFSET ??_C@_02DKCKIIND@?$CFs@
	push	esi
	call	_luaL_error
	add	esp, 16					; 00000010H
$LN5@dsl_DrawDe:
; Line 1514
	movss	xmm1, DWORD PTR __real@3b03126f
	inc	ebx
	cmp	ebx, ebp
	jl	$LL7@dsl_DrawDe
	mov	ebp, DWORD PTR _offset$1$[esp+108]
	mov	ecx, -12517568				; ff40ff40H
	mov	eax, DWORD PTR tv612[esp+108]
$LN6@dsl_DrawDe:
; Line 1522
	dec	eax
	xor	ebx, ebx
	cdq
	and	edx, 15					; 0000000fH
	add	eax, edx
	sar	eax, 4
	mov	DWORD PTR tv609[esp+108], eax
	test	eax, eax
	js	$LN45@dsl_DrawDe
	mov	edx, -12544448				; ff409640H
$LL10@dsl_DrawDe:
; Line 1523
	movss	xmm0, DWORD PTR _w$[esp+108]
; Line 1525
	test	bl, 1
	mulss	xmm0, DWORD PTR __real@41800000
	mov	eax, ecx
	cmovne	eax, edx
; Line 1526
	push	ebp
	mov	DWORD PTR _args$[esp+144], eax
	lea	eax, DWORD PTR _buffer$[esp+112]
	addss	xmm0, xmm1
	push	OFFSET ??_C@_05GABIMIAL@?$CL0x?$CFX@
	push	eax
	movss	DWORD PTR _args$[esp+132], xmm0
	movd	xmm0, ebx
	cvtdq2ps xmm0, xmm0
	mulss	xmm0, DWORD PTR _h$[esp+120]
	movss	DWORD PTR _args$[esp+136], xmm0
	call	_sprintf
; Line 1527
	push	0
	push	0
	lea	eax, DWORD PTR _args$[esp+128]
	push	eax
	push	DWORD PTR _font$1$[esp+132]
	push	edi
	call	_drawRenderString
	add	esp, 32					; 00000020H
	test	eax, eax
	jne	SHORT $LN8@dsl_DrawDe
; Line 1528
	push	edi
	call	_getRenderErrorString
	push	eax
	push	OFFSET ??_C@_02DKCKIIND@?$CFs@
	push	esi
	call	_luaL_error
	add	esp, 16					; 00000010H
$LN8@dsl_DrawDe:
; Line 1522
	movss	xmm1, DWORD PTR __real@3b03126f
	inc	ebx
	add	ebp, 16					; 00000010H
	mov	ecx, -12517568				; ff40ff40H
	mov	edx, -12544448				; ff409640H
	cmp	ebx, DWORD PTR tv609[esp+108]
	jle	$LL10@dsl_DrawDe
$LN45@dsl_DrawDe:
; Line 1531
	mov	ecx, DWORD PTR __$ArrayPad$[esp+108]
	xor	eax, eax
	pop	edi
	pop	esi
	pop	ebp
	pop	ebx
	xor	ecx, esp
	call	@__security_check_cookie@4
	add	esp, 92					; 0000005cH
	ret	0
_dsl_DrawDebugMemory ENDP
_TEXT	ENDS
; Function compile flags: /Ogtpy
;	COMDAT _dsl_SetRendererAlphaBlending
_TEXT	SEGMENT
_lua$ = 8						; size = 4
_dsl_SetRendererAlphaBlending PROC			; COMDAT
; File C:\Program Files (x86)\Steam\steamapps\common\Bully Scholarship Edition\_derpy_script_loader\src\client\library\lib_render.c
; Line 1463
	push	ebx
	push	esi
	push	edi
; Line 1464
	mov	edi, DWORD PTR _lua$[esp+8]
	push	1
	push	1
	push	edi
	call	_luaL_checktype
; Line 95
	push	OFFSET ??_C@_0L@LNMHOCME@dsl_render@
	push	edi
	call	_lua_pushstring
; Line 96
	push	-10000					; ffffd8f0H
	push	edi
	call	_lua_rawget
; Line 97
	push	-1
	push	edi
	call	_lua_touserdata
	mov	ebx, eax
	add	esp, 36					; 00000024H
; Line 98
	cmp	DWORD PTR [ebx], 0
	jne	SHORT $LN5@dsl_SetRen
; Line 99
	push	OFFSET ??_C@_0BB@ELFFKIAH@invalid?5renderer@
	push	edi
	call	_luaL_error
	add	esp, 8
$LN5@dsl_SetRen:
; Line 100
	push	-2					; fffffffeH
	push	edi
	call	_lua_settop
; Line 95
	push	OFFSET ??_C@_0L@LNMHOCME@dsl_render@
	push	edi
	call	_lua_pushstring
; Line 96
	push	-10000					; ffffd8f0H
	push	edi
	call	_lua_rawget
; Line 97
	push	-1
	push	edi
	call	_lua_touserdata
	mov	esi, eax
	add	esp, 32					; 00000020H
; Line 98
	cmp	DWORD PTR [esi], 0
	jne	SHORT $LN8@dsl_SetRen
; Line 99
	push	OFFSET ??_C@_0BB@ELFFKIAH@invalid?5renderer@
	push	edi
	call	_luaL_error
	add	esp, 8
$LN8@dsl_SetRen:
; Line 100
	push	-2					; fffffffeH
	push	edi
	call	_lua_settop
; Line 1465
	mov	eax, DWORD PTR [esi]
	push	1
	push	edi
	mov	eax, DWORD PTR [eax]
	mov	esi, DWORD PTR [eax]
	call	_lua_toboolean
	add	esp, 16					; 00000010H
	push	eax
	mov	eax, DWORD PTR [ebx]
	push	27					; 0000001bH
	push	DWORD PTR [eax]
	mov	eax, DWORD PTR [esi+228]
	call	eax
	test	eax, eax
	je	SHORT $LN10@dsl_SetRen
; Line 1466
	push	OFFSET ??_C@_0BN@HBEDCOBA@failed?5to?5set?5renderer?5state@
	push	edi
	call	_luaL_error
	add	esp, 8
$LN10@dsl_SetRen:
; Line 1468
	pop	edi
	pop	esi
	xor	eax, eax
	pop	ebx
	ret	0
_dsl_SetRendererAlphaBlending ENDP
_TEXT	ENDS
; Function compile flags: /Ogtpy
;	COMDAT _dsl_DrawBackBufferOntoTarget
_TEXT	SEGMENT
_lua$ = 8						; size = 4
_dsl_DrawBackBufferOntoTarget PROC			; COMDAT
; File C:\Program Files (x86)\Steam\steamapps\common\Bully Scholarship Edition\_derpy_script_loader\src\client\library\lib_render.c
; Line 1436
	push	esi
	push	edi
; Line 1439
	mov	edi, DWORD PTR _lua$[esp+4]
	push	1
	push	edi
	call	_lua_touserdata
	mov	esi, eax
	add	esp, 8
; Line 1440
	test	esi, esi
	jne	SHORT $LN2@dsl_DrawBa
; Line 1441
	push	OFFSET ??_C@_07JDHEGGGP@texture@
	push	1
	push	edi
	call	_luaL_typerror
	add	esp, 12					; 0000000cH
$LN2@dsl_DrawBa:
; Line 1442
	push	DWORD PTR [esi+4]
	push	DWORD PTR [esi]
	call	_fillRenderTextureBackBuffer
	add	esp, 8
	test	eax, eax
	jne	SHORT $LN5@dsl_DrawBa
; Line 1443
	push	DWORD PTR [esi]
	call	_getRenderErrorString
	push	eax
	push	edi
	call	_luaL_error
	add	esp, 12					; 0000000cH
$LN5@dsl_DrawBa:
; Line 1445
	pop	edi
	xor	eax, eax
	pop	esi
	ret	0
_dsl_DrawBackBufferOntoTarget ENDP
_TEXT	ENDS
; Function compile flags: /Ogtpy
;	COMDAT _dsl_CreateRenderTarget
_TEXT	SEGMENT
_lua$ = 8						; size = 4
_dsl_CreateRenderTarget PROC				; COMDAT
; File C:\Program Files (x86)\Steam\steamapps\common\Bully Scholarship Edition\_derpy_script_loader\src\client\library\lib_render.c
; Line 1430
	push	esi
; Line 1431
	mov	esi, DWORD PTR _lua$[esp]
	push	edi
	push	3
	push	1
	push	esi
	call	_luaL_checktype
; Line 1432
	push	3
	push	2
	push	esi
	call	_luaL_checktype
; Line 95
	push	OFFSET ??_C@_0L@LNMHOCME@dsl_render@
	push	esi
	call	_lua_pushstring
; Line 96
	push	-10000					; ffffd8f0H
	push	esi
	call	_lua_rawget
; Line 97
	push	-1
	push	esi
	call	_lua_touserdata
	mov	edi, eax
	add	esp, 48					; 00000030H
; Line 98
	cmp	DWORD PTR [edi], 0
	jne	SHORT $LN4@dsl_Create
; Line 99
	push	OFFSET ??_C@_0BB@ELFFKIAH@invalid?5renderer@
	push	esi
	call	_luaL_error
	add	esp, 8
$LN4@dsl_Create:
; Line 100
	push	-2					; fffffffeH
	push	esi
	call	_lua_settop
; Line 1433
	push	2
	push	esi
	call	_lua_tonumber
	add	esp, 16					; 00000010H
	call	__ftol2_sse
	push	eax
	push	1
	push	esi
	call	_lua_tonumber
	add	esp, 8
	call	__ftol2_sse
	push	eax
	push	0
	push	DWORD PTR [edi]
	push	1
	push	esi
	call	_getDslState
	add	esp, 8
	push	eax
	push	esi
	call	_createLuaTexture
	add	esp, 24					; 00000018H
; Line 1434
	mov	eax, 1
	pop	edi
	pop	esi
; Line 1435
	ret	0
_dsl_CreateRenderTarget ENDP
_TEXT	ENDS
; Function compile flags: /Ogtpy
;	COMDAT _dsl_ClearDisplay
_TEXT	SEGMENT
_lua$ = 8						; size = 4
_dsl_ClearDisplay PROC					; COMDAT
; File C:\Program Files (x86)\Steam\steamapps\common\Bully Scholarship Edition\_derpy_script_loader\src\client\library\lib_render.c
; Line 1423
	push	esi
; Line 95
	mov	esi, DWORD PTR _lua$[esp]
; Line 1423
	push	edi
; Line 95
	push	OFFSET ??_C@_0L@LNMHOCME@dsl_render@
	push	esi
	call	_lua_pushstring
; Line 96
	push	-10000					; ffffd8f0H
	push	esi
	call	_lua_rawget
; Line 97
	push	-1
	push	esi
	call	_lua_touserdata
	mov	edi, eax
	add	esp, 24					; 00000018H
; Line 98
	cmp	DWORD PTR [edi], 0
	jne	SHORT $LN5@dsl_ClearD
; Line 99
	push	OFFSET ??_C@_0BB@ELFFKIAH@invalid?5renderer@
	push	esi
	call	_luaL_error
	add	esp, 8
$LN5@dsl_ClearD:
; Line 100
	push	-2					; fffffffeH
	push	esi
	call	_lua_settop
; Line 1426
	mov	edi, DWORD PTR [edi]
	push	edi
	call	_clearRenderDisplay
	add	esp, 12					; 0000000cH
	test	eax, eax
	jne	SHORT $LN7@dsl_ClearD
; Line 1427
	push	edi
	call	_getRenderErrorString
	push	eax
	push	OFFSET ??_C@_02DKCKIIND@?$CFs@
	push	esi
	call	_luaL_error
	add	esp, 16					; 00000010H
$LN7@dsl_ClearD:
; Line 1429
	pop	edi
	xor	eax, eax
	pop	esi
	ret	0
_dsl_ClearDisplay ENDP
_TEXT	ENDS
; Function compile flags: /Ogtpy
;	COMDAT _dsl_MeasureTextInline
_TEXT	SEGMENT
_w$ = -8						; size = 4
_h$ = -4						; size = 4
_lua$ = 8						; size = 4
_dsl_MeasureTextInline PROC				; COMDAT
; File C:\Program Files (x86)\Steam\steamapps\common\Bully Scholarship Edition\_derpy_script_loader\src\client\library\lib_render.c
; Line 1406
	sub	esp, 8
	push	ebx
; Line 95
	mov	ebx, DWORD PTR _lua$[esp+8]
; Line 1406
	push	ebp
	push	esi
	push	edi
; Line 95
	push	OFFSET ??_C@_0L@LNMHOCME@dsl_render@
	push	ebx
	call	_lua_pushstring
; Line 96
	push	-10000					; ffffd8f0H
	push	ebx
	call	_lua_rawget
; Line 97
	push	-1
	push	ebx
	call	_lua_touserdata
	mov	ebp, eax
	add	esp, 24					; 00000018H
; Line 98
	cmp	DWORD PTR [ebp], 0
	jne	SHORT $LN4@dsl_Measur
; Line 99
	push	OFFSET ??_C@_0BB@ELFFKIAH@invalid?5renderer@
	push	ebx
	call	_luaL_error
	add	esp, 8
$LN4@dsl_Measur:
; Line 100
	push	-2					; fffffffeH
	push	ebx
	call	_lua_settop
; Line 1413
	push	ebx
	call	_lua_gettop
; Line 1414
	push	ebx
	mov	esi, eax
	call	_setupInlineText
; Line 1415
	push	0
	mov	edi, eax
	push	esi
	push	edi
	push	ebx
	call	_checkInlineArgs
	push	eax
	push	esi
	push	edi
	push	ebp
	push	ebx
	call	_finishInlineArgs
; Line 1416
	lea	eax, DWORD PTR _h$[esp+76]
	push	eax
	lea	eax, DWORD PTR _w$[esp+80]
	push	eax
	push	1
	push	edi
	push	ebp
	push	ebx
	call	_drawInlineText
; Line 1417
	movss	xmm0, DWORD PTR _w$[esp+100]
	add	esp, 72					; 00000048H
	movss	DWORD PTR [esp], xmm0
	push	ebx
	call	_lua_pushnumber
; Line 1418
	movss	xmm0, DWORD PTR _h$[esp+32]
	add	esp, 4
	movss	DWORD PTR [esp], xmm0
	push	ebx
	call	_lua_pushnumber
	add	esp, 8
; Line 1419
	mov	eax, 2
	pop	edi
	pop	esi
	pop	ebp
	pop	ebx
; Line 1420
	add	esp, 8
	ret	0
_dsl_MeasureTextInline ENDP
_TEXT	ENDS
; Function compile flags: /Ogtpy
;	COMDAT _dsl_DrawTextInline
_TEXT	SEGMENT
_stack$1$ = -12						; size = 4
_h$ = -12						; size = 4
_top$1$ = -8						; size = 4
_w$ = -8						; size = 4
tv369 = -4						; size = 4
_repositions$ = -4					; size = 4
_lua$ = 8						; size = 4
_dsl_DrawTextInline PROC				; COMDAT
; File C:\Program Files (x86)\Steam\steamapps\common\Bully Scholarship Edition\_derpy_script_loader\src\client\library\lib_render.c
; Line 1372
	sub	esp, 12					; 0000000cH
	push	ebx
	push	ebp
	push	esi
; Line 95
	mov	esi, DWORD PTR _lua$[esp+20]
; Line 1378
	xor	ebp, ebp
	push	edi
; Line 95
	push	OFFSET ??_C@_0L@LNMHOCME@dsl_render@
	push	esi
	call	_lua_pushstring
; Line 96
	push	-10000					; ffffd8f0H
	push	esi
	call	_lua_rawget
; Line 97
	push	-1
	push	esi
	call	_lua_touserdata
	mov	ebx, eax
	add	esp, 24					; 00000018H
; Line 98
	cmp	DWORD PTR [ebx], ebp
	jne	SHORT $LN18@dsl_DrawTe
; Line 99
	push	OFFSET ??_C@_0BB@ELFFKIAH@invalid?5renderer@
	push	esi
	call	_luaL_error
	add	esp, 8
$LN18@dsl_DrawTe:
; Line 100
	push	-2					; fffffffeH
	push	esi
	call	_lua_settop
	add	esp, 8
; Line 1380
	cmp	DWORD PTR [ebx+4], ebp
	je	SHORT $LN2@dsl_DrawTe
; Line 1381
	push	-2					; fffffffeH
	push	esi
	call	_lua_touserdata
	mov	edi, eax
	add	esp, 8
; Line 1382
	cmp	DWORD PTR [edi+52], ebp
	je	SHORT $LN28@dsl_DrawTe
; Line 1384
	mov	eax, DWORD PTR [edi+64]
	test	eax, eax
	jle	$LN27@dsl_DrawTe
	mov	ecx, DWORD PTR [edi+60]
	add	ecx, eax
	cmp	DWORD PTR ds:12691892, ecx
	jb	$LN27@dsl_DrawTe
$LN28@dsl_DrawTe:
	pop	edi
; Line 1405
	pop	esi
	pop	ebp
	xor	eax, eax
	pop	ebx
	add	esp, 12					; 0000000cH
	ret	0
$LN2@dsl_DrawTe:
; Line 1387
	push	esi
	call	_lua_gettop
	mov	ebp, eax
; Line 1388
	push	esi
	mov	DWORD PTR _top$1$[esp+36], ebp
	call	_setupInlineText
	mov	edi, eax
; Line 1389
	lea	eax, DWORD PTR _repositions$[esp+36]
	push	eax
	push	ebp
	push	edi
	push	esi
	call	_checkInlineArgs
	add	esp, 24					; 00000018H
	mov	DWORD PTR _stack$1$[esp+28], eax
; Line 1390
	cmp	DWORD PTR _repositions$[esp+28], 0
	jne	$LN20@dsl_DrawTe
	cmp	ebp, eax
	jl	SHORT $LN7@dsl_DrawTe
	push	eax
	push	esi
	call	_luaL_checknumber
	fstp	DWORD PTR tv369[esp+36]
	movss	xmm0, DWORD PTR tv369[esp+36]
	add	esp, 8
	comiss	xmm0, DWORD PTR __real@00000000
	jb	$LN29@dsl_DrawTe
$LN7@dsl_DrawTe:
; Line 1143
	push	DWORD PTR [ebx+44]
	push	-10000					; ffffd8f0H
	push	esi
	call	_lua_rawgeti
; Line 1144
	mov	ebp, DWORD PTR _stack$1$[esp+40]
	add	esp, 12					; 0000000cH
	inc	ebp
	cmp	DWORD PTR _top$1$[esp+28], ebp
	jge	SHORT $LN21@dsl_DrawTe
; Line 1145
	push	ecx
	mov	DWORD PTR [esp], 1065353216		; 3f800000H
	push	esi
	call	_lua_pushnumber
	add	esp, 8
	jmp	SHORT $LN24@dsl_DrawTe
$LN21@dsl_DrawTe:
; Line 1146
	push	ebp
	push	esi
	call	_lua_type
	add	esp, 8
	test	eax, eax
	je	SHORT $LN23@dsl_DrawTe
; Line 1147
	push	ebp
	push	esi
	call	_lua_pushvalue
	add	esp, 8
	jmp	SHORT $LN24@dsl_DrawTe
$LN23@dsl_DrawTe:
; Line 1149
	push	OFFSET ??_C@_0BJ@JOKDHPBJ@cannot?5use?5nil?5for?5style@
	push	ebp
	push	esi
	call	_luaL_typerror
	add	esp, 12					; 0000000cH
$LN24@dsl_DrawTe:
; Line 1150
	push	-1
	push	esi
	call	_lua_pushvalue
; Line 1151
	push	-3					; fffffffdH
	push	esi
	call	_lua_rawget
; Line 1152
	push	-1
	push	esi
	call	_lua_touserdata
	add	esp, 24					; 00000018H
	test	eax, eax
	je	SHORT $LN25@dsl_DrawTe
; Line 1153
	mov	DWORD PTR [eax+52], 0
$LN25@dsl_DrawTe:
; Line 1154
	push	-2					; fffffffeH
	push	esi
	call	_lua_settop
; Line 1155
	mov	ebp, DWORD PTR _top$1$[esp+36]
	lea	eax, DWORD PTR [ebp+1]
	push	eax
	push	esi
	call	_lua_pushvalue
; Line 1156
	push	-3					; fffffffdH
	push	esi
	call	_lua_rawset
; Line 1157
	push	-2					; fffffffeH
	push	esi
	call	_lua_settop
	add	esp, 32					; 00000020H
$LN29@dsl_DrawTe:
; Line 1392
	mov	eax, DWORD PTR _stack$1$[esp+28]
$LN20@dsl_DrawTe:
	push	eax
	push	ebp
	push	edi
	push	ebx
	push	esi
	call	_finishInlineArgs
; Line 1393
	push	DWORD PTR [ebx]
	call	_isRenderActive
	add	esp, 24					; 00000018H
	test	eax, eax
	jne	SHORT $LN8@dsl_DrawTe
; Line 1394
	lea	ebp, DWORD PTR [eax+1]
; Line 1399
	mov	eax, ebp
	jmp	SHORT $LN16@dsl_DrawTe
$LN8@dsl_DrawTe:
; Line 1395
	cmp	DWORD PTR [edi+68], 0
	je	SHORT $LN30@dsl_DrawTe
; Line 1396
	lea	eax, DWORD PTR _h$[esp+28]
	push	eax
	lea	eax, DWORD PTR _w$[esp+32]
	push	eax
	push	1
	push	edi
	push	ebx
	push	esi
	call	_drawInlineText
	add	esp, 24					; 00000018H
$LN30@dsl_DrawTe:
; Line 1399
	xor	ebp, ebp
$LN27@dsl_DrawTe:
	cmp	DWORD PTR [ebx+4], 0
	je	SHORT $LN14@dsl_DrawTe
	cmp	BYTE PTR ds:12691866, 0
	je	SHORT $LN14@dsl_DrawTe
	mov	eax, 1
	jmp	SHORT $LN16@dsl_DrawTe
$LN14@dsl_DrawTe:
	xor	eax, eax
$LN16@dsl_DrawTe:
	lea	ecx, DWORD PTR _h$[esp+28]
	push	ecx
	lea	ecx, DWORD PTR _w$[esp+32]
	push	ecx
	push	eax
	push	edi
	push	ebx
	push	esi
	call	_drawInlineText
	add	esp, 24					; 00000018H
; Line 1400
	test	ebp, ebp
	jne	SHORT $LN12@dsl_DrawTe
	cmp	DWORD PTR [edi+64], ebp
	jle	SHORT $LN11@dsl_DrawTe
$LN12@dsl_DrawTe:
; Line 1401
	push	DWORD PTR [ebx+32]
	push	esi
	call	_addCacheCall
	add	esp, 8
$LN11@dsl_DrawTe:
; Line 1402
	movss	xmm0, DWORD PTR _w$[esp+28]
	push	ecx
	movss	DWORD PTR [esp], xmm0
	push	esi
	call	_lua_pushnumber
; Line 1403
	movss	xmm0, DWORD PTR _h$[esp+36]
	add	esp, 4
	movss	DWORD PTR [esp], xmm0
	push	esi
	call	_lua_pushnumber
	add	esp, 8
; Line 1404
	mov	eax, 2
	pop	edi
; Line 1405
	pop	esi
	pop	ebp
	pop	ebx
	add	esp, 12					; 0000000cH
	ret	0
_dsl_DrawTextInline ENDP
_TEXT	ENDS
; Function compile flags: /Ogtpy
;	COMDAT _drawInlineText
_TEXT	SEGMENT
_vararg$1$ = -4						; size = 4
_lua$ = 8						; size = 4
_lr$ = 12						; size = 4
_width$ = 16						; size = 4
_is$ = 16						; size = 4
_measure$ = 20						; size = 4
_w$ = 24						; size = 4
_h$ = 28						; size = 4
_drawInlineText PROC					; COMDAT
; File C:\Program Files (x86)\Steam\steamapps\common\Bully Scholarship Edition\_derpy_script_loader\src\client\library\lib_render.c
; Line 1329
	push	ecx
	push	ebx
	push	ebp
; Line 1339
	mov	ebp, DWORD PTR _lua$[esp+8]
	push	esi
	mov	esi, DWORD PTR _is$[esp+12]
	push	edi
	push	-1
	push	ebp
	movups	xmm0, XMMWORD PTR [esi]
	mov	eax, DWORD PTR [esi+56]
	mov	DWORD PTR _vararg$1$[esp+28], eax
	movups	XMMWORD PTR [esi+200], xmm0
	movups	xmm0, XMMWORD PTR [esi+16]
	movups	XMMWORD PTR [esi+216], xmm0
	movups	xmm0, XMMWORD PTR [esi+32]
	movups	XMMWORD PTR [esi+232], xmm0
	call	_lua_touserdata
; Line 1341
	movss	xmm0, DWORD PTR [esi+12]
	add	esp, 8
; Line 1349
	mov	ebx, DWORD PTR [esi+52]
	xor	edi, edi
	mov	edx, DWORD PTR _measure$[esp+16]
	mov	eax, DWORD PTR [eax+4]
	mov	DWORD PTR [esi+248], eax
	mov	eax, DWORD PTR [esi+16]
	movss	DWORD PTR [esi+256], xmm0
	movss	DWORD PTR [esi+264], xmm0
	xorps	xmm0, xmm0
	mov	DWORD PTR [esi+252], edx
	mov	DWORD PTR [esi+260], eax
	mov	DWORD PTR [esi+268], 0
	mov	DWORD PTR [esi+272], 0
	mov	DWORD PTR [esi+276], 0
	mov	DWORD PTR [esi+280], 0
	test	ebx, ebx
	je	$LN3@drawInline
	movss	xmm2, DWORD PTR __real@3f000000
$LL4@drawInline:
; Line 1350
	mov	ecx, DWORD PTR [esi+68]
	test	ecx, ecx
	je	SHORT $LN2@drawInline
; Line 1351
	test	edx, edx
	je	SHORT $LN6@drawInline
; Line 1352
	test	edi, edi
	je	SHORT $LN9@drawInline
; Line 1353
	movss	xmm0, DWORD PTR _width$[esp+16]
	movss	DWORD PTR [esi+edi*4+68], xmm0
; Line 1354
	jmp	SHORT $LN9@drawInline
$LN6@drawInline:
	movss	xmm1, DWORD PTR [esi+edi*4+72]
	ucomiss	xmm1, xmm0
	movss	DWORD PTR _width$[esp+16], xmm1
	lahf
	test	ah, 68					; 00000044H
	jnp	SHORT $LN9@drawInline
; Line 1355
	movss	xmm0, DWORD PTR [esi+264]
	cmp	ecx, 1
	jne	SHORT $LN10@drawInline
; Line 1356
	mulss	xmm1, xmm2
$LN10@drawInline:
; Line 1359
	subss	xmm0, xmm1
	movss	DWORD PTR [esi+256], xmm0
	movss	DWORD PTR [esi+212], xmm0
$LN9@drawInline:
; Line 1361
	inc	edi
	cmp	edi, 32					; 00000020H
	jne	SHORT $LN2@drawInline
; Line 1362
	push	OFFSET ??_C@_0BN@JFMNEPDM@tried?5to?5draw?5too?5many?5lines@
	push	ebp
	call	_luaL_error
	add	esp, 8
$LN2@drawInline:
; Line 1349
	lea	eax, DWORD PTR _width$[esp+16]
	push	eax
	push	ebx
	push	esi
	push	DWORD PTR _lr$[esp+28]
	push	ebp
	call	_drawInlineLine
	movss	xmm2, DWORD PTR __real@3f000000
	mov	ebx, eax
	mov	edx, DWORD PTR _measure$[esp+36]
	add	esp, 20					; 00000014H
	xorps	xmm0, xmm0
	test	ebx, ebx
	jne	$LL4@drawInline
$LN3@drawInline:
; Line 1364
	test	edx, edx
	je	SHORT $LN13@drawInline
	test	edi, edi
	je	SHORT $LN13@drawInline
; Line 1365
	movss	xmm0, DWORD PTR _width$[esp+16]
	movss	DWORD PTR [esi+edi*4+68], xmm0
$LN13@drawInline:
; Line 1366
	mov	eax, DWORD PTR _vararg$1$[esp+20]
; Line 1367
	mov	ecx, DWORD PTR [esi+268]
	mov	DWORD PTR [esi+56], eax
	mov	eax, DWORD PTR _w$[esp+16]
; Line 1368
	pop	edi
	mov	DWORD PTR [eax], ecx
	mov	ecx, DWORD PTR [esi+272]
	mov	eax, DWORD PTR _h$[esp+12]
	pop	esi
	pop	ebp
	pop	ebx
	mov	DWORD PTR [eax], ecx
; Line 1369
	pop	ecx
	ret	0
_drawInlineText ENDP
_TEXT	ENDS
; Function compile flags: /Ogtpy
;	COMDAT _drawInlineLine
_TEXT	SEGMENT
_wrap$1$ = -20						; size = 4
_chunk$ = -20						; size = 4
_endline$1$ = -16					; size = 4
_width$1$ = -12						; size = 4
_w$1 = -8						; size = 4
_ybefore$1$ = -4					; size = 4
_wrapped$1$ = -4					; size = 4
_lua$ = 8						; size = 4
_lr$ = 12						; size = 4
_lastline$1$ = 16					; size = 4
_space$2 = 16						; size = 4
_endline$3 = 16						; size = 4
_lastline$4 = 16					; size = 4
_width$5 = 16						; size = 4
_args$6 = 16						; size = 4
_is$ = 16						; size = 4
_space$1$ = 20						; size = 4
_text$ = 20						; size = 4
_width$ = 24						; size = 4
_drawInlineLine PROC					; COMDAT
; File C:\Program Files (x86)\Steam\steamapps\common\Bully Scholarship Edition\_derpy_script_loader\src\client\library\lib_render.c
; Line 1276
	sub	esp, 20					; 00000014H
	xorps	xmm1, xmm1
	push	ebx
	push	ebp
	mov	ebp, DWORD PTR _is$[esp+24]
	push	esi
; Line 1282
	mov	esi, DWORD PTR _text$[esp+28]
	push	edi
	mov	edi, DWORD PTR _lua$[esp+32]
	cmp	BYTE PTR [esi], 43			; 0000002bH
	jne	SHORT $LL2@drawInline
	mov	edx, esi
; Line 1018
	xor	ecx, ecx
	mov	bl, 43					; 0000002bH
$LL29@drawInline:
	cmp	bl, 126					; 0000007eH
	lea	eax, DWORD PTR [ecx+1]
	mov	bl, BYTE PTR [edx+1]
	lea	edx, DWORD PTR [edx+1]
	cmovne	eax, ecx
	mov	ecx, eax
	test	bl, bl
	jne	SHORT $LL29@drawInline
; Line 1282
	test	cl, 1
	je	SHORT $LL2@drawInline
	movss	xmm1, DWORD PTR _width$5[esp+32]
	mov	ecx, DWORD PTR _lastline$4[esp+32]
	mov	ebx, DWORD PTR _args$6[esp+32]
	mov	DWORD PTR _lastline$1$[esp+32], ecx
	mov	ecx, DWORD PTR _endline$3[esp+32]
	mov	eax, DWORD PTR _space$2[esp+32]
	movss	DWORD PTR _width$1$[esp+36], xmm1
	mov	DWORD PTR _endline$1$[esp+36], ecx
	mov	DWORD PTR _space$1$[esp+32], eax
	jmp	SHORT $specifiers$118
$LL2@drawInline:
; Line 1284
	mov	al, BYTE PTR [esi]
	cmp	al, 32					; 00000020H
	je	SHORT $LN74@drawInline
	cmp	al, 9
	jne	SHORT $LN105@drawInline
$LN74@drawInline:
; Line 1285
	inc	esi
	jmp	SHORT $LL2@drawInline
$LN105@drawInline:
; Line 1284
	movss	xmm0, DWORD PTR _width$5[esp+32]
	mov	ecx, DWORD PTR _lastline$4[esp+32]
	mov	ebx, DWORD PTR _args$6[esp+32]
	mov	DWORD PTR _lastline$1$[esp+32], ecx
	mov	ecx, DWORD PTR _endline$3[esp+32]
	mov	edx, DWORD PTR _space$2[esp+32]
	movss	DWORD PTR _width$1$[esp+36], xmm0
	mov	DWORD PTR _endline$1$[esp+36], ecx
	mov	DWORD PTR _space$1$[esp+32], edx
$LN4@drawInline:
; Line 1286
	test	al, al
	je	$LN5@drawInline
; Line 1287
	cmp	al, 126					; 0000007eH
	jne	$LN14@drawInline
	cmp	BYTE PTR [esi+1], al
	je	SHORT $LN14@drawInline
$specifiers$118:
; Line 1289
	movss	xmm0, DWORD PTR [ebp+212]
	subss	xmm0, DWORD PTR [ebp+256]
	mov	eax, DWORD PTR _width$[esp+32]
	movss	DWORD PTR [eax], xmm0
; Line 1290
	movss	xmm0, DWORD PTR [ebp+216]
	movss	DWORD PTR _ybefore$1$[esp+36], xmm0
$LL8@drawInline:
; Line 1292
	lea	eax, DWORD PTR _chunk$[esp+36]
	push	eax
	lea	eax, DWORD PTR [esi+1]
	push	eax
	call	_getInlineSpec
	push	ebp
	push	DWORD PTR _lr$[esp+44]
	mov	eax, DWORD PTR [eax+8]
	push	edi
	call	eax
	add	esi, DWORD PTR _chunk$[esp+56]
	add	esp, 20					; 00000014H
; Line 1294
	cmp	DWORD PTR [ebp+280], 0
	jne	$LN54@drawInline
; Line 1303
	cmp	BYTE PTR [esi], 43			; 0000002bH
	je	SHORT $LL8@drawInline
; Line 1305
	movss	xmm0, DWORD PTR _ybefore$1$[esp+36]
	inc	esi
	ucomiss	xmm0, DWORD PTR [ebp+216]
	lahf
	test	ah, 68					; 00000044H
	jp	$LN57@drawInline
; Line 1307
	mov	al, BYTE PTR [esi]
	xorps	xmm1, xmm1
; Line 1325
	mov	edx, DWORD PTR _space$1$[esp+32]
	jmp	$LN4@drawInline
$LN14@drawInline:
; Line 1215
	movss	xmm0, DWORD PTR [ebp+48]
	ucomiss	xmm0, xmm1
	movss	DWORD PTR _wrap$1$[esp+36], xmm0
	lahf
	test	ah, 68					; 00000044H
	jnp	SHORT $LN36@drawInline
; Line 1217
	movss	xmm1, DWORD PTR [ebp+212]
	lea	ebx, DWORD PTR [ebp+200]
	subss	xmm1, DWORD PTR [ebp+256]
; Line 1218
	xor	edx, edx
	mov	DWORD PTR _space$1$[esp+32], edx
	mov	DWORD PTR _endline$1$[esp+36], edx
	mov	DWORD PTR _lastline$1$[esp+32], edx
	movss	DWORD PTR _width$1$[esp+36], xmm1
	xorps	xmm1, xmm1
$LN36@drawInline:
; Line 1220
	xor	edi, edi
	movsx	ecx, al
	test	al, al
	je	$LN95@drawInline
	npad	5
$LL114@drawInline:
	cmp	ecx, 126				; 0000007eH
	je	$LN95@drawInline
	cmp	ecx, 10					; 0000000aH
	je	$LN95@drawInline
; Line 1221
	ucomiss	xmm0, xmm1
	lahf
	test	ah, 68					; 00000044H
	jnp	$LN33@drawInline
; Line 1222
	push	ecx
	call	_isspace
	add	esp, 4
	test	eax, eax
	jne	SHORT $LN38@drawInline
; Line 1223
	mov	DWORD PTR _endline$1$[esp+36], edi
; Line 1224
	xor	edx, edx
	jmp	SHORT $LN116@drawInline
$LN38@drawInline:
; Line 1225
	mov	edx, DWORD PTR _space$1$[esp+32]
	test	edx, edx
	jne	SHORT $LN111@drawInline
; Line 1226
	cmp	DWORD PTR _lastline$1$[esp+32], edx
	je	SHORT $LN43@drawInline
; Line 1229
	or	DWORD PTR [ebx], 16384			; 00004000H
; Line 1230
	lea	eax, DWORD PTR _w$1[esp+36]
	push	edx
	push	eax
	mov	eax, DWORD PTR _lr$[esp+40]
	mov	DWORD PTR [ebx+4], esi
	mov	DWORD PTR [ebx+8], edi
	push	ebx
	push	DWORD PTR [ebp+248]
	push	DWORD PTR [eax]
	call	_drawRenderString
	add	esp, 20					; 00000014H
	test	eax, eax
	jne	SHORT $LN42@drawInline
; Line 1231
	mov	eax, DWORD PTR _lr$[esp+32]
	push	DWORD PTR [eax]
	call	_getRenderErrorString
	push	eax
	push	DWORD PTR _lua$[esp+40]
	call	_luaL_error
	add	esp, 12					; 0000000cH
$LN42@drawInline:
; Line 1233
	movss	xmm0, DWORD PTR _w$1[esp+36]
	addss	xmm0, DWORD PTR _width$1$[esp+36]
	and	DWORD PTR [ebx], -16385			; ffffbfffH
	comiss	xmm0, DWORD PTR _wrap$1$[esp+36]
	ja	$LN56@drawInline
$LN43@drawInline:
; Line 1238
	mov	eax, DWORD PTR _endline$1$[esp+36]
; Line 1239
	mov	edx, 1
	mov	DWORD PTR _lastline$1$[esp+32], eax
$LN116@drawInline:
; Line 1220
	mov	DWORD PTR _space$1$[esp+32], edx
$LN111@drawInline:
	movss	xmm0, DWORD PTR _wrap$1$[esp+36]
	xorps	xmm1, xmm1
$LN33@drawInline:
	movsx	ecx, BYTE PTR [edi+esi+1]
	inc	edi
	test	ecx, ecx
	jne	$LL114@drawInline
$LN95@drawInline:
; Line 1242
	ucomiss	xmm0, xmm1
	lahf
	test	ah, 68					; 00000044H
	jnp	SHORT $LN46@drawInline
	test	edx, edx
	jne	SHORT $LN46@drawInline
	cmp	DWORD PTR _lastline$1$[esp+32], edx
	je	SHORT $LN46@drawInline
; Line 1245
	or	DWORD PTR [ebx], 16384			; 00004000H
; Line 1246
	lea	eax, DWORD PTR _w$1[esp+36]
	push	edx
	push	eax
	mov	eax, DWORD PTR _lr$[esp+40]
	mov	DWORD PTR [ebx+4], esi
	mov	DWORD PTR [ebx+8], edi
	push	ebx
	push	DWORD PTR [ebp+248]
	push	DWORD PTR [eax]
	call	_drawRenderString
	add	esp, 20					; 00000014H
	test	eax, eax
	jne	SHORT $LN45@drawInline
; Line 1247
	mov	eax, DWORD PTR _lr$[esp+32]
	push	DWORD PTR [eax]
	call	_getRenderErrorString
	push	eax
	push	DWORD PTR _lua$[esp+40]
	call	_luaL_error
	add	esp, 12					; 0000000cH
$LN45@drawInline:
; Line 1249
	movss	xmm0, DWORD PTR _w$1[esp+36]
	addss	xmm0, DWORD PTR _width$1$[esp+36]
	and	DWORD PTR [ebx], -16385			; ffffbfffH
	comiss	xmm0, DWORD PTR _wrap$1$[esp+36]
	jbe	SHORT $LN46@drawInline
$LN56@drawInline:
; Line 1308
	mov	edi, DWORD PTR _lastline$1$[esp+32]
	mov	DWORD PTR _wrapped$1$[esp+36], 1
	inc	edi
	jmp	SHORT $LN32@drawInline
$LN46@drawInline:
; Line 1254
	mov	DWORD PTR _wrapped$1$[esp+36], 0
$LN32@drawInline:
; Line 1309
	cmp	BYTE PTR [edi+esi], 126			; 0000007eH
	mov	DWORD PTR _chunk$[esp+36], edi
	jne	SHORT $LN19@drawInline
	cmp	BYTE PTR [edi+esi+1], 126		; 0000007eH
	jne	SHORT $LN19@drawInline
; Line 1310
	lea	eax, DWORD PTR [edi+1]
	push	eax
	push	esi
	push	ebp
	push	DWORD PTR _lr$[esp+44]
	push	DWORD PTR _lua$[esp+48]
	call	_drawInlineChunk
	add	esp, 20					; 00000014H
	add	edi, 2
; Line 1311
	mov	DWORD PTR _chunk$[esp+36], edi
	jmp	SHORT $LN21@drawInline
$LN19@drawInline:
; Line 1312
	test	edi, edi
	je	SHORT $LN21@drawInline
; Line 1313
	push	edi
	push	esi
	push	ebp
	push	DWORD PTR _lr$[esp+44]
	push	DWORD PTR _lua$[esp+48]
	call	_drawInlineChunk
	add	esp, 20					; 00000014H
$LN21@drawInline:
; Line 1314
	add	esi, edi
; Line 1315
	cmp	DWORD PTR _wrapped$1$[esp+36], 0
	jne	SHORT $LN85@drawInline
	mov	al, BYTE PTR [esi]
	cmp	al, 10					; 0000000aH
	je	SHORT $LN85@drawInline
	mov	edi, DWORD PTR _lua$[esp+32]
	xorps	xmm1, xmm1
; Line 1325
	mov	edx, DWORD PTR _space$1$[esp+32]
	jmp	$LN4@drawInline
$LN54@drawInline:
; Line 1296
	movss	xmm0, DWORD PTR [ebp+256]
	mov	DWORD PTR [ebp+280], 0
	movss	DWORD PTR [ebp+264], xmm0
; Line 1297
	movss	DWORD PTR [ebp+212], xmm0
; Line 1298
	mov	eax, DWORD PTR [ebp+260]
	mov	DWORD PTR [ebp+216], eax
; Line 1301
	lea	eax, DWORD PTR [esi+1]
	cmp	BYTE PTR [esi], 43			; 0000002bH
	pop	edi
	cmove	eax, esi
; Line 1328
	pop	esi
	pop	ebp
	pop	ebx
	add	esp, 20					; 00000014H
	ret	0
$LN85@drawInline:
; Line 1315
	mov	cl, BYTE PTR [esi]
	npad	9
$LL11@drawInline:
; Line 1319
	movss	xmm0, DWORD PTR [ebp+216]
	lea	eax, DWORD PTR [esi+1]
	addss	xmm0, DWORD PTR [ebp+276]
	cmp	cl, 10					; 0000000aH
	cmovne	eax, esi
	mov	esi, eax
	movss	DWORD PTR [ebp+216], xmm0
; Line 1320
	mov	cl, BYTE PTR [esi]
	cmp	cl, 10					; 0000000aH
	je	SHORT $LL11@drawInline
; Line 1321
	movss	xmm0, DWORD PTR [ebp+212]
	subss	xmm0, DWORD PTR [ebp+256]
	mov	eax, DWORD PTR _width$[esp+32]
	movss	DWORD PTR [eax], xmm0
; Line 1322
	mov	eax, DWORD PTR [ebp+256]
	mov	DWORD PTR [ebp+212], eax
$LN57@drawInline:
; Line 1328
	pop	edi
	mov	eax, esi
	pop	esi
	pop	ebp
	pop	ebx
	add	esp, 20					; 00000014H
	ret	0
$LN5@drawInline:
; Line 1326
	movss	xmm0, DWORD PTR [ebp+212]
	subss	xmm0, DWORD PTR [ebp+256]
	mov	eax, DWORD PTR _width$[esp+32]
	pop	edi
; Line 1328
	pop	esi
	pop	ebp
	movss	DWORD PTR [eax], xmm0
	xor	eax, eax
	pop	ebx
	add	esp, 20					; 00000014H
	ret	0
_drawInlineLine ENDP
_TEXT	ENDS
; Function compile flags: /Ogtpy
;	COMDAT _drawInlineChunk
_TEXT	SEGMENT
_lua$ = 8						; size = 4
_lr$ = 12						; size = 4
_w$ = 16						; size = 4
_is$ = 16						; size = 4
_h$ = 20						; size = 4
_text$ = 20						; size = 4
_chunk$ = 24						; size = 4
_drawInlineChunk PROC					; COMDAT
; File C:\Program Files (x86)\Steam\steamapps\common\Bully Scholarship Edition\_derpy_script_loader\src\client\library\lib_render.c
; Line 1262
	mov	eax, DWORD PTR _text$[esp-4]
	push	esi
	mov	esi, DWORD PTR _is$[esp]
	push	edi
	lea	edi, DWORD PTR [esi+200]
	mov	DWORD PTR [edi+4], eax
; Line 1264
	cmp	DWORD PTR [esi+252], 0
	mov	eax, DWORD PTR _chunk$[esp+4]
	mov	DWORD PTR [edi+8], eax
	je	SHORT $LN2@drawInline
; Line 1265
	or	DWORD PTR [edi], 16384			; 00004000H
$LN2@drawInline:
	push	ebx
; Line 1266
	mov	ebx, DWORD PTR _lr$[esp+8]
	lea	eax, DWORD PTR _h$[esp+8]
	push	eax
	lea	eax, DWORD PTR _w$[esp+12]
	push	eax
	push	edi
	push	DWORD PTR [esi+248]
	push	DWORD PTR [ebx]
	call	_drawRenderString
	add	esp, 20					; 00000014H
	test	eax, eax
	jne	SHORT $LN3@drawInline
; Line 1267
	push	DWORD PTR [ebx]
	call	_getRenderErrorString
	push	eax
	push	DWORD PTR _lua$[esp+16]
	call	_luaL_error
	add	esp, 12					; 0000000cH
$LN3@drawInline:
; Line 1268
	movss	xmm0, DWORD PTR [edi+12]
	addss	xmm0, DWORD PTR _w$[esp+8]
; Line 1269
	movss	xmm1, DWORD PTR _h$[esp+8]
	pop	ebx
	movss	DWORD PTR [edi+12], xmm0
	comiss	xmm1, DWORD PTR [esi+276]
	jbe	SHORT $LN4@drawInline
; Line 1270
	movss	DWORD PTR [esi+276], xmm1
	movss	xmm0, DWORD PTR [edi+12]
$LN4@drawInline:
; Line 1271
	subss	xmm0, DWORD PTR [esi+256]
	comiss	xmm0, DWORD PTR [esi+268]
	jbe	SHORT $LN5@drawInline
; Line 1272
	movss	DWORD PTR [esi+268], xmm0
$LN5@drawInline:
; Line 1273
	movss	xmm0, DWORD PTR [edi+16]
	addss	xmm0, xmm1
	subss	xmm0, DWORD PTR [esi+260]
	comiss	xmm0, DWORD PTR [esi+272]
	jbe	SHORT $LN6@drawInline
; Line 1274
	movss	DWORD PTR [esi+272], xmm0
$LN6@drawInline:
	pop	edi
; Line 1275
	pop	esi
	ret	0
_drawInlineChunk ENDP
_TEXT	ENDS
; Function compile flags: /Ogtpy
;	COMDAT _getInlineChunkSize
_TEXT	SEGMENT
_wrap$1$ = -16						; size = 4
_endline$1$ = -12					; size = 4
_w$ = -8						; size = 4
_width$1$ = -4						; size = 4
_lua$ = 8						; size = 4
_lr$ = 12						; size = 4
_space$ = 16						; size = 4
_endline$ = 16						; size = 4
_lastline$ = 16						; size = 4
_width$ = 16						; size = 4
_args$ = 16						; size = 4
_is$ = 16						; size = 4
_text$ = 20						; size = 4
_wrapped$ = 24						; size = 4
_getInlineChunkSize PROC				; COMDAT
; File C:\Program Files (x86)\Steam\steamapps\common\Bully Scholarship Edition\_derpy_script_loader\src\client\library\lib_render.c
; Line 1207
	sub	esp, 16					; 00000010H
; Line 1215
	mov	edx, DWORD PTR _is$[esp+12]
	xorps	xmm2, xmm2
	push	ebx
	push	ebp
	push	esi
	movss	xmm0, DWORD PTR [edx+48]
	ucomiss	xmm0, xmm2
	push	edi
	movss	DWORD PTR _wrap$1$[esp+32], xmm0
	lahf
	test	ah, 68					; 00000044H
	jnp	SHORT $LN23@getInlineC
; Line 1217
	movss	xmm1, DWORD PTR [edx+212]
	lea	esi, DWORD PTR [edx+200]
	subss	xmm1, DWORD PTR [edx+256]
; Line 1218
	xor	edi, edi
	xor	eax, eax
	xor	ebp, ebp
	jmp	SHORT $LN28@getInlineC
$LN23@getInlineC:
; Line 1215
	mov	esi, DWORD PTR _args$[esp+28]
	movss	xmm1, DWORD PTR _width$[esp+28]
	mov	ebp, DWORD PTR _lastline$[esp+28]
	mov	eax, DWORD PTR _endline$[esp+28]
	mov	edi, DWORD PTR _space$[esp+28]
$LN28@getInlineC:
; Line 1220
	mov	DWORD PTR _endline$1$[esp+32], eax
	xor	ebx, ebx
	mov	eax, DWORD PTR _text$[esp+28]
	movss	DWORD PTR _width$1$[esp+32], xmm1
	movsx	ecx, BYTE PTR [eax]
	test	ecx, ecx
	je	$LN22@getInlineC
$LL4@getInlineC:
	cmp	ecx, 126				; 0000007eH
	je	$LN27@getInlineC
	cmp	ecx, 10					; 0000000aH
	je	$LN27@getInlineC
; Line 1221
	ucomiss	xmm0, xmm2
	lahf
	test	ah, 68					; 00000044H
	jnp	$LN2@getInlineC
; Line 1222
	push	ecx
	call	_isspace
	add	esp, 4
	test	eax, eax
	jne	SHORT $LN7@getInlineC
; Line 1223
	mov	DWORD PTR _endline$1$[esp+32], ebx
; Line 1224
	xor	edi, edi
	jmp	SHORT $LN24@getInlineC
$LN7@getInlineC:
; Line 1225
	test	edi, edi
	jne	SHORT $LN24@getInlineC
; Line 1226
	test	ebp, ebp
	je	SHORT $LN12@getInlineC
; Line 1227
	mov	eax, DWORD PTR _text$[esp+28]
; Line 1229
	or	DWORD PTR [esi], 16384			; 00004000H
	mov	DWORD PTR [esi+4], eax
; Line 1230
	lea	eax, DWORD PTR _w$[esp+32]
	push	edi
	mov	edi, DWORD PTR _lr$[esp+32]
	push	eax
	mov	eax, DWORD PTR _is$[esp+36]
	mov	DWORD PTR [esi+8], ebx
	push	esi
	push	DWORD PTR [eax+248]
	push	DWORD PTR [edi]
	call	_drawRenderString
	add	esp, 20					; 00000014H
	test	eax, eax
	jne	SHORT $LN11@getInlineC
; Line 1231
	push	DWORD PTR [edi]
	call	_getRenderErrorString
	push	eax
	push	DWORD PTR _lua$[esp+36]
	call	_luaL_error
	add	esp, 12					; 0000000cH
$LN11@getInlineC:
; Line 1233
	movss	xmm0, DWORD PTR _w$[esp+32]
	addss	xmm0, DWORD PTR _width$1$[esp+32]
	and	DWORD PTR [esi], -16385			; ffffbfffH
	comiss	xmm0, DWORD PTR _wrap$1$[esp+32]
	ja	$LN18@getInlineC
$LN12@getInlineC:
; Line 1238
	mov	ebp, DWORD PTR _endline$1$[esp+32]
; Line 1239
	mov	edi, 1
$LN24@getInlineC:
; Line 1220
	movss	xmm0, DWORD PTR _wrap$1$[esp+32]
	xorps	xmm2, xmm2
$LN2@getInlineC:
	mov	eax, DWORD PTR _text$[esp+28]
	inc	ebx
	movsx	ecx, BYTE PTR [ebx+eax]
	test	ecx, ecx
	jne	$LL4@getInlineC
$LN27@getInlineC:
; Line 1242
	mov	edx, DWORD PTR _is$[esp+28]
$LN22@getInlineC:
	ucomiss	xmm0, xmm2
	lahf
	test	ah, 68					; 00000044H
	jnp	SHORT $LN15@getInlineC
	test	edi, edi
	jne	SHORT $LN15@getInlineC
	test	ebp, ebp
	je	SHORT $LN15@getInlineC
; Line 1243
	mov	eax, DWORD PTR _text$[esp+28]
; Line 1245
	or	DWORD PTR [esi], 16384			; 00004000H
	mov	DWORD PTR [esi+4], eax
; Line 1246
	lea	eax, DWORD PTR _w$[esp+32]
	push	edi
	mov	edi, DWORD PTR _lr$[esp+32]
	push	eax
	mov	DWORD PTR [esi+8], ebx
	push	esi
	push	DWORD PTR [edx+248]
	push	DWORD PTR [edi]
	call	_drawRenderString
	add	esp, 20					; 00000014H
	test	eax, eax
	jne	SHORT $LN14@getInlineC
; Line 1247
	push	DWORD PTR [edi]
	call	_getRenderErrorString
	push	eax
	push	DWORD PTR _lua$[esp+36]
	call	_luaL_error
	add	esp, 12					; 0000000cH
$LN14@getInlineC:
; Line 1249
	movss	xmm0, DWORD PTR _w$[esp+32]
	addss	xmm0, DWORD PTR _width$1$[esp+32]
	and	DWORD PTR [esi], -16385			; ffffbfffH
	comiss	xmm0, DWORD PTR _wrap$1$[esp+32]
	ja	SHORT $LN18@getInlineC
$LN15@getInlineC:
; Line 1254
	mov	ecx, DWORD PTR _wrapped$[esp+28]
; Line 1255
	mov	eax, ebx
	pop	edi
; Line 1256
	pop	esi
	pop	ebp
	mov	DWORD PTR [ecx], 0
	pop	ebx
	add	esp, 16					; 00000010H
	ret	0
$LN18@getInlineC:
	mov	eax, DWORD PTR _wrapped$[esp+28]
	pop	edi
	pop	esi
	mov	DWORD PTR [eax], 1
	lea	eax, DWORD PTR [ebp+1]
	pop	ebp
	pop	ebx
	add	esp, 16					; 00000010H
	ret	0
_getInlineChunkSize ENDP
_TEXT	ENDS
; Function compile flags: /Ogtpy
;	COMDAT _finishInlineArgs
_TEXT	SEGMENT
_lua$ = 8						; size = 4
_lr$ = 12						; size = 4
tv394 = 16						; size = 4
_is$ = 16						; size = 4
_top$ = 20						; size = 4
_stack$ = 24						; size = 4
_finishInlineArgs PROC					; COMDAT
; File C:\Program Files (x86)\Steam\steamapps\common\Bully Scholarship Edition\_derpy_script_loader\src\client\library\lib_render.c
; Line 1159
	push	ebx
; Line 1164
	mov	ebx, DWORD PTR _stack$[esp]
	push	ebp
	mov	ebp, DWORD PTR _top$[esp+4]
	push	esi
	mov	esi, DWORD PTR _lua$[esp+8]
	push	edi
	mov	edi, DWORD PTR _is$[esp+12]
	cmp	ebp, ebx
	jl	SHORT $LN2@finishInli
; Line 1166
	push	ebx
	push	esi
	call	_luaL_checknumber
	fmul	DWORD PTR __real@447a0000
; Line 1167
	push	ebx
	push	esi
	fstp	DWORD PTR tv394[esp+28]
	cvttss2si eax, DWORD PTR tv394[esp+28]
	mov	DWORD PTR [edi+64], eax
	call	_lua_remove
	add	esp, 16					; 00000010H
; Line 1168
	dec	ebp
; Line 1169
	jmp	SHORT $LN3@finishInli
$LN2@finishInli:
; Line 1170
	mov	DWORD PTR [edi+64], 0
$LN3@finishInli:
; Line 1171
	cmp	ebp, ebx
	jge	SHORT $LN4@finishInli
; Line 459
	mov	DWORD PTR [edi+4], 0
	mov	DWORD PTR [edi+8], 0
	mov	DWORD PTR [edi+24], 0
	mov	DWORD PTR [edi+28], 0
	mov	DWORD PTR [edi+36], 0
	mov	DWORD PTR [edi+40], 0
; Line 1174
	push	OFFSET ??_C@_07IHKKODPD@Georgia@
	push	DWORD PTR _lr$[esp+16]
; Line 459
	mov	DWORD PTR [edi+44], 0
; Line 1174
	push	esi
; Line 463
	mov	DWORD PTR [edi], 34857			; 00008829H
; Line 466
	mov	DWORD PTR [edi+12], 1056964608		; 3f000000H
; Line 467
	mov	DWORD PTR [edi+16], 1043811271		; 3e374bc7H
; Line 468
	mov	DWORD PTR [edi+20], 1028174905		; 3d48b439H
; Line 469
	mov	DWORD PTR [edi+32], -3618696		; ffc8c878H
; Line 1174
	call	_getLuaCacheFont
	add	esp, 12					; 0000000cH
	jmp	$LN10@finishInli
$LN4@finishInli:
; Line 1175
	push	ebx
	push	esi
	call	_lua_isnumber
	add	esp, 8
	push	ebx
	push	esi
	test	eax, eax
	je	SHORT $LN6@finishInli
; Line 1177
	call	_lua_tonumber
	call	__ftol2_sse
	push	eax
	push	edi
	call	_styleTextArgs
	add	esp, 16					; 00000010H
	test	eax, eax
	jne	SHORT $LN8@finishInli
; Line 1178
	push	ebx
	push	esi
	call	_lua_tonumber
	fstp	QWORD PTR [esp]
	push	OFFSET ??_C@_0BH@BBBAKPGP@unknown?5text?5style?3?5?$CFd@
	push	esi
	call	_lua_pushfstring
	push	eax
	lea	eax, DWORD PTR [ebx+1]
	push	eax
	push	esi
	call	_luaL_argerror
	add	esp, 28					; 0000001cH
$LN8@finishInli:
; Line 1179
	push	OFFSET ??_C@_07IHKKODPD@Georgia@
	push	DWORD PTR _lr$[esp+16]
	push	esi
	call	_getLuaCacheFont
; Line 1180
	push	ebx
	push	esi
	call	_lua_remove
	add	esp, 20					; 00000014H
; Line 1181
	dec	ebp
	jmp	$LN10@finishInli
$LN6@finishInli:
; Line 1182
	call	_lua_type
	add	esp, 8
	cmp	eax, 5
	jne	SHORT $LN9@finishInli
; Line 1184
	push	1
	push	ebx
	push	esi
	call	_lua_rawgeti
; Line 1185
	push	2
	push	ebx
	push	esi
	call	_lua_rawgeti
; Line 1186
	push	-1
	push	esi
	call	_lua_isuserdata
	add	esp, 32					; 00000020H
	test	eax, eax
	je	SHORT $LN12@finishInli
	push	-2					; fffffffeH
	push	esi
	call	_lua_isuserdata
	add	esp, 8
	test	eax, eax
	jne	SHORT $LN11@finishInli
$LN12@finishInli:
; Line 1187
	push	OFFSET ??_C@_0BG@OMCIBOM@bad?5text?5format?5table@
	lea	eax, DWORD PTR [ebx+1]
	push	eax
	push	esi
	call	_luaL_argerror
	add	esp, 12					; 0000000cH
$LN11@finishInli:
; Line 1188
	push	-1
	push	esi
	call	_lua_touserdata
; Line 1189
	push	-2					; fffffffeH
	push	esi
	movups	xmm0, XMMWORD PTR [eax]
	movups	XMMWORD PTR [edi], xmm0
	movups	xmm0, XMMWORD PTR [eax+16]
	movups	XMMWORD PTR [edi+16], xmm0
	movups	xmm0, XMMWORD PTR [eax+32]
	movups	XMMWORD PTR [edi+32], xmm0
	call	_lua_settop
; Line 1190
	push	ebx
	push	esi
	call	_lua_remove
	add	esp, 24					; 00000018H
; Line 1191
	dec	ebp
; Line 1192
	jmp	SHORT $LN10@finishInli
$LN9@finishInli:
; Line 1193
	push	ebx
	push	esi
	call	_lua_type
	push	eax
	push	esi
	call	_lua_typename
	add	esp, 16					; 00000010H
	push	eax
	push	3
	push	esi
	call	_lua_typename
	add	esp, 8
	push	eax
	push	OFFSET ??_C@_0CJ@GFPKOCOL@?$CFs?5or?5text?5format?5table?5expecte@
	push	esi
	call	_lua_pushfstring
	push	eax
	lea	eax, DWORD PTR [ebx+1]
	push	eax
	push	esi
	call	_luaL_argerror
	add	esp, 28					; 0000001cH
$LN10@finishInli:
; Line 1194
	cmp	ebp, ebx
	jl	SHORT $LN13@finishInli
; Line 1195
	push	OFFSET ??_C@_0BH@GGEONFEF@unexpected?5extra?5value@
	lea	eax, DWORD PTR [ebx+2]
	push	eax
	push	esi
	call	_luaL_argerror
	add	esp, 12					; 0000000cH
$LN13@finishInli:
; Line 1196
	mov	ecx, DWORD PTR [edi]
	test	cl, 2
	je	SHORT $LN14@finishInli
; Line 1202
	and	ecx, -788				; fffffcecH
	mov	DWORD PTR [edi+68], 2
; Line 1203
	or	ecx, 32					; 00000020H
	mov	DWORD PTR [edi], ecx
	pop	edi
	pop	esi
	pop	ebp
	pop	ebx
; Line 1204
	ret	0
$LN14@finishInli:
; Line 1198
	movzx	eax, cl
; Line 1202
	and	ecx, -788				; fffffcecH
	and	eax, 1
; Line 1203
	or	ecx, 32					; 00000020H
	mov	DWORD PTR [edi+68], eax
	mov	DWORD PTR [edi], ecx
	pop	edi
	pop	esi
	pop	ebp
	pop	ebx
; Line 1204
	ret	0
_finishInlineArgs ENDP
_TEXT	ENDS
; Function compile flags: /Ogtpy
;	COMDAT _reserveInlineSlot
_TEXT	SEGMENT
_lua$ = 8						; size = 4
_lr$ = 12						; size = 4
_is$ = 16						; size = 4
_top$ = 20						; size = 4
_stack$ = 24						; size = 4
_reserveInlineSlot PROC					; COMDAT
; File C:\Program Files (x86)\Steam\steamapps\common\Bully Scholarship Edition\_derpy_script_loader\src\client\library\lib_render.c
; Line 1143
	mov	eax, DWORD PTR _lr$[esp-4]
	push	ebx
	push	esi
	mov	esi, DWORD PTR _lua$[esp+4]
	push	edi
	push	DWORD PTR [eax+44]
	push	-10000					; ffffd8f0H
	push	esi
	call	_lua_rawgeti
; Line 1144
	mov	edi, DWORD PTR _stack$[esp+20]
	add	esp, 12					; 0000000cH
	mov	ebx, DWORD PTR _top$[esp+8]
	inc	edi
	cmp	ebx, edi
	jge	SHORT $LN2@reserveInl
; Line 1145
	push	ecx
	mov	DWORD PTR [esp], 1065353216		; 3f800000H
	push	esi
	call	_lua_pushnumber
	add	esp, 8
	jmp	SHORT $LN5@reserveInl
$LN2@reserveInl:
; Line 1146
	push	edi
	push	esi
	call	_lua_type
	add	esp, 8
	test	eax, eax
	je	SHORT $LN4@reserveInl
; Line 1147
	push	edi
	push	esi
	call	_lua_pushvalue
	add	esp, 8
	jmp	SHORT $LN5@reserveInl
$LN4@reserveInl:
; Line 1149
	push	OFFSET ??_C@_0BJ@JOKDHPBJ@cannot?5use?5nil?5for?5style@
	push	edi
	push	esi
	call	_luaL_typerror
	add	esp, 12					; 0000000cH
$LN5@reserveInl:
; Line 1150
	push	-1
	push	esi
	call	_lua_pushvalue
; Line 1151
	push	-3					; fffffffdH
	push	esi
	call	_lua_rawget
; Line 1152
	push	-1
	push	esi
	call	_lua_touserdata
	add	esp, 24					; 00000018H
	test	eax, eax
	je	SHORT $LN6@reserveInl
; Line 1153
	mov	DWORD PTR [eax+52], 0
$LN6@reserveInl:
; Line 1154
	push	-2					; fffffffeH
	push	esi
	call	_lua_settop
; Line 1155
	lea	eax, DWORD PTR [ebx+1]
	push	eax
	push	esi
	call	_lua_pushvalue
; Line 1156
	push	-3					; fffffffdH
	push	esi
	call	_lua_rawset
; Line 1157
	push	-2					; fffffffeH
	push	esi
	call	_lua_settop
	add	esp, 32					; 00000020H
	pop	edi
	pop	esi
	pop	ebx
; Line 1158
	ret	0
_reserveInlineSlot ENDP
_TEXT	ENDS
; Function compile flags: /Ogtpy
;	COMDAT _checkInlineArgs
_TEXT	SEGMENT
_text$1$ = -8						; size = 4
_advance$ = -4						; size = 4
_lua$ = 8						; size = 4
_is$ = 12						; size = 4
_top$ = 16						; size = 4
_repositions$ = 20					; size = 4
_checkInlineArgs PROC					; COMDAT
; File C:\Program Files (x86)\Steam\steamapps\common\Bully Scholarship Edition\_derpy_script_loader\src\client\library\lib_render.c
; Line 1094
	mov	eax, DWORD PTR _is$[esp-4]
	sub	esp, 8
	push	ebp
; Line 1095
	mov	ebp, DWORD PTR _repositions$[esp+8]
	push	esi
	mov	esi, DWORD PTR [eax+56]
	test	ebp, ebp
	je	SHORT $LN8@checkInlin
; Line 1096
	mov	DWORD PTR [ebp], 0
$LN8@checkInlin:
; Line 1097
	mov	ecx, DWORD PTR [eax+52]
	mov	DWORD PTR _text$1$[esp+16], ecx
	mov	al, BYTE PTR [ecx]
	test	al, al
	je	$LN56@checkInlin
	push	ebx
	push	edi
	mov	edi, DWORD PTR _lua$[esp+20]
$LL4@checkInlin:
; Line 1098
	cmp	al, 126					; 0000007eH
	jne	$LN2@checkInlin
; Line 1099
	cmp	BYTE PTR [ecx+1], al
	jne	SHORT $LL7@checkInlin
; Line 1100
	inc	ecx
; Line 1101
	jmp	$LN2@checkInlin
$LL7@checkInlin:
; Line 1104
	lea	eax, DWORD PTR _advance$[esp+24]
	push	eax
	lea	eax, DWORD PTR [ecx+1]
	push	eax
	call	_getInlineSpec
	mov	ebx, eax
	add	esp, 8
; Line 1105
	test	ebx, ebx
	jne	SHORT $LN11@checkInlin
; Line 1106
	mov	eax, DWORD PTR _is$[esp+20]
	push	OFFSET ??_C@_0BJ@JNDNOEDN@unknown?5format?5specifier@
	mov	eax, DWORD PTR [eax+56]
	dec	eax
	push	eax
	push	edi
	call	_luaL_argerror
	add	esp, 12					; 0000000cH
$LN11@checkInlin:
; Line 1107
	test	ebp, ebp
	je	SHORT $LN12@checkInlin
	mov	eax, DWORD PTR [ebx]
	mov	ecx, OFFSET ??_C@_02KEKBNNLK@xy@
	npad	2
$LL48@checkInlin:
	mov	dl, BYTE PTR [eax]
	cmp	dl, BYTE PTR [ecx]
	jne	SHORT $LN49@checkInlin
	test	dl, dl
	je	SHORT $LN50@checkInlin
	mov	dl, BYTE PTR [eax+1]
	cmp	dl, BYTE PTR [ecx+1]
	jne	SHORT $LN49@checkInlin
	add	eax, 2
	add	ecx, 2
	test	dl, dl
	jne	SHORT $LL48@checkInlin
$LN50@checkInlin:
	xor	eax, eax
	jmp	SHORT $LN51@checkInlin
$LN49@checkInlin:
	sbb	eax, eax
	or	eax, 1
$LN51@checkInlin:
	test	eax, eax
	jne	SHORT $LN12@checkInlin
; Line 1108
	mov	DWORD PTR [ebp], 1
$LN12@checkInlin:
; Line 1109
	mov	ebp, DWORD PTR [ebx+12]
	test	ebp, ebp
	je	$LN15@checkInlin
; Line 1110
	cmp	ebp, -1
	je	$LN14@checkInlin
; Line 1112
	cmp	DWORD PTR _top$[esp+20], esi
	jl	SHORT $LN42@checkInlin
	push	esi
	push	edi
	call	_lua_type
	add	esp, 8
	cmp	eax, DWORD PTR [ebx+16]
	je	SHORT $LN16@checkInlin
$LN42@checkInlin:
; Line 1113
	push	-2					; fffffffeH
	push	edi
	call	_lua_settop
	push	DWORD PTR [ebx+16]
	push	edi
	call	_lua_typename
	push	eax
	push	esi
	push	edi
	call	_luaL_typerror
	add	esp, 28					; 0000001cH
$LN16@checkInlin:
; Line 1114
	inc	esi
; Line 1115
	sub	ebp, 1
	je	$LN15@checkInlin
; Line 1116
	cmp	DWORD PTR _top$[esp+20], esi
	jl	SHORT $LN43@checkInlin
	push	esi
	push	edi
	call	_lua_type
	add	esp, 8
	cmp	eax, DWORD PTR [ebx+20]
	je	SHORT $LN22@checkInlin
$LN43@checkInlin:
; Line 1117
	cmp	DWORD PTR [ebx+20], 7
	push	-2					; fffffffeH
	push	edi
	jne	SHORT $LN21@checkInlin
; Line 1118
	call	_lua_settop
	push	OFFSET ??_C@_07JDHEGGGP@texture@
	push	esi
	push	edi
	call	_luaL_typerror
	add	esp, 20					; 00000014H
	jmp	SHORT $LN22@checkInlin
$LN21@checkInlin:
; Line 1120
	call	_lua_settop
	push	DWORD PTR [ebx+20]
	push	edi
	call	_lua_typename
	push	eax
	push	esi
	push	edi
	call	_luaL_typerror
	add	esp, 28					; 0000001cH
$LN22@checkInlin:
; Line 1122
	lea	eax, DWORD PTR [ebp-1]
	inc	esi
	test	eax, eax
	je	$LN15@checkInlin
; Line 1123
	cmp	DWORD PTR _top$[esp+20], esi
	jl	SHORT $LN44@checkInlin
	push	esi
	push	edi
	call	_lua_type
	add	esp, 8
	cmp	eax, DWORD PTR [ebx+24]
	je	SHORT $LN26@checkInlin
$LN44@checkInlin:
; Line 1124
	push	-2					; fffffffeH
	push	edi
	call	_lua_settop
	push	DWORD PTR [ebx+24]
	push	edi
	call	_lua_typename
	push	eax
	push	esi
	push	edi
	call	_luaL_typerror
	add	esp, 28					; 0000001cH
; Line 1128
	jmp	SHORT $LN26@checkInlin
$LN14@checkInlin:
; Line 1130
	cmp	DWORD PTR _top$[esp+20], esi
	jl	SHORT $LN45@checkInlin
	push	esi
	push	edi
	call	_lua_type
	add	esp, 8
	cmp	eax, DWORD PTR [ebx+16]
	je	SHORT $LN26@checkInlin
	cmp	eax, DWORD PTR [ebx+20]
	je	SHORT $LN26@checkInlin
$LN45@checkInlin:
; Line 1131
	push	-2					; fffffffeH
	push	edi
	call	_lua_settop
	push	DWORD PTR [ebx+16]
	push	edi
	call	_lua_typename
	push	eax
	push	OFFSET ??_C@_0L@PFIBJIPN@?$CFs?5or?5font@
	push	edi
	call	_lua_pushfstring
	push	eax
	push	esi
	push	edi
	call	_luaL_typerror
	add	esp, 40					; 00000028H
$LN26@checkInlin:
; Line 1135
	inc	esi
$LN15@checkInlin:
	mov	ecx, DWORD PTR _text$1$[esp+24]
	add	ecx, DWORD PTR _advance$[esp+24]
; Line 1136
	mov	ebp, DWORD PTR _repositions$[esp+20]
	mov	DWORD PTR _text$1$[esp+24], ecx
	cmp	BYTE PTR [ecx], 43			; 0000002bH
	je	$LL7@checkInlin
$LN2@checkInlin:
; Line 1097
	mov	al, BYTE PTR [ecx+1]
	inc	ecx
	mov	DWORD PTR _text$1$[esp+24], ecx
	test	al, al
	jne	$LL4@checkInlin
; Line 1138
	pop	edi
	pop	ebx
$LN56@checkInlin:
; Line 1139
	mov	eax, esi
	pop	esi
	pop	ebp
	add	esp, 8
	ret	0
_checkInlineArgs ENDP
_TEXT	ENDS
; Function compile flags: /Ogtpy
;	COMDAT _setupInlineText
_TEXT	SEGMENT
_wrap$1$ = -16						; size = 4
_stack$1$ = -12						; size = 4
_src$1$ = -8						; size = 4
_wrap$ = -8						; size = 4
_is$1$ = -4						; size = 4
_lua$ = 8						; size = 4
_setupInlineText PROC					; COMDAT
; File C:\Program Files (x86)\Steam\steamapps\common\Bully Scholarship Edition\_derpy_script_loader\src\client\library\lib_render.c
; Line 1053
	sub	esp, 16					; 00000010H
	push	ebx
; Line 1059
	mov	ebx, DWORD PTR _lua$[esp+16]
	push	ebp
	push	esi
	push	edi
	push	1
	push	ebx
	call	_lua_type
	add	esp, 8
	cmp	eax, 3
	jne	$LN2@setupInlin
; Line 1060
	push	2
	push	ebx
	call	_lua_type
	add	esp, 8
	cmp	eax, 4
	je	SHORT $LN4@setupInlin
; Line 1061
	push	4
	push	ebx
	call	_lua_typename
	push	eax
	push	1
	push	ebx
	call	_luaL_typerror
	add	esp, 20					; 00000014H
$LN4@setupInlin:
; Line 1062
	push	1
	push	ebx
	call	_lua_tonumber
	fstp	DWORD PTR _wrap$[esp+40]
; Line 1063
	movss	xmm1, DWORD PTR _wrap$[esp+40]
	xorps	xmm0, xmm0
	add	esp, 8
	movss	DWORD PTR _wrap$1$[esp+32], xmm1
	comiss	xmm0, xmm1
	jbe	SHORT $LN5@setupInlin
; Line 1064
	push	OFFSET ??_C@_0BJ@HIOBOMGM@width?5cannot?5be?5negative@
	push	1
	push	ebx
	call	_luaL_argerror
	add	esp, 12					; 0000000cH
; Line 1072
	mov	esi, 2
; Line 1073
	jmp	SHORT $LN55@setupInlin
$LN5@setupInlin:
; Line 1066
	movss	xmm0, DWORD PTR __real@3c23d70a
	comiss	xmm0, xmm1
	ja	SHORT $LN54@setupInlin
; Line 1070
	movss	xmm0, DWORD PTR __real@3f800000
	minss	xmm0, xmm1
$LN54@setupInlin:
; Line 1072
	movss	DWORD PTR _wrap$1$[esp+32], xmm0
	mov	esi, 2
; Line 1073
	jmp	SHORT $LN55@setupInlin
$LN2@setupInlin:
; Line 1074
	push	4
	push	1
	push	ebx
	call	_luaL_checktype
	xorps	xmm0, xmm0
	add	esp, 12					; 0000000cH
; Line 1075
	movss	DWORD PTR _wrap$1$[esp+32], xmm0
; Line 1076
	mov	esi, 1
$LN55@setupInlin:
; Line 1078
	push	284					; 0000011cH
	push	ebx
	mov	DWORD PTR _stack$1$[esp+40], esi
	call	_lua_newuserdata
	mov	ebp, eax
; Line 1079
	push	esi
	push	ebx
	mov	DWORD PTR _is$1$[esp+48], ebp
	call	_lua_strlen
	inc	eax
	push	eax
	push	ebx
	call	_lua_newuserdata
; Line 1080
	push	esi
	push	ebx
	mov	DWORD PTR [ebp+52], eax
	call	_lua_tostring
	mov	ebp, DWORD PTR [ebp+52]
	mov	edi, eax
	add	esp, 32					; 00000020H
	mov	DWORD PTR _src$1$[esp+32], edi
; Line 1030
	xor	ecx, ecx
; Line 1031
	movsx	edx, BYTE PTR [edi]
	test	edx, edx
	je	$LN49@setupInlin
$LL13@setupInlin:
; Line 1032
	cmp	edx, 32					; 00000020H
	je	SHORT $LN24@setupInlin
	cmp	edx, 9
	je	SHORT $LN24@setupInlin
; Line 1048
	mov	BYTE PTR [ecx+ebp], dl
	inc	ecx
	jmp	SHORT $LN21@setupInlin
$LN24@setupInlin:
; Line 1033
	lea	esi, DWORD PTR [ecx+edi]
; Line 1034
	lea	edx, DWORD PTR [esi+1]
	npad	5
$LL15@setupInlin:
; Line 1035
	mov	al, BYTE PTR [edx]
	cmp	al, 32					; 00000020H
	je	SHORT $LN25@setupInlin
	cmp	al, 9
	jne	SHORT $LN16@setupInlin
$LN25@setupInlin:
; Line 1036
	inc	edx
	jmp	SHORT $LL15@setupInlin
$LN16@setupInlin:
; Line 1037
	cmp	al, 126					; 0000007eH
	jne	SHORT $LN32@setupInlin
	cmp	BYTE PTR [edx+1], al
	lea	edi, DWORD PTR [edx+1]
	je	SHORT $LN53@setupInlin
; Line 1038
	mov	BYTE PTR [ecx+ebp], al
	inc	ecx
; Line 1039
	movsx	eax, BYTE PTR [edi]
	test	eax, eax
	je	SHORT $LN45@setupInlin
$LL19@setupInlin:
	mov	BYTE PTR [ecx+ebp], al
	inc	ecx
	cmp	eax, 126				; 0000007eH
	je	SHORT $LN53@setupInlin
	movsx	eax, BYTE PTR [edi+1]
	inc	edi
	test	eax, eax
	jne	SHORT $LL19@setupInlin
$LN45@setupInlin:
; Line 1081
	mov	esi, DWORD PTR _stack$1$[esp+32]
	push	OFFSET ??_C@_0BM@KAMPCLBM@unfinished?5format?5specifier@
	push	esi
	push	ebx
	call	_luaL_argerror
	add	esp, 12					; 0000000cH
	jmp	SHORT $LN10@setupInlin
$LN53@setupInlin:
; Line 1045
	mov	edi, DWORD PTR _src$1$[esp+32]
$LN32@setupInlin:
	cmp	esi, edx
	jae	SHORT $LN21@setupInlin
$LL20@setupInlin:
; Line 1046
	mov	al, BYTE PTR [esi]
	inc	esi
	mov	BYTE PTR [ecx+ebp], al
	inc	ecx
	cmp	esi, edx
	jb	SHORT $LL20@setupInlin
$LN21@setupInlin:
; Line 1031
	movsx	edx, BYTE PTR [ecx+edi]
	test	edx, edx
	jne	$LL13@setupInlin
	mov	esi, DWORD PTR _stack$1$[esp+32]
$LN49@setupInlin:
; Line 1050
	mov	BYTE PTR [ecx+ebp], 0
$LN10@setupInlin:
; Line 1082
	push	esi
	push	ebx
	call	_lua_replace
; Line 1083
	mov	ecx, DWORD PTR _is$1$[esp+40]
; Line 1084
	lea	eax, DWORD PTR [esi+1]
	movss	xmm0, DWORD PTR _wrap$1$[esp+40]
	add	esp, 8
	mov	DWORD PTR [ecx+56], eax
; Line 1086
	pop	edi
	pop	esi
	movss	DWORD PTR [ecx+48], xmm0
	mov	eax, DWORD PTR ds:12691892
	pop	ebp
	mov	DWORD PTR [ecx+60], eax
	mov	eax, ecx
	pop	ebx
; Line 1087
	add	esp, 16					; 00000010H
	ret	0
_setupInlineText ENDP
_TEXT	ENDS
; Function compile flags: /Ogtpy
;	COMDAT _copyInlineText
_TEXT	SEGMENT
_dest$ = 8						; size = 4
_src$ = 12						; size = 4
_copyInlineText PROC					; COMDAT
; File C:\Program Files (x86)\Steam\steamapps\common\Bully Scholarship Edition\_derpy_script_loader\src\client\library\lib_render.c
; Line 1025
	push	ebx
; Line 1031
	mov	ebx, DWORD PTR _src$[esp]
	xor	eax, eax
	push	ebp
	mov	ebp, DWORD PTR _dest$[esp+4]
	push	esi
	movsx	ecx, BYTE PTR [ebx]
	push	edi
	test	ecx, ecx
	je	SHORT $LN3@copyInline
$LL2@copyInline:
; Line 1032
	cmp	ecx, 32					; 00000020H
	je	SHORT $LN13@copyInline
	cmp	ecx, 9
	je	SHORT $LN13@copyInline
; Line 1048
	mov	BYTE PTR [eax+ebp], cl
	inc	eax
	jmp	SHORT $LN10@copyInline
$LN13@copyInline:
; Line 1033
	lea	esi, DWORD PTR [eax+ebx]
; Line 1034
	lea	edx, DWORD PTR [esi+1]
	npad	5
$LL4@copyInline:
; Line 1035
	mov	cl, BYTE PTR [edx]
	cmp	cl, 32					; 00000020H
	je	SHORT $LN14@copyInline
	cmp	cl, 9
	jne	SHORT $LN5@copyInline
$LN14@copyInline:
; Line 1036
	inc	edx
	jmp	SHORT $LL4@copyInline
$LN5@copyInline:
; Line 1037
	cmp	cl, 126					; 0000007eH
	jne	SHORT $LN21@copyInline
	cmp	BYTE PTR [edx+1], cl
	lea	edi, DWORD PTR [edx+1]
	je	SHORT $LN21@copyInline
; Line 1038
	mov	BYTE PTR [eax+ebp], cl
	inc	eax
; Line 1039
	movsx	ebx, BYTE PTR [edi]
	test	ebx, ebx
	je	SHORT $LN23@copyInline
$LL8@copyInline:
	mov	BYTE PTR [eax+ebp], bl
	lea	ecx, DWORD PTR [eax]
	lea	eax, DWORD PTR [ecx+1]
	cmp	ebx, 126				; 0000007eH
	je	SHORT $LN7@copyInline
	movsx	ebx, BYTE PTR [edi+1]
	inc	edi
	test	ebx, ebx
	jne	SHORT $LL8@copyInline
$LN23@copyInline:
	pop	edi
; Line 1052
	pop	esi
	pop	ebp
	xor	eax, eax
	pop	ebx
	ret	0
$LN7@copyInline:
	mov	ebx, DWORD PTR _src$[esp+12]
$LN21@copyInline:
; Line 1045
	cmp	esi, edx
	jae	SHORT $LN10@copyInline
	npad	4
$LL9@copyInline:
; Line 1046
	mov	cl, BYTE PTR [esi]
	inc	esi
	mov	BYTE PTR [eax+ebp], cl
	inc	eax
	cmp	esi, edx
	jb	SHORT $LL9@copyInline
$LN10@copyInline:
; Line 1031
	movsx	ecx, BYTE PTR [eax+ebx]
	test	ecx, ecx
	jne	SHORT $LL2@copyInline
$LN3@copyInline:
	pop	edi
; Line 1052
	pop	esi
	mov	BYTE PTR [eax+ebp], 0
	mov	eax, 1
	pop	ebp
	pop	ebx
	ret	0
_copyInlineText ENDP
_TEXT	ENDS
; Function compile flags: /Ogtpy
;	COMDAT _isInsideInlineSpec
_TEXT	SEGMENT
_text$ = 8						; size = 4
_isInsideInlineSpec PROC				; COMDAT
; File C:\Program Files (x86)\Steam\steamapps\common\Bully Scholarship Edition\_derpy_script_loader\src\client\library\lib_render.c
; Line 1018
	mov	edx, DWORD PTR _text$[esp-4]
	xor	eax, eax
	push	ebx
	mov	bl, BYTE PTR [edx]
	test	bl, bl
	je	SHORT $LN3@isInsideIn
	npad	3
$LL4@isInsideIn:
	cmp	bl, 126					; 0000007eH
	lea	ecx, DWORD PTR [eax+1]
	mov	bl, BYTE PTR [edx+1]
	lea	edx, DWORD PTR [edx+1]
	cmovne	ecx, eax
	mov	eax, ecx
	test	bl, bl
	jne	SHORT $LL4@isInsideIn
$LN3@isInsideIn:
; Line 1021
	and	eax, -2147483647			; 80000001H
	jns	SHORT $LN11@isInsideIn
	dec	eax
	or	eax, -2					; fffffffeH
	inc	eax
$LN11@isInsideIn:
	pop	ebx
; Line 1022
	ret	0
_isInsideInlineSpec ENDP
_TEXT	ENDS
; Function compile flags: /Ogtpy
;	COMDAT _getInlineSpec
_TEXT	SEGMENT
_alt$1$ = -8						; size = 4
tv335 = -4						; size = 4
_text$ = 8						; size = 4
_read$ = 12						; size = 4
_getInlineSpec PROC					; COMDAT
; File C:\Program Files (x86)\Steam\steamapps\common\Bully Scholarship Edition\_derpy_script_loader\src\client\library\lib_render.c
; Line 1003
	sub	esp, 8
; Line 1007
	mov	eax, OFFSET _inline_specifiers+532
	push	ebx
	push	ebp
	mov	ebp, DWORD PTR _text$[esp+12]
	push	esi
	push	edi
$LL2@getInlineS:
; Line 1010
	mov	ecx, DWORD PTR [eax-24]
	sub	eax, 28					; 0000001cH
; Line 996
	xor	edi, edi
; Line 1009
	mov	DWORD PTR tv335[esp+24], eax
; Line 996
	cmp	BYTE PTR [ebp], 0
; Line 1010
	mov	DWORD PTR _alt$1$[esp+24], ecx
	mov	ebx, DWORD PTR [eax]
; Line 996
	je	SHORT $LN8@getInlineS
; Line 1009
	mov	esi, ebp
	sub	ebx, ebp
	npad	4
$LL9@getInlineS:
; Line 996
	cmp	BYTE PTR [ebx+esi], 0
	je	SHORT $LN27@getInlineS
; Line 997
	movsx	eax, BYTE PTR [esi]
	push	eax
	call	_tolower
	movsx	ecx, BYTE PTR [ebx+esi]
	add	esp, 4
	cmp	eax, ecx
	jne	SHORT $LN20@getInlineS
; Line 996
	inc	esi
	inc	edi
	cmp	BYTE PTR [esi], 0
	jne	SHORT $LL9@getInlineS
$LN27@getInlineS:
; Line 999
	mov	ecx, DWORD PTR _alt$1$[esp+24]
$LN8@getInlineS:
	mov	al, BYTE PTR [edi+ebp]
	cmp	al, 126					; 0000007eH
	je	SHORT $LN12@getInlineS
	cmp	al, 43					; 0000002bH
	je	SHORT $LN12@getInlineS
; Line 1001
	test	ecx, ecx
	je	SHORT $LN14@getInlineS
	push	0
	push	ecx
	push	ebp
	call	_isInlineSpec
	add	esp, 12					; 0000000cH
	jmp	SHORT $LN6@getInlineS
$LN20@getInlineS:
; Line 998
	mov	eax, DWORD PTR _alt$1$[esp+24]
	test	eax, eax
	je	SHORT $LN14@getInlineS
	push	0
	push	eax
	push	ebp
	call	_isInlineSpec
	add	esp, 12					; 0000000cH
	jmp	SHORT $LN6@getInlineS
$LN14@getInlineS:
; Line 1010
	xor	eax, eax
	jmp	SHORT $LN6@getInlineS
$LN12@getInlineS:
; Line 1000
	lea	eax, DWORD PTR [edi+1]
$LN6@getInlineS:
; Line 1010
	mov	ecx, DWORD PTR _read$[esp+20]
	test	eax, eax
	mov	DWORD PTR [ecx], eax
	mov	eax, DWORD PTR tv335[esp+24]
	jne	SHORT $LN1@getInlineS
; Line 1008
	cmp	eax, OFFSET _inline_specifiers
	jne	$LL2@getInlineS
; Line 1013
	xor	eax, eax
$LN1@getInlineS:
	pop	edi
; Line 1014
	pop	esi
	pop	ebp
	pop	ebx
	add	esp, 8
	ret	0
_getInlineSpec ENDP
_TEXT	ENDS
; Function compile flags: /Ogtpy
;	COMDAT _isInlineSpec
_TEXT	SEGMENT
_text$ = 8						; size = 4
_name$ = 12						; size = 4
_alt$ = 16						; size = 4
_isInlineSpec PROC					; COMDAT
; File C:\Program Files (x86)\Steam\steamapps\common\Bully Scholarship Edition\_derpy_script_loader\src\client\library\lib_render.c
; Line 992
	push	ebx
; Line 996
	mov	ebx, DWORD PTR _text$[esp]
	push	ebp
	push	esi
	push	edi
	xor	edi, edi
	cmp	BYTE PTR [ebx], 0
	je	SHORT $LN3@isInlineSp
	mov	ebp, DWORD PTR _name$[esp+12]
	mov	esi, ebx
	sub	ebp, ebx
$LL4@isInlineSp:
	cmp	BYTE PTR [esi+ebp], 0
	je	SHORT $LN3@isInlineSp
; Line 997
	movsx	eax, BYTE PTR [esi]
	push	eax
	call	_tolower
	movsx	ecx, BYTE PTR [esi+ebp]
	add	esp, 4
	cmp	eax, ecx
	jne	SHORT $LN14@isInlineSp
; Line 996
	inc	esi
	inc	edi
	cmp	BYTE PTR [esi], 0
	jne	SHORT $LL4@isInlineSp
$LN3@isInlineSp:
; Line 999
	mov	al, BYTE PTR [edi+ebx]
	cmp	al, 126					; 0000007eH
	je	SHORT $LN7@isInlineSp
	cmp	al, 43					; 0000002bH
	jne	SHORT $LN14@isInlineSp
$LN7@isInlineSp:
; Line 1000
	lea	eax, DWORD PTR [edi+1]
	pop	edi
; Line 1002
	pop	esi
	pop	ebp
	pop	ebx
	ret	0
$LN14@isInlineSp:
	mov	eax, DWORD PTR _alt$[esp+12]
	test	eax, eax
	je	SHORT $LN9@isInlineSp
	push	0
	push	eax
	push	ebx
	call	_isInlineSpec
	add	esp, 12					; 0000000cH
	pop	edi
	pop	esi
	pop	ebp
	pop	ebx
	ret	0
$LN9@isInlineSp:
	pop	edi
	pop	esi
	pop	ebp
	xor	eax, eax
	pop	ebx
	ret	0
_isInlineSpec ENDP
_TEXT	ENDS
; Function compile flags: /Ogtpy
;	COMDAT _inline_yellow
_TEXT	SEGMENT
_lua$ = 8						; size = 4
_lr$ = 12						; size = 4
_is$ = 16						; size = 4
_inline_yellow PROC					; COMDAT
; File C:\Program Files (x86)\Steam\steamapps\common\Bully Scholarship Edition\_derpy_script_loader\src\client\library\lib_render.c
; Line 965
	mov	ecx, DWORD PTR _is$[esp-4]
	mov	eax, DWORD PTR [ecx+232]
	and	eax, -3618756				; ffc8c83cH
	or	eax, 13158460				; 00c8c83cH
	mov	DWORD PTR [ecx+232], eax
; Line 966
	ret	0
_inline_yellow ENDP
_TEXT	ENDS
; Function compile flags: /Ogtpy
;	COMDAT _inline_xy
_TEXT	SEGMENT
_lua$ = 8						; size = 4
_lr$ = 12						; size = 4
_is$ = 16						; size = 4
_inline_xy PROC						; COMDAT
; File C:\Program Files (x86)\Steam\steamapps\common\Bully Scholarship Edition\_derpy_script_loader\src\client\library\lib_render.c
; Line 959
	push	edi
; Line 960
	mov	edi, DWORD PTR _is$[esp]
	mov	ecx, DWORD PTR [edi+56]
	push	ecx
	push	DWORD PTR _lua$[esp+4]
	lea	eax, DWORD PTR [ecx+1]
	mov	DWORD PTR [edi+56], eax
	call	_lua_tonumber
; Line 961
	mov	ecx, DWORD PTR [edi+56]
	push	ecx
	push	DWORD PTR _lua$[esp+12]
	fstp	DWORD PTR [edi+256]
	lea	eax, DWORD PTR [ecx+1]
	mov	DWORD PTR [edi+56], eax
	call	_lua_tonumber
	add	esp, 16					; 00000010H
; Line 962
	mov	DWORD PTR [edi+280], 1
	fstp	DWORD PTR [edi+260]
	pop	edi
; Line 963
	ret	0
_inline_xy ENDP
_TEXT	ENDS
; Function compile flags: /Ogtpy
;	COMDAT _inline_white
_TEXT	SEGMENT
_lua$ = 8						; size = 4
_lr$ = 12						; size = 4
_is$ = 16						; size = 4
_inline_white PROC					; COMDAT
; File C:\Program Files (x86)\Steam\steamapps\common\Bully Scholarship Edition\_derpy_script_loader\src\client\library\lib_render.c
; Line 957
	mov	eax, DWORD PTR _is$[esp-4]
	or	DWORD PTR [eax+232], 16777215		; 00ffffffH
; Line 958
	ret	0
_inline_white ENDP
_TEXT	ENDS
; Function compile flags: /Ogtpy
;	COMDAT _inline_texture
_TEXT	SEGMENT
tv238 = -4						; size = 4
_w$ = -4						; size = 4
_lua$ = 8						; size = 4
_lr$ = 12						; size = 4
_h$ = 16						; size = 4
_is$ = 16						; size = 4
_inline_texture PROC					; COMDAT
; File C:\Program Files (x86)\Steam\steamapps\common\Bully Scholarship Edition\_derpy_script_loader\src\client\library\lib_render.c
; Line 935
	push	ecx
	push	esi
; Line 939
	mov	esi, DWORD PTR _is$[esp+4]
	push	edi
	mov	ecx, DWORD PTR [esi+56]
	push	ecx
	push	DWORD PTR _lua$[esp+12]
	lea	eax, DWORD PTR [ecx+1]
	mov	DWORD PTR [esi+56], eax
	call	_lua_touserdata
; Line 940
	movss	xmm0, DWORD PTR [esi+220]
	mov	edi, eax
	movss	DWORD PTR _h$[esp+16], xmm0
	push	DWORD PTR [edi+4]
	push	DWORD PTR [edi]
	call	_getRenderTextureAspect
	push	DWORD PTR [edi]
	fstp	DWORD PTR tv238[esp+32]
	call	_getRenderAspect
	fdivr	DWORD PTR tv238[esp+32]
	add	esp, 20					; 00000014H
; Line 944
	mov	eax, DWORD PTR [esi+200]
	movss	xmm4, DWORD PTR _h$[esp+8]
	fmul	DWORD PTR _h$[esp+8]
	movaps	xmm3, xmm4
	mulss	xmm3, DWORD PTR __real@3e800000
	movss	xmm7, DWORD PTR [esi+216]
	movaps	xmm1, xmm7
	addss	xmm3, DWORD PTR [esi+212]
	fstp	DWORD PTR _w$[esp+12]
	movss	DWORD PTR [esi+212], xmm3
	test	eax, 4096				; 00001000H
	je	SHORT $LN2@inline_tex
; Line 945
	addss	xmm1, xmm4
	jmp	SHORT $LN4@inline_tex
$LN2@inline_tex:
; Line 946
	test	eax, 8192				; 00002000H
	je	SHORT $LN4@inline_tex
; Line 947
	movaps	xmm0, xmm4
	mulss	xmm0, DWORD PTR __real@3f000000
	addss	xmm1, xmm0
$LN4@inline_tex:
; Line 948
	movss	xmm6, DWORD PTR [esi+48]
	xorps	xmm0, xmm0
	movss	xmm5, DWORD PTR _w$[esp+12]
	movaps	xmm2, xmm3
	ucomiss	xmm6, xmm0
	lahf
	test	ah, 68					; 00000044H
	jnp	SHORT $LN5@inline_tex
	movss	xmm4, DWORD PTR [esi+256]
	ucomiss	xmm3, xmm4
	lahf
	test	ah, 68					; 00000044H
	jnp	SHORT $LN10@inline_tex
	movaps	xmm0, xmm3
	addss	xmm0, xmm5
	subss	xmm0, xmm4
	comiss	xmm0, xmm6
	jbe	SHORT $LN10@inline_tex
; Line 950
	movss	xmm1, DWORD PTR [esi+276]
	movaps	xmm3, xmm4
	addss	xmm1, xmm7
	movss	DWORD PTR [esi+212], xmm4
	movaps	xmm2, xmm4
	movss	DWORD PTR [esi+216], xmm1
$LN10@inline_tex:
; Line 952
	movss	xmm4, DWORD PTR _h$[esp+8]
$LN5@inline_tex:
	cmp	DWORD PTR [esi+252], 0
	jne	SHORT $LN6@inline_tex
; Line 953
	mov	eax, DWORD PTR [esi+232]
	sub	esp, 16					; 00000010H
	or	eax, 16777215				; 00ffffffH
	mov	DWORD PTR [esp+12], 1065353216		; 3f800000H
	mov	DWORD PTR [esp+8], 1065353216		; 3f800000H
	mov	DWORD PTR [esp+4], 0
	mov	DWORD PTR [esp], 0
	push	eax
	sub	esp, 16					; 00000010H
	movss	DWORD PTR [esp+12], xmm4
	movss	DWORD PTR [esp+8], xmm5
	movss	DWORD PTR [esp+4], xmm1
	movss	DWORD PTR [esp], xmm3
	push	DWORD PTR [edi+4]
	push	DWORD PTR [edi]
	call	_drawRenderTextureUV
	movss	xmm2, DWORD PTR [esi+212]
	add	esp, 44					; 0000002cH
$LN6@inline_tex:
; Line 954
	addss	xmm2, DWORD PTR _w$[esp+12]
	pop	edi
	movss	DWORD PTR [esi+212], xmm2
	pop	esi
; Line 955
	pop	ecx
	ret	0
_inline_texture ENDP
_TEXT	ENDS
; Function compile flags: /Ogtpy
;	COMDAT _inline_scale
_TEXT	SEGMENT
_lua$ = 8						; size = 4
_lr$ = 12						; size = 4
_is$ = 16						; size = 4
_inline_scale PROC					; COMDAT
; File C:\Program Files (x86)\Steam\steamapps\common\Bully Scholarship Edition\_derpy_script_loader\src\client\library\lib_render.c
; Line 932
	push	esi
; Line 933
	mov	esi, DWORD PTR _is$[esp]
	mov	ecx, DWORD PTR [esi+56]
	push	ecx
	push	DWORD PTR _lua$[esp+4]
	lea	eax, DWORD PTR [ecx+1]
	mov	DWORD PTR [esi+56], eax
	call	_lua_tonumber
	fmul	DWORD PTR __real@3ccccccd
	add	esp, 8
	fstp	DWORD PTR [esi+220]
	pop	esi
; Line 934
	ret	0
_inline_scale ENDP
_TEXT	ENDS
; Function compile flags: /Ogtpy
;	COMDAT _inline_subtitle
_TEXT	SEGMENT
_lua$ = 8						; size = 4
_lr$ = 12						; size = 4
_is$ = 16						; size = 4
_inline_subtitle PROC					; COMDAT
; File C:\Program Files (x86)\Steam\steamapps\common\Bully Scholarship Edition\_derpy_script_loader\src\client\library\lib_render.c
; Line 930
	mov	ecx, DWORD PTR _is$[esp-4]
	mov	eax, DWORD PTR [ecx+232]
	and	eax, -3618616				; ffc8c8c8H
	or	eax, 13158600				; 00c8c8c8H
	mov	DWORD PTR [ecx+232], eax
; Line 931
	ret	0
_inline_subtitle ENDP
_TEXT	ENDS
; Function compile flags: /Ogtpy
;	COMDAT _inline_rgb
_TEXT	SEGMENT
_lua$ = 8						; size = 4
_lr$ = 12						; size = 4
_is$ = 16						; size = 4
_inline_rgb PROC					; COMDAT
; File C:\Program Files (x86)\Steam\steamapps\common\Bully Scholarship Edition\_derpy_script_loader\src\client\library\lib_render.c
; Line 925
	push	esi
; Line 926
	mov	esi, DWORD PTR _is$[esp]
	push	DWORD PTR [esi+56]
	push	DWORD PTR _lua$[esp+4]
	call	_getLuaRgb
	mov	ecx, DWORD PTR [esi+232]
	add	esp, 8
; Line 927
	add	DWORD PTR [esi+56], 3
	and	ecx, -16777216				; ff000000H
	or	eax, ecx
	mov	DWORD PTR [esi+232], eax
	pop	esi
; Line 928
	ret	0
_inline_rgb ENDP
_TEXT	ENDS
; Function compile flags: /Ogtpy
;	COMDAT _inline_red
_TEXT	SEGMENT
_lua$ = 8						; size = 4
_lr$ = 12						; size = 4
_is$ = 16						; size = 4
_inline_red PROC					; COMDAT
; File C:\Program Files (x86)\Steam\steamapps\common\Bully Scholarship Edition\_derpy_script_loader\src\client\library\lib_render.c
; Line 923
	mov	ecx, DWORD PTR _is$[esp-4]
	mov	eax, DWORD PTR [ecx+232]
	and	eax, -3654596				; ffc83c3cH
	or	eax, 13122620				; 00c83c3cH
	mov	DWORD PTR [ecx+232], eax
; Line 924
	ret	0
_inline_red ENDP
_TEXT	ENDS
; Function compile flags: /Ogtpy
;	COMDAT _inline_objective
_TEXT	SEGMENT
_lua$ = 8						; size = 4
_lr$ = 12						; size = 4
_is$ = 16						; size = 4
_inline_objective PROC					; COMDAT
; File C:\Program Files (x86)\Steam\steamapps\common\Bully Scholarship Edition\_derpy_script_loader\src\client\library\lib_render.c
; Line 920
	mov	ecx, DWORD PTR _is$[esp-4]
	mov	eax, DWORD PTR [ecx+232]
	and	eax, -3618696				; ffc8c878H
	or	eax, 13158520				; 00c8c878H
	mov	DWORD PTR [ecx+232], eax
; Line 921
	ret	0
_inline_objective ENDP
_TEXT	ENDS
; Function compile flags: /Ogtpy
;	COMDAT _inline_normal
_TEXT	SEGMENT
_lua$ = 8						; size = 4
_lr$ = 12						; size = 4
_is$ = 16						; size = 4
_inline_normal PROC					; COMDAT
; File C:\Program Files (x86)\Steam\steamapps\common\Bully Scholarship Edition\_derpy_script_loader\src\client\library\lib_render.c
; Line 917
	mov	eax, DWORD PTR _is$[esp-4]
	and	DWORD PTR [eax+200], -98305		; fffe7fffH
; Line 918
	ret	0
_inline_normal ENDP
_TEXT	ENDS
; Function compile flags: /Ogtpy
;	COMDAT _inline_magenta
_TEXT	SEGMENT
_lua$ = 8						; size = 4
_lr$ = 12						; size = 4
_is$ = 16						; size = 4
_inline_magenta PROC					; COMDAT
; File C:\Program Files (x86)\Steam\steamapps\common\Bully Scholarship Edition\_derpy_script_loader\src\client\library\lib_render.c
; Line 914
	mov	ecx, DWORD PTR _is$[esp-4]
	mov	eax, DWORD PTR [ecx+232]
	and	eax, -3654456				; ffc83cc8H
	or	eax, 13122760				; 00c83cc8H
	mov	DWORD PTR [ecx+232], eax
; Line 915
	ret	0
_inline_magenta ENDP
_TEXT	ENDS
; Function compile flags: /Ogtpy
;	COMDAT _inline_italic
_TEXT	SEGMENT
_lua$ = 8						; size = 4
_lr$ = 12						; size = 4
_is$ = 16						; size = 4
_inline_italic PROC					; COMDAT
; File C:\Program Files (x86)\Steam\steamapps\common\Bully Scholarship Edition\_derpy_script_loader\src\client\library\lib_render.c
; Line 911
	mov	eax, DWORD PTR _is$[esp-4]
	or	DWORD PTR [eax+200], 65536		; 00010000H
; Line 912
	ret	0
_inline_italic ENDP
_TEXT	ENDS
; Function compile flags: /Ogtpy
;	COMDAT _inline_height
_TEXT	SEGMENT
_lua$ = 8						; size = 4
_lr$ = 12						; size = 4
_is$ = 16						; size = 4
_inline_height PROC					; COMDAT
; File C:\Program Files (x86)\Steam\steamapps\common\Bully Scholarship Edition\_derpy_script_loader\src\client\library\lib_render.c
; Line 907
	push	esi
; Line 908
	mov	esi, DWORD PTR _is$[esp]
	mov	ecx, DWORD PTR [esi+56]
	push	ecx
	push	DWORD PTR _lua$[esp+4]
	lea	eax, DWORD PTR [ecx+1]
	mov	DWORD PTR [esi+56], eax
	call	_lua_tonumber
	add	esp, 8
	fstp	DWORD PTR [esi+220]
	pop	esi
; Line 909
	ret	0
_inline_height ENDP
_TEXT	ENDS
; Function compile flags: /Ogtpy
;	COMDAT _inline_green
_TEXT	SEGMENT
_lua$ = 8						; size = 4
_lr$ = 12						; size = 4
_is$ = 16						; size = 4
_inline_green PROC					; COMDAT
; File C:\Program Files (x86)\Steam\steamapps\common\Bully Scholarship Edition\_derpy_script_loader\src\client\library\lib_render.c
; Line 905
	mov	ecx, DWORD PTR _is$[esp-4]
	mov	eax, DWORD PTR [ecx+232]
	and	eax, -12793796				; ff3cc83cH
	or	eax, 3983420				; 003cc83cH
	mov	DWORD PTR [ecx+232], eax
; Line 906
	ret	0
_inline_green ENDP
_TEXT	ENDS
; Function compile flags: /Ogtpy
;	COMDAT _inline_font
_TEXT	SEGMENT
_lua$ = 8						; size = 4
_lr$ = 12						; size = 4
_is$ = 16						; size = 4
_inline_font PROC					; COMDAT
; File C:\Program Files (x86)\Steam\steamapps\common\Bully Scholarship Edition\_derpy_script_loader\src\client\library\lib_render.c
; Line 893
	push	esi
; Line 896
	mov	esi, DWORD PTR _is$[esp]
	push	edi
	mov	edi, DWORD PTR _lua$[esp+4]
	push	DWORD PTR [esi+56]
	push	edi
	call	_lua_touserdata
	add	esp, 8
	test	eax, eax
	je	SHORT $LN2@inline_fon
; Line 897
	mov	eax, DWORD PTR [eax+4]
; Line 903
	inc	DWORD PTR [esi+56]
	pop	edi
	mov	DWORD PTR [esi+248], eax
	pop	esi
	ret	0
$LN2@inline_fon:
; Line 899
	push	DWORD PTR [esi+56]
	push	edi
	call	_lua_tostring
	push	eax
	push	DWORD PTR _lr$[esp+16]
	push	edi
	call	_getLuaCacheFont
; Line 900
	push	-2					; fffffffeH
	push	edi
	mov	DWORD PTR [esi+248], eax
	call	_lua_settop
; Line 903
	inc	DWORD PTR [esi+56]
	add	esp, 28					; 0000001cH
	pop	edi
	pop	esi
	ret	0
_inline_font ENDP
_TEXT	ENDS
; Function compile flags: /Ogtpy
;	COMDAT _inline_cyan
_TEXT	SEGMENT
_lua$ = 8						; size = 4
_lr$ = 12						; size = 4
_is$ = 16						; size = 4
_inline_cyan PROC					; COMDAT
; File C:\Program Files (x86)\Steam\steamapps\common\Bully Scholarship Edition\_derpy_script_loader\src\client\library\lib_render.c
; Line 891
	mov	ecx, DWORD PTR _is$[esp-4]
	mov	eax, DWORD PTR [ecx+232]
	and	eax, -12793656				; ff3cc8c8H
	or	eax, 3983560				; 003cc8c8H
	mov	DWORD PTR [ecx+232], eax
; Line 892
	ret	0
_inline_cyan ENDP
_TEXT	ENDS
; Function compile flags: /Ogtpy
;	COMDAT _inline_blue
_TEXT	SEGMENT
_lua$ = 8						; size = 4
_lr$ = 12						; size = 4
_is$ = 16						; size = 4
_inline_blue PROC					; COMDAT
; File C:\Program Files (x86)\Steam\steamapps\common\Bully Scholarship Edition\_derpy_script_loader\src\client\library\lib_render.c
; Line 888
	mov	ecx, DWORD PTR _is$[esp-4]
	mov	eax, DWORD PTR [ecx+232]
	and	eax, -12829496				; ff3c3cc8H
	or	eax, 3947720				; 003c3cc8H
	mov	DWORD PTR [ecx+232], eax
; Line 889
	ret	0
_inline_blue ENDP
_TEXT	ENDS
; Function compile flags: /Ogtpy
;	COMDAT _inline_bold
_TEXT	SEGMENT
_lua$ = 8						; size = 4
_lr$ = 12						; size = 4
_is$ = 16						; size = 4
_inline_bold PROC					; COMDAT
; File C:\Program Files (x86)\Steam\steamapps\common\Bully Scholarship Edition\_derpy_script_loader\src\client\library\lib_render.c
; Line 885
	mov	eax, DWORD PTR _is$[esp-4]
	or	DWORD PTR [eax+200], 32768		; 00008000H
; Line 886
	ret	0
_inline_bold ENDP
_TEXT	ENDS
; Function compile flags: /Ogtpy
;	COMDAT _inline_alpha
_TEXT	SEGMENT
_lua$ = 8						; size = 4
_lr$ = 12						; size = 4
tv149 = 16						; size = 4
_is$ = 16						; size = 4
_inline_alpha PROC					; COMDAT
; File C:\Program Files (x86)\Steam\steamapps\common\Bully Scholarship Edition\_derpy_script_loader\src\client\library\lib_render.c
; Line 881
	push	esi
; Line 882
	mov	esi, DWORD PTR _is$[esp]
	mov	ecx, DWORD PTR [esi+56]
	push	ecx
	push	DWORD PTR _lua$[esp+4]
	lea	eax, DWORD PTR [ecx+1]
	mov	DWORD PTR [esi+56], eax
	call	_lua_tonumber
	add	esp, 8
	fstp	DWORD PTR tv149[esp]
	movss	xmm0, DWORD PTR tv149[esp]
	call	__ftoui3
	mov	ecx, DWORD PTR [esi+232]
	shl	eax, 24					; 00000018H
	and	ecx, 16777215				; 00ffffffH
	or	ecx, eax
	mov	DWORD PTR [esi+232], ecx
	pop	esi
; Line 883
	ret	0
_inline_alpha ENDP
_TEXT	ENDS
; Function compile flags: /Ogtpy
;	COMDAT _dsl_SetTextFormatting
_TEXT	SEGMENT
tv288 = -4						; size = 4
_lua$ = 8						; size = 4
_dsl_SetTextFormatting PROC				; COMDAT
; File C:\Program Files (x86)\Steam\steamapps\common\Bully Scholarship Edition\_derpy_script_loader\src\client\library\lib_render.c
; Line 816
	push	ecx
	push	esi
; Line 95
	mov	esi, DWORD PTR _lua$[esp+4]
; Line 816
	push	edi
; Line 95
	push	OFFSET ??_C@_0L@LNMHOCME@dsl_render@
	push	esi
	call	_lua_pushstring
; Line 96
	push	-10000					; ffffd8f0H
	push	esi
	call	_lua_rawget
; Line 97
	push	-1
	push	esi
	call	_lua_touserdata
	mov	edi, eax
	add	esp, 24					; 00000018H
; Line 98
	cmp	DWORD PTR [edi], 0
	jne	SHORT $LN9@dsl_SetTex
; Line 99
	push	OFFSET ??_C@_0BB@ELFFKIAH@invalid?5renderer@
	push	esi
	call	_luaL_error
	add	esp, 8
$LN9@dsl_SetTex:
; Line 100
	push	-2					; fffffffeH
	push	esi
	call	_lua_settop
; Line 822
	push	1
	push	esi
	call	_lua_tonumber
	fstp	DWORD PTR tv288[esp+28]
	cvttss2si eax, DWORD PTR tv288[esp+28]
	add	esp, 16					; 00000010H
	test	eax, eax
	je	SHORT $LN2@dsl_SetTex
; Line 485
	push	eax
	lea	eax, DWORD PTR [edi+52]
	push	eax
	call	_styleTextArgs
	add	esp, 8
	test	eax, eax
	je	SHORT $LN3@dsl_SetTex
; Line 824
	push	OFFSET ??_C@_07IHKKODPD@Georgia@
	push	edi
	push	esi
; Line 487
	mov	DWORD PTR [edi+48], 1
; Line 824
	call	_getLuaCacheFont
	add	esp, 12					; 0000000cH
; Line 826
	jmp	$LN25@dsl_SetTex
$LN3@dsl_SetTex:
; Line 828
	push	OFFSET ??_C@_0BI@EFDLLCHF@unknown?5format?5number?3?5@
	push	esi
	call	_lua_pushstring
; Line 829
	push	1
	push	esi
	call	_lua_pushvalue
; Line 830
	push	2
	push	esi
	call	_lua_concat
; Line 831
	push	-1
	push	esi
	call	_lua_tostring
	push	eax
	push	1
	push	esi
	call	_luaL_argerror
	add	esp, 44					; 0000002cH
$LN2@dsl_SetTex:
; Line 833
	push	1
	push	esi
	call	_lua_type
	add	esp, 8
	cmp	eax, 5
	je	SHORT $LN4@dsl_SetTex
; Line 834
	push	3
	push	esi
	call	_lua_typename
	push	eax
	push	OFFSET ??_C@_0BI@DAFDIFPA@?$CFs?5or?5text?5format?5table@
	push	esi
	call	_lua_pushfstring
	push	eax
	push	1
	push	esi
	call	_luaL_typerror
	add	esp, 32					; 00000020H
$LN4@dsl_SetTex:
; Line 835
	push	ebx
	push	1
	push	1
	push	esi
	call	_lua_rawgeti
; Line 836
	push	2
	push	1
	push	esi
	call	_lua_rawgeti
; Line 837
	push	-1
	push	esi
	call	_lua_touserdata
	mov	ebx, eax
	add	esp, 32					; 00000020H
; Line 838
	test	ebx, ebx
	je	SHORT $LN6@dsl_SetTex
	push	-2					; fffffffeH
	push	esi
	call	_lua_isuserdata
	add	esp, 8
	test	eax, eax
	jne	SHORT $LN5@dsl_SetTex
$LN6@dsl_SetTex:
; Line 839
	push	OFFSET ??_C@_0BG@OMCIBOM@bad?5text?5format?5table@
	push	1
	push	esi
	call	_luaL_typerror
	add	esp, 12					; 0000000cH
$LN5@dsl_SetTex:
; Line 491
	movups	xmm0, XMMWORD PTR [ebx]
; Line 841
	push	-2					; fffffffeH
	push	esi
; Line 491
	movups	XMMWORD PTR [edi+52], xmm0
	movups	xmm0, XMMWORD PTR [ebx+16]
	movups	XMMWORD PTR [edi+68], xmm0
	movups	xmm0, XMMWORD PTR [ebx+32]
; Line 492
	mov	DWORD PTR [edi+48], 1
	movups	XMMWORD PTR [edi+84], xmm0
; Line 841
	call	_lua_settop
	add	esp, 8
; Line 439
	pop	ebx
$LN25@dsl_SetTex:
; Line 844
	mov	eax, DWORD PTR [edi+40]
	cmp	eax, -2					; fffffffeH
	je	SHORT $LN20@dsl_SetTex
	push	eax
	push	-10000					; ffffd8f0H
	push	esi
	call	_luaL_unref
	add	esp, 12					; 0000000cH
$LN20@dsl_SetTex:
	push	-10000					; ffffd8f0H
	push	esi
	call	_luaL_ref
	add	esp, 8
	mov	DWORD PTR [edi+40], eax
	xor	eax, eax
	pop	edi
	pop	esi
	pop	ecx
	ret	0
_dsl_SetTextFormatting ENDP
_TEXT	ENDS
; Function compile flags: /Ogtpy
;	COMDAT _dsl_PopTextFormatting
_TEXT	SEGMENT
_lua$ = 8						; size = 4
_dsl_PopTextFormatting PROC				; COMDAT
; File C:\Program Files (x86)\Steam\steamapps\common\Bully Scholarship Edition\_derpy_script_loader\src\client\library\lib_render.c
; Line 805
	push	esi
; Line 808
	mov	esi, DWORD PTR _lua$[esp]
	push	edi
	push	esi
	call	_lua_newtable
; Line 95
	push	OFFSET ??_C@_0L@LNMHOCME@dsl_render@
	push	esi
	call	_lua_pushstring
; Line 96
	push	-10000					; ffffd8f0H
	push	esi
	call	_lua_rawget
; Line 97
	push	-1
	push	esi
	call	_lua_touserdata
	mov	edi, eax
	add	esp, 28					; 0000001cH
; Line 98
	cmp	DWORD PTR [edi], 0
	jne	SHORT $LN4@dsl_PopTex
; Line 99
	push	OFFSET ??_C@_0BB@ELFFKIAH@invalid?5renderer@
	push	esi
	call	_luaL_error
	add	esp, 8
$LN4@dsl_PopTex:
; Line 100
	push	-2					; fffffffeH
	push	esi
	call	_lua_settop
; Line 433
	mov	eax, DWORD PTR [edi+40]
; Line 100
	add	esp, 8
; Line 433
	cmp	eax, -2					; fffffffeH
	jne	SHORT $LN7@dsl_PopTex
; Line 434
	push	OFFSET ??_C@_05MPFIAJAP@Arial@
	push	edi
	push	esi
	call	_getLuaCacheFont
	add	esp, 12					; 0000000cH
	jmp	SHORT $LN6@dsl_PopTex
$LN7@dsl_PopTex:
; Line 435
	push	eax
	push	-10000					; ffffd8f0H
	push	esi
	call	_lua_rawgeti
; Line 436
	push	-1
	push	esi
	call	_lua_touserdata
	add	esp, 20					; 00000014H
$LN6@dsl_PopTex:
	push	ebx
; Line 810
	push	1
	push	-2					; fffffffeH
	push	esi
	call	_lua_rawseti
	add	esp, 12					; 0000000cH
; Line 446
	lea	ebx, DWORD PTR [edi+52]
; Line 447
	cmp	DWORD PTR [edi+48], 0
	jne	SHORT $LN9@dsl_PopTex
; Line 449
	push	48					; 00000030H
	push	0
	push	ebx
	call	_memset
; Line 450
	mov	DWORD PTR [ebx], 2081			; 00000821H
	add	esp, 12					; 0000000cH
; Line 451
	mov	DWORD PTR [ebx+12], 1056964608		; 3f000000H
; Line 452
	mov	DWORD PTR [ebx+16], 1044885012		; 3e47ae14H
; Line 453
	mov	DWORD PTR [ebx+20], 1020054733		; 3ccccccdH
; Line 454
	mov	DWORD PTR [ebx+32], -8443607		; ff7f2929H
; Line 455
	mov	DWORD PTR [edi+48], 1
$LN9@dsl_PopTex:
; Line 811
	push	48					; 00000030H
	push	esi
	call	_lua_newuserdata
	movups	xmm0, XMMWORD PTR [ebx]
; Line 812
	push	2
	push	-2					; fffffffeH
	movups	XMMWORD PTR [eax], xmm0
	push	esi
	movups	xmm0, XMMWORD PTR [ebx+16]
	movups	XMMWORD PTR [eax+16], xmm0
	movups	xmm0, XMMWORD PTR [ebx+32]
	movups	XMMWORD PTR [eax+32], xmm0
	call	_lua_rawseti
; Line 495
	mov	eax, DWORD PTR [edi+40]
; Line 812
	add	esp, 20					; 00000014H
; Line 495
	pop	ebx
	cmp	eax, -2					; fffffffeH
	je	SHORT $LN15@dsl_PopTex
; Line 496
	push	eax
	push	-10000					; ffffd8f0H
	push	esi
	call	_luaL_unref
	add	esp, 12					; 0000000cH
; Line 497
	mov	DWORD PTR [edi+40], -2			; fffffffeH
$LN15@dsl_PopTex:
; Line 815
	mov	DWORD PTR [edi+48], 0
	mov	eax, 1
	pop	edi
	pop	esi
	ret	0
_dsl_PopTextFormatting ENDP
_TEXT	ENDS
; Function compile flags: /Ogtpy
;	COMDAT _dsl_GetTextFormatting
_TEXT	SEGMENT
_lua$ = 8						; size = 4
_dsl_GetTextFormatting PROC				; COMDAT
; File C:\Program Files (x86)\Steam\steamapps\common\Bully Scholarship Edition\_derpy_script_loader\src\client\library\lib_render.c
; Line 795
	push	ebx
	push	esi
; Line 798
	mov	esi, DWORD PTR _lua$[esp+4]
	push	edi
	push	esi
	call	_lua_newtable
; Line 95
	push	OFFSET ??_C@_0L@LNMHOCME@dsl_render@
	push	esi
	call	_lua_pushstring
; Line 96
	push	-10000					; ffffd8f0H
	push	esi
	call	_lua_rawget
; Line 97
	push	-1
	push	esi
	call	_lua_touserdata
	mov	ebx, eax
	add	esp, 28					; 0000001cH
; Line 98
	cmp	DWORD PTR [ebx], 0
	jne	SHORT $LN4@dsl_GetTex
; Line 99
	push	OFFSET ??_C@_0BB@ELFFKIAH@invalid?5renderer@
	push	esi
	call	_luaL_error
	add	esp, 8
$LN4@dsl_GetTex:
; Line 100
	push	-2					; fffffffeH
	push	esi
	call	_lua_settop
; Line 433
	mov	eax, DWORD PTR [ebx+40]
; Line 100
	add	esp, 8
; Line 433
	cmp	eax, -2					; fffffffeH
	jne	SHORT $LN7@dsl_GetTex
; Line 434
	push	OFFSET ??_C@_05MPFIAJAP@Arial@
	push	ebx
	push	esi
	call	_getLuaCacheFont
	add	esp, 12					; 0000000cH
	jmp	SHORT $LN6@dsl_GetTex
$LN7@dsl_GetTex:
; Line 435
	push	eax
	push	-10000					; ffffd8f0H
	push	esi
	call	_lua_rawgeti
; Line 436
	push	-1
	push	esi
	call	_lua_touserdata
	add	esp, 20					; 00000014H
$LN6@dsl_GetTex:
; Line 800
	push	1
	push	-2					; fffffffeH
	push	esi
	call	_lua_rawseti
	add	esp, 12					; 0000000cH
; Line 446
	lea	edi, DWORD PTR [ebx+52]
; Line 447
	cmp	DWORD PTR [ebx+48], 0
	jne	SHORT $LN9@dsl_GetTex
; Line 449
	push	48					; 00000030H
	push	0
	push	edi
	call	_memset
; Line 450
	mov	DWORD PTR [edi], 2081			; 00000821H
	add	esp, 12					; 0000000cH
; Line 451
	mov	DWORD PTR [edi+12], 1056964608		; 3f000000H
; Line 452
	mov	DWORD PTR [edi+16], 1044885012		; 3e47ae14H
; Line 453
	mov	DWORD PTR [edi+20], 1020054733		; 3ccccccdH
; Line 454
	mov	DWORD PTR [edi+32], -8443607		; ff7f2929H
; Line 455
	mov	DWORD PTR [ebx+48], 1
$LN9@dsl_GetTex:
; Line 801
	push	48					; 00000030H
	push	esi
	call	_lua_newuserdata
	movups	xmm0, XMMWORD PTR [edi]
; Line 802
	push	2
	push	-2					; fffffffeH
	movups	XMMWORD PTR [eax], xmm0
	push	esi
	movups	xmm0, XMMWORD PTR [edi+16]
	movups	XMMWORD PTR [eax+16], xmm0
	movups	xmm0, XMMWORD PTR [edi+32]
	movups	XMMWORD PTR [eax+32], xmm0
	call	_lua_rawseti
	add	esp, 20					; 00000014H
; Line 803
	mov	eax, 1
	pop	edi
	pop	esi
	pop	ebx
; Line 804
	ret	0
_dsl_GetTextFormatting ENDP
_TEXT	ENDS
; Function compile flags: /Ogtpy
;	COMDAT _dsl_SetTextRedrawing
_TEXT	SEGMENT
_lua$ = 8						; size = 4
_dsl_SetTextRedrawing PROC				; COMDAT
; File C:\Program Files (x86)\Steam\steamapps\common\Bully Scholarship Edition\_derpy_script_loader\src\client\library\lib_render.c
; Line 753
	push	ebx
	push	esi
; Line 756
	mov	esi, DWORD PTR _lua$[esp+4]
	push	edi
	push	4
	push	1
	push	esi
	call	_luaL_checktype
; Line 95
	push	OFFSET ??_C@_0L@LNMHOCME@dsl_render@
	push	esi
	call	_lua_pushstring
; Line 96
	push	-10000					; ffffd8f0H
	push	esi
	call	_lua_rawget
; Line 97
	push	-1
	push	esi
	call	_lua_touserdata
	mov	ebx, eax
	add	esp, 36					; 00000024H
; Line 98
	cmp	DWORD PTR [ebx], 0
	jne	SHORT $LN10@dsl_SetTex
; Line 99
	push	OFFSET ??_C@_0BB@ELFFKIAH@invalid?5renderer@
	push	esi
	call	_luaL_error
	add	esp, 8
$LN10@dsl_SetTex:
; Line 100
	push	-2					; fffffffeH
	push	esi
	call	_lua_settop
	add	esp, 8
; Line 446
	lea	edi, DWORD PTR [ebx+52]
; Line 447
	cmp	DWORD PTR [ebx+48], 0
	jne	SHORT $LN15@dsl_SetTex
; Line 449
	push	48					; 00000030H
	push	0
	push	edi
	call	_memset
; Line 450
	mov	DWORD PTR [edi], 2081			; 00000821H
	add	esp, 12					; 0000000cH
; Line 451
	mov	DWORD PTR [edi+12], 1056964608		; 3f000000H
; Line 452
	mov	DWORD PTR [edi+16], 1044885012		; 3e47ae14H
; Line 453
	mov	DWORD PTR [edi+20], 1020054733		; 3ccccccdH
; Line 454
	mov	DWORD PTR [edi+32], -8443607		; ff7f2929H
; Line 455
	mov	DWORD PTR [ebx+48], 1
$LN15@dsl_SetTex:
; Line 758
	push	1
	push	esi
	call	_lua_tostring
	movsx	eax, BYTE PTR [eax]
	push	eax
	call	_toupper
	add	esp, 12					; 0000000cH
	cmp	eax, 65					; 00000041H
	je	SHORT $LN5@dsl_SetTex
	cmp	eax, 78					; 0000004eH
	je	SHORT $LN6@dsl_SetTex
	cmp	eax, 82					; 00000052H
	je	SHORT $LN4@dsl_SetTex
; Line 771
	push	OFFSET ??_C@_0BJ@KDGDBNLE@unknown?5redrawing?5mode?3?5@
	push	esi
	call	_lua_pushstring
; Line 772
	push	1
	push	esi
	call	_lua_pushvalue
; Line 773
	push	2
	push	esi
	call	_lua_concat
; Line 774
	push	-1
	push	esi
	call	_lua_tostring
	push	eax
	push	1
	push	esi
	call	_luaL_argerror
	add	esp, 44					; 0000002cH
; Line 777
	xor	eax, eax
	pop	edi
	pop	esi
	pop	ebx
	ret	0
$LN4@dsl_SetTex:
; Line 760
	mov	eax, DWORD PTR [edi]
	and	eax, -1025				; fffffbffH
; Line 761
	or	eax, 2048				; 00000800H
; Line 777
	mov	DWORD PTR [edi], eax
	xor	eax, eax
	pop	edi
	pop	esi
	pop	ebx
	ret	0
$LN6@dsl_SetTex:
; Line 768
	and	DWORD PTR [edi], -3073			; fffff3ffH
; Line 777
	xor	eax, eax
	pop	edi
	pop	esi
	pop	ebx
	ret	0
$LN5@dsl_SetTex:
; Line 764
	mov	eax, DWORD PTR [edi]
	and	eax, -2049				; fffff7ffH
; Line 765
	or	eax, 1024				; 00000400H
; Line 777
	mov	DWORD PTR [edi], eax
	xor	eax, eax
	pop	edi
	pop	esi
	pop	ebx
	ret	0
_dsl_SetTextRedrawing ENDP
_TEXT	ENDS
; Function compile flags: /Ogtpy
;	COMDAT _dsl_SetTextWrapping
_TEXT	SEGMENT
_wrap$ = -4						; size = 4
_lua$ = 8						; size = 4
_dsl_SetTextWrapping PROC				; COMDAT
; File C:\Program Files (x86)\Steam\steamapps\common\Bully Scholarship Edition\_derpy_script_loader\src\client\library\lib_render.c
; Line 731
	push	ecx
	push	ebx
	push	esi
	push	edi
; Line 95
	mov	edi, DWORD PTR _lua$[esp+12]
	push	OFFSET ??_C@_0L@LNMHOCME@dsl_render@
	push	edi
	call	_lua_pushstring
; Line 96
	push	-10000					; ffffd8f0H
	push	edi
	call	_lua_rawget
; Line 97
	push	-1
	push	edi
	call	_lua_touserdata
	mov	ebx, eax
	add	esp, 24					; 00000018H
; Line 98
	cmp	DWORD PTR [ebx], 0
	jne	SHORT $LN11@dsl_SetTex
; Line 99
	push	OFFSET ??_C@_0BB@ELFFKIAH@invalid?5renderer@
	push	edi
	call	_luaL_error
	add	esp, 8
$LN11@dsl_SetTex:
; Line 100
	push	-2					; fffffffeH
	push	edi
	call	_lua_settop
	add	esp, 8
; Line 446
	lea	esi, DWORD PTR [ebx+52]
; Line 447
	cmp	DWORD PTR [ebx+48], 0
	jne	SHORT $LN16@dsl_SetTex
; Line 449
	push	48					; 00000030H
	push	0
	push	esi
	call	_memset
; Line 450
	mov	DWORD PTR [esi], 2081			; 00000821H
	add	esp, 12					; 0000000cH
; Line 451
	mov	DWORD PTR [esi+12], 1056964608		; 3f000000H
; Line 452
	mov	DWORD PTR [esi+16], 1044885012		; 3e47ae14H
; Line 453
	mov	DWORD PTR [esi+20], 1020054733		; 3ccccccdH
; Line 454
	mov	DWORD PTR [esi+32], -8443607		; ff7f2929H
; Line 455
	mov	DWORD PTR [ebx+48], 1
$LN16@dsl_SetTex:
; Line 736
	push	1
	push	edi
	call	_lua_tonumber
	fstp	DWORD PTR _wrap$[esp+24]
	movss	xmm1, DWORD PTR _wrap$[esp+24]
	add	esp, 8
	xorps	xmm0, xmm0
	ucomiss	xmm1, xmm0
	lahf
	test	ah, 68					; 00000044H
	jnp	SHORT $LN2@dsl_SetTex
; Line 737
	comiss	xmm0, xmm1
	jbe	SHORT $LN4@dsl_SetTex
; Line 738
	push	OFFSET ??_C@_0BO@PAJPJHHM@negative?5wrapping?5not?5allowed@
	push	1
	push	edi
	call	_luaL_argerror
	movss	xmm0, DWORD PTR _wrap$[esp+28]
	add	esp, 12					; 0000000cH
	jmp	SHORT $LN8@dsl_SetTex
$LN4@dsl_SetTex:
; Line 740
	movss	xmm0, DWORD PTR __real@3c23d70a
	comiss	xmm0, xmm1
	ja	SHORT $LN8@dsl_SetTex
; Line 744
	movss	xmm0, DWORD PTR __real@3f800000
	minss	xmm0, xmm1
$LN8@dsl_SetTex:
; Line 746
	mov	eax, DWORD PTR [esi]
	and	eax, -257				; fffffeffH
; Line 748
	movss	DWORD PTR [esi+24], xmm0
	or	eax, 16					; 00000010H
	pop	edi
	mov	DWORD PTR [esi], eax
; Line 752
	xor	eax, eax
	pop	esi
	pop	ebx
	pop	ecx
	ret	0
$LN2@dsl_SetTex:
; Line 750
	and	DWORD PTR [esi], -17			; ffffffefH
; Line 752
	xor	eax, eax
	pop	edi
	pop	esi
	pop	ebx
	pop	ecx
	ret	0
_dsl_SetTextWrapping ENDP
_TEXT	ENDS
; Function compile flags: /Ogtpy
;	COMDAT _dsl_SetTextClipping
_TEXT	SEGMENT
_clip$ = -4						; size = 4
_lua$ = 8						; size = 4
_dsl_SetTextClipping PROC				; COMDAT
; File C:\Program Files (x86)\Steam\steamapps\common\Bully Scholarship Edition\_derpy_script_loader\src\client\library\lib_render.c
; Line 709
	push	ecx
	push	ebx
	push	esi
	push	edi
; Line 95
	mov	edi, DWORD PTR _lua$[esp+12]
	push	OFFSET ??_C@_0L@LNMHOCME@dsl_render@
	push	edi
	call	_lua_pushstring
; Line 96
	push	-10000					; ffffd8f0H
	push	edi
	call	_lua_rawget
; Line 97
	push	-1
	push	edi
	call	_lua_touserdata
	mov	ebx, eax
	add	esp, 24					; 00000018H
; Line 98
	cmp	DWORD PTR [ebx], 0
	jne	SHORT $LN10@dsl_SetTex
; Line 99
	push	OFFSET ??_C@_0BB@ELFFKIAH@invalid?5renderer@
	push	edi
	call	_luaL_error
	add	esp, 8
$LN10@dsl_SetTex:
; Line 100
	push	-2					; fffffffeH
	push	edi
	call	_lua_settop
	add	esp, 8
; Line 446
	lea	esi, DWORD PTR [ebx+52]
; Line 447
	cmp	DWORD PTR [ebx+48], 0
	jne	SHORT $LN15@dsl_SetTex
; Line 449
	push	48					; 00000030H
	push	0
	push	esi
	call	_memset
; Line 450
	mov	DWORD PTR [esi], 2081			; 00000821H
	add	esp, 12					; 0000000cH
; Line 451
	mov	DWORD PTR [esi+12], 1056964608		; 3f000000H
; Line 452
	mov	DWORD PTR [esi+16], 1044885012		; 3e47ae14H
; Line 453
	mov	DWORD PTR [esi+20], 1020054733		; 3ccccccdH
; Line 454
	mov	DWORD PTR [esi+32], -8443607		; ff7f2929H
; Line 455
	mov	DWORD PTR [ebx+48], 1
$LN15@dsl_SetTex:
; Line 714
	push	1
	push	edi
	call	_lua_tonumber
	fstp	DWORD PTR _clip$[esp+24]
	movss	xmm1, DWORD PTR _clip$[esp+24]
	add	esp, 8
	xorps	xmm0, xmm0
	ucomiss	xmm1, xmm0
	lahf
	test	ah, 68					; 00000044H
	jnp	SHORT $LN2@dsl_SetTex
; Line 715
	comiss	xmm0, xmm1
	jbe	SHORT $LN4@dsl_SetTex
; Line 716
	push	OFFSET ??_C@_0BO@FJBNHMOM@negative?5clipping?5not?5allowed@
	push	1
	push	edi
	call	_luaL_argerror
	movss	xmm1, DWORD PTR _clip$[esp+28]
	add	esp, 12					; 0000000cH
$LN4@dsl_SetTex:
; Line 717
	mov	eax, DWORD PTR [esi]
	and	eax, -17				; ffffffefH
; Line 719
	movss	DWORD PTR [esi+24], xmm1
	or	eax, 256				; 00000100H
	mov	DWORD PTR [esi], eax
; Line 720
	jmp	SHORT $LN3@dsl_SetTex
$LN2@dsl_SetTex:
; Line 721
	and	DWORD PTR [esi], -257			; fffffeffH
$LN3@dsl_SetTex:
; Line 722
	push	2
	push	edi
	call	_lua_tonumber
	fstp	DWORD PTR _clip$[esp+24]
	movss	xmm1, DWORD PTR _clip$[esp+24]
	add	esp, 8
	xorps	xmm0, xmm0
	ucomiss	xmm1, xmm0
	lahf
	test	ah, 68					; 00000044H
	jnp	SHORT $LN5@dsl_SetTex
; Line 723
	comiss	xmm0, xmm1
	jbe	SHORT $LN7@dsl_SetTex
; Line 724
	push	OFFSET ??_C@_0BO@FJBNHMOM@negative?5clipping?5not?5allowed@
	push	1
	push	edi
	call	_luaL_argerror
	movss	xmm1, DWORD PTR _clip$[esp+28]
	add	esp, 12					; 0000000cH
$LN7@dsl_SetTex:
; Line 725
	or	DWORD PTR [esi], 512			; 00000200H
; Line 730
	xor	eax, eax
	pop	edi
	movss	DWORD PTR [esi+28], xmm1
	pop	esi
	pop	ebx
	pop	ecx
	ret	0
$LN5@dsl_SetTex:
; Line 728
	and	DWORD PTR [esi], -513			; fffffdffH
; Line 730
	xor	eax, eax
	pop	edi
	pop	esi
	pop	ebx
	pop	ecx
	ret	0
_dsl_SetTextClipping ENDP
_TEXT	ENDS
; Function compile flags: /Ogtpy
;	COMDAT _dsl_SetTextItalic
_TEXT	SEGMENT
_lua$ = 8						; size = 4
_dsl_SetTextItalic PROC					; COMDAT
; File C:\Program Files (x86)\Steam\steamapps\common\Bully Scholarship Edition\_derpy_script_loader\src\client\library\lib_render.c
; Line 702
	push	esi
; Line 703
	mov	esi, DWORD PTR _lua$[esp]
	push	1
	push	esi
	call	_lua_type
	add	esp, 8
	cmp	eax, 1
	jne	SHORT $LN2@dsl_SetTex
	push	eax
	push	esi
	call	_lua_toboolean
	add	esp, 8
	test	eax, eax
	jne	SHORT $LN2@dsl_SetTex
; Line 704
	push	esi
	call	_getLuaRender
	push	eax
	call	_getLuaTextArgs
	add	esp, 8
	and	DWORD PTR [eax], -65537			; fffeffffH
; Line 708
	xor	eax, eax
	pop	esi
	ret	0
$LN2@dsl_SetTex:
	push	edi
; Line 95
	push	OFFSET ??_C@_0L@LNMHOCME@dsl_render@
	push	esi
	call	_lua_pushstring
; Line 96
	push	-10000					; ffffd8f0H
	push	esi
	call	_lua_rawget
; Line 97
	push	-1
	push	esi
	call	_lua_touserdata
	mov	edi, eax
	add	esp, 24					; 00000018H
; Line 98
	cmp	DWORD PTR [edi], 0
	jne	SHORT $LN6@dsl_SetTex
; Line 99
	push	OFFSET ??_C@_0BB@ELFFKIAH@invalid?5renderer@
	push	esi
	call	_luaL_error
	add	esp, 8
$LN6@dsl_SetTex:
; Line 100
	push	-2					; fffffffeH
	push	esi
	call	_lua_settop
	add	esp, 8
; Line 446
	lea	esi, DWORD PTR [edi+52]
; Line 447
	cmp	DWORD PTR [edi+48], 0
	jne	SHORT $LN11@dsl_SetTex
; Line 449
	push	48					; 00000030H
	push	0
	push	esi
	call	_memset
	add	esp, 12					; 0000000cH
; Line 451
	mov	DWORD PTR [esi+12], 1056964608		; 3f000000H
; Line 452
	mov	DWORD PTR [esi+16], 1044885012		; 3e47ae14H
; Line 455
	mov	eax, 2081				; 00000821H
	mov	DWORD PTR [esi+20], 1020054733		; 3ccccccdH
; Line 706
	or	eax, 65536				; 00010000H
; Line 454
	mov	DWORD PTR [esi+32], -8443607		; ff7f2929H
; Line 455
	mov	DWORD PTR [edi+48], 1
; Line 706
	mov	DWORD PTR [esi], eax
; Line 708
	xor	eax, eax
	pop	edi
	pop	esi
	ret	0
$LN11@dsl_SetTex:
; Line 455
	mov	eax, DWORD PTR [esi]
; Line 706
	or	eax, 65536				; 00010000H
	mov	DWORD PTR [esi], eax
; Line 708
	xor	eax, eax
	pop	edi
	pop	esi
	ret	0
_dsl_SetTextItalic ENDP
_TEXT	ENDS
; Function compile flags: /Ogtpy
;	COMDAT _dsl_SetTextBlack
_TEXT	SEGMENT
_lua$ = 8						; size = 4
_dsl_SetTextBlack PROC					; COMDAT
; File C:\Program Files (x86)\Steam\steamapps\common\Bully Scholarship Edition\_derpy_script_loader\src\client\library\lib_render.c
; Line 695
	push	esi
; Line 696
	mov	esi, DWORD PTR _lua$[esp]
	push	1
	push	esi
	call	_lua_type
	add	esp, 8
	cmp	eax, 1
	jne	SHORT $LN2@dsl_SetTex
	push	eax
	push	esi
	call	_lua_toboolean
	add	esp, 8
	test	eax, eax
	jne	SHORT $LN2@dsl_SetTex
; Line 697
	push	esi
	call	_getLuaRender
	push	eax
	call	_getLuaTextArgs
	add	esp, 8
	and	DWORD PTR [eax], -131073		; fffdffffH
; Line 701
	xor	eax, eax
	pop	esi
	ret	0
$LN2@dsl_SetTex:
	push	edi
; Line 95
	push	OFFSET ??_C@_0L@LNMHOCME@dsl_render@
	push	esi
	call	_lua_pushstring
; Line 96
	push	-10000					; ffffd8f0H
	push	esi
	call	_lua_rawget
; Line 97
	push	-1
	push	esi
	call	_lua_touserdata
	mov	edi, eax
	add	esp, 24					; 00000018H
; Line 98
	cmp	DWORD PTR [edi], 0
	jne	SHORT $LN6@dsl_SetTex
; Line 99
	push	OFFSET ??_C@_0BB@ELFFKIAH@invalid?5renderer@
	push	esi
	call	_luaL_error
	add	esp, 8
$LN6@dsl_SetTex:
; Line 100
	push	-2					; fffffffeH
	push	esi
	call	_lua_settop
	add	esp, 8
; Line 446
	lea	esi, DWORD PTR [edi+52]
; Line 447
	cmp	DWORD PTR [edi+48], 0
	jne	SHORT $LN11@dsl_SetTex
; Line 449
	push	48					; 00000030H
	push	0
	push	esi
	call	_memset
	add	esp, 12					; 0000000cH
; Line 451
	mov	DWORD PTR [esi+12], 1056964608		; 3f000000H
; Line 452
	mov	DWORD PTR [esi+16], 1044885012		; 3e47ae14H
; Line 455
	mov	eax, 2081				; 00000821H
	mov	DWORD PTR [esi+20], 1020054733		; 3ccccccdH
; Line 699
	or	eax, 131072				; 00020000H
; Line 454
	mov	DWORD PTR [esi+32], -8443607		; ff7f2929H
; Line 455
	mov	DWORD PTR [edi+48], 1
; Line 699
	mov	DWORD PTR [esi], eax
; Line 701
	xor	eax, eax
	pop	edi
	pop	esi
	ret	0
$LN11@dsl_SetTex:
; Line 455
	mov	eax, DWORD PTR [esi]
; Line 699
	or	eax, 131072				; 00020000H
	mov	DWORD PTR [esi], eax
; Line 701
	xor	eax, eax
	pop	edi
	pop	esi
	ret	0
_dsl_SetTextBlack ENDP
_TEXT	ENDS
; Function compile flags: /Ogtpy
;	COMDAT _dsl_SetTextBold
_TEXT	SEGMENT
_lua$ = 8						; size = 4
_dsl_SetTextBold PROC					; COMDAT
; File C:\Program Files (x86)\Steam\steamapps\common\Bully Scholarship Edition\_derpy_script_loader\src\client\library\lib_render.c
; Line 688
	push	esi
; Line 689
	mov	esi, DWORD PTR _lua$[esp]
	push	1
	push	esi
	call	_lua_type
	add	esp, 8
	cmp	eax, 1
	jne	SHORT $LN2@dsl_SetTex
	push	eax
	push	esi
	call	_lua_toboolean
	add	esp, 8
	test	eax, eax
	jne	SHORT $LN2@dsl_SetTex
; Line 690
	push	esi
	call	_getLuaRender
	push	eax
	call	_getLuaTextArgs
	add	esp, 8
	and	DWORD PTR [eax], -32769			; ffff7fffH
; Line 694
	xor	eax, eax
	pop	esi
	ret	0
$LN2@dsl_SetTex:
	push	edi
; Line 95
	push	OFFSET ??_C@_0L@LNMHOCME@dsl_render@
	push	esi
	call	_lua_pushstring
; Line 96
	push	-10000					; ffffd8f0H
	push	esi
	call	_lua_rawget
; Line 97
	push	-1
	push	esi
	call	_lua_touserdata
	mov	edi, eax
	add	esp, 24					; 00000018H
; Line 98
	cmp	DWORD PTR [edi], 0
	jne	SHORT $LN6@dsl_SetTex
; Line 99
	push	OFFSET ??_C@_0BB@ELFFKIAH@invalid?5renderer@
	push	esi
	call	_luaL_error
	add	esp, 8
$LN6@dsl_SetTex:
; Line 100
	push	-2					; fffffffeH
	push	esi
	call	_lua_settop
	add	esp, 8
; Line 446
	lea	esi, DWORD PTR [edi+52]
; Line 447
	cmp	DWORD PTR [edi+48], 0
	jne	SHORT $LN11@dsl_SetTex
; Line 449
	push	48					; 00000030H
	push	0
	push	esi
	call	_memset
	add	esp, 12					; 0000000cH
; Line 451
	mov	DWORD PTR [esi+12], 1056964608		; 3f000000H
; Line 452
	mov	DWORD PTR [esi+16], 1044885012		; 3e47ae14H
; Line 455
	mov	eax, 2081				; 00000821H
	mov	DWORD PTR [esi+20], 1020054733		; 3ccccccdH
; Line 692
	or	eax, 32768				; 00008000H
; Line 454
	mov	DWORD PTR [esi+32], -8443607		; ff7f2929H
; Line 455
	mov	DWORD PTR [edi+48], 1
; Line 692
	mov	DWORD PTR [esi], eax
; Line 694
	xor	eax, eax
	pop	edi
	pop	esi
	ret	0
$LN11@dsl_SetTex:
; Line 455
	mov	eax, DWORD PTR [esi]
; Line 692
	or	eax, 32768				; 00008000H
	mov	DWORD PTR [esi], eax
; Line 694
	xor	eax, eax
	pop	edi
	pop	esi
	ret	0
_dsl_SetTextBold ENDP
_TEXT	ENDS
; Function compile flags: /Ogtpy
;	COMDAT _dsl_SetTextOutline
_TEXT	SEGMENT
_lua$ = 8						; size = 4
_dsl_SetTextOutline PROC				; COMDAT
; File C:\Program Files (x86)\Steam\steamapps\common\Bully Scholarship Edition\_derpy_script_loader\src\client\library\lib_render.c
; Line 679
	push	ebx
	push	esi
	push	edi
; Line 95
	mov	edi, DWORD PTR _lua$[esp+8]
	push	OFFSET ??_C@_0L@LNMHOCME@dsl_render@
	push	edi
	call	_lua_pushstring
; Line 96
	push	-10000					; ffffd8f0H
	push	edi
	call	_lua_rawget
; Line 97
	push	-1
	push	edi
	call	_lua_touserdata
	mov	ebx, eax
	add	esp, 24					; 00000018H
; Line 98
	cmp	DWORD PTR [ebx], 0
	jne	SHORT $LN6@dsl_SetTex
; Line 99
	push	OFFSET ??_C@_0BB@ELFFKIAH@invalid?5renderer@
	push	edi
	call	_luaL_error
	add	esp, 8
$LN6@dsl_SetTex:
; Line 100
	push	-2					; fffffffeH
	push	edi
	call	_lua_settop
	add	esp, 8
; Line 446
	lea	esi, DWORD PTR [ebx+52]
; Line 447
	cmp	DWORD PTR [ebx+48], 0
	jne	SHORT $LN11@dsl_SetTex
; Line 449
	push	48					; 00000030H
	push	0
	push	esi
	call	_memset
; Line 451
	mov	DWORD PTR [esi+12], 1056964608		; 3f000000H
	add	esp, 12					; 0000000cH
; Line 452
	mov	DWORD PTR [esi+16], 1044885012		; 3e47ae14H
; Line 455
	mov	eax, 2081				; 00000821H
	mov	DWORD PTR [esi+20], 1020054733		; 3ccccccdH
	mov	DWORD PTR [esi+32], -8443607		; ff7f2929H
	mov	DWORD PTR [ebx+48], 1
	jmp	SHORT $LN8@dsl_SetTex
$LN11@dsl_SetTex:
	mov	eax, DWORD PTR [esi]
$LN8@dsl_SetTex:
; Line 683
	and	eax, -5					; fffffffbH
; Line 684
	or	eax, 8
; Line 685
	push	edi
	mov	DWORD PTR [esi], eax
	call	_lua_gettop
	add	esp, 4
	cmp	eax, 3
	jge	SHORT $LN3@dsl_SetTex
	pop	edi
	mov	DWORD PTR [esi+36], 0
; Line 687
	xor	eax, eax
	pop	esi
	pop	ebx
	ret	0
$LN3@dsl_SetTex:
; Line 685
	push	1
	push	edi
	call	_getLuaRgb
	add	esp, 8
	mov	DWORD PTR [esi+36], eax
; Line 687
	xor	eax, eax
	pop	edi
	pop	esi
	pop	ebx
	ret	0
_dsl_SetTextOutline ENDP
_TEXT	ENDS
; Function compile flags: /Ogtpy
;	COMDAT _dsl_SetTextShadow
_TEXT	SEGMENT
_lua$ = 8						; size = 4
_dsl_SetTextShadow PROC					; COMDAT
; File C:\Program Files (x86)\Steam\steamapps\common\Bully Scholarship Edition\_derpy_script_loader\src\client\library\lib_render.c
; Line 670
	push	ebx
	push	esi
	push	edi
; Line 95
	mov	edi, DWORD PTR _lua$[esp+8]
	push	OFFSET ??_C@_0L@LNMHOCME@dsl_render@
	push	edi
	call	_lua_pushstring
; Line 96
	push	-10000					; ffffd8f0H
	push	edi
	call	_lua_rawget
; Line 97
	push	-1
	push	edi
	call	_lua_touserdata
	mov	ebx, eax
	add	esp, 24					; 00000018H
; Line 98
	cmp	DWORD PTR [ebx], 0
	jne	SHORT $LN6@dsl_SetTex
; Line 99
	push	OFFSET ??_C@_0BB@ELFFKIAH@invalid?5renderer@
	push	edi
	call	_luaL_error
	add	esp, 8
$LN6@dsl_SetTex:
; Line 100
	push	-2					; fffffffeH
	push	edi
	call	_lua_settop
	add	esp, 8
; Line 446
	lea	esi, DWORD PTR [ebx+52]
; Line 447
	cmp	DWORD PTR [ebx+48], 0
	jne	SHORT $LN11@dsl_SetTex
; Line 449
	push	48					; 00000030H
	push	0
	push	esi
	call	_memset
; Line 451
	mov	DWORD PTR [esi+12], 1056964608		; 3f000000H
	add	esp, 12					; 0000000cH
; Line 452
	mov	DWORD PTR [esi+16], 1044885012		; 3e47ae14H
; Line 455
	mov	eax, 2081				; 00000821H
	mov	DWORD PTR [esi+20], 1020054733		; 3ccccccdH
	mov	DWORD PTR [esi+32], -8443607		; ff7f2929H
	mov	DWORD PTR [ebx+48], 1
	jmp	SHORT $LN8@dsl_SetTex
$LN11@dsl_SetTex:
	mov	eax, DWORD PTR [esi]
$LN8@dsl_SetTex:
; Line 674
	and	eax, -9					; fffffff7H
; Line 675
	or	eax, 4
; Line 676
	push	edi
	mov	DWORD PTR [esi], eax
	call	_lua_gettop
	add	esp, 4
	cmp	eax, 3
	jge	SHORT $LN3@dsl_SetTex
	pop	edi
	mov	DWORD PTR [esi+36], 0
; Line 678
	xor	eax, eax
	pop	esi
	pop	ebx
	ret	0
$LN3@dsl_SetTex:
; Line 676
	push	1
	push	edi
	call	_getLuaRgb
	add	esp, 8
	mov	DWORD PTR [esi+36], eax
; Line 678
	xor	eax, eax
	pop	edi
	pop	esi
	pop	ebx
	ret	0
_dsl_SetTextShadow ENDP
_TEXT	ENDS
; Function compile flags: /Ogtpy
;	COMDAT _dsl_SetTextColor
_TEXT	SEGMENT
_lua$ = 8						; size = 4
_dsl_SetTextColor PROC					; COMDAT
; File C:\Program Files (x86)\Steam\steamapps\common\Bully Scholarship Edition\_derpy_script_loader\src\client\library\lib_render.c
; Line 660
	push	ebx
	push	esi
	push	edi
; Line 663
	mov	edi, DWORD PTR _lua$[esp+8]
	mov	esi, 1
	npad	4
$LL4@dsl_SetTex:
; Line 664
	push	3
	push	esi
	push	edi
	call	_luaL_checktype
	inc	esi
	add	esp, 12					; 0000000cH
	cmp	esi, 3
	jle	SHORT $LL4@dsl_SetTex
; Line 665
	push	edi
	call	_lua_gettop
	add	esp, 4
	cmp	eax, 4
	jge	SHORT $LN5@dsl_SetTex
; Line 666
	push	ecx
	mov	DWORD PTR [esp], 1132396544		; 437f0000H
	push	edi
	call	_lua_pushnumber
	add	esp, 8
$LN5@dsl_SetTex:
; Line 95
	push	OFFSET ??_C@_0L@LNMHOCME@dsl_render@
	push	edi
	call	_lua_pushstring
; Line 96
	push	-10000					; ffffd8f0H
	push	edi
	call	_lua_rawget
; Line 97
	push	-1
	push	edi
	call	_lua_touserdata
	mov	ebx, eax
	add	esp, 24					; 00000018H
; Line 98
	cmp	DWORD PTR [ebx], 0
	jne	SHORT $LN8@dsl_SetTex
; Line 99
	push	OFFSET ??_C@_0BB@ELFFKIAH@invalid?5renderer@
	push	edi
	call	_luaL_error
	add	esp, 8
$LN8@dsl_SetTex:
; Line 100
	push	-2					; fffffffeH
	push	edi
	call	_lua_settop
	add	esp, 8
; Line 446
	lea	esi, DWORD PTR [ebx+52]
; Line 447
	cmp	DWORD PTR [ebx+48], 0
	jne	SHORT $LN10@dsl_SetTex
; Line 449
	push	48					; 00000030H
	push	0
	push	esi
	call	_memset
; Line 450
	mov	DWORD PTR [esi], 2081			; 00000821H
	add	esp, 12					; 0000000cH
; Line 451
	mov	DWORD PTR [esi+12], 1056964608		; 3f000000H
; Line 452
	mov	DWORD PTR [esi+16], 1044885012		; 3e47ae14H
; Line 453
	mov	DWORD PTR [esi+20], 1020054733		; 3ccccccdH
; Line 454
	mov	DWORD PTR [esi+32], -8443607		; ff7f2929H
; Line 455
	mov	DWORD PTR [ebx+48], 1
$LN10@dsl_SetTex:
; Line 667
	push	1
	push	edi
	call	_getLuaRgba
	add	esp, 8
	mov	DWORD PTR [esi+32], eax
; Line 668
	xor	eax, eax
	pop	edi
	pop	esi
	pop	ebx
; Line 669
	ret	0
_dsl_SetTextColor ENDP
_TEXT	ENDS
; Function compile flags: /Ogtpy
;	COMDAT _dsl_SetTextAlign
_TEXT	SEGMENT
_lua$ = 8						; size = 4
_dsl_SetTextAlign PROC					; COMDAT
; File C:\Program Files (x86)\Steam\steamapps\common\Bully Scholarship Edition\_derpy_script_loader\src\client\library\lib_render.c
; Line 614
	push	ebx
	push	esi
; Line 617
	mov	esi, DWORD PTR _lua$[esp+4]
	push	edi
	push	4
	push	1
	push	esi
	call	_luaL_checktype
; Line 95
	push	OFFSET ??_C@_0L@LNMHOCME@dsl_render@
	push	esi
	call	_lua_pushstring
; Line 96
	push	-10000					; ffffd8f0H
	push	esi
	call	_lua_rawget
; Line 97
	push	-1
	push	esi
	call	_lua_touserdata
	mov	ebx, eax
	add	esp, 36					; 00000024H
; Line 98
	cmp	DWORD PTR [ebx], 0
	jne	SHORT $LN17@dsl_SetTex
; Line 99
	push	OFFSET ??_C@_0BB@ELFFKIAH@invalid?5renderer@
	push	esi
	call	_luaL_error
	add	esp, 8
$LN17@dsl_SetTex:
; Line 100
	push	-2					; fffffffeH
	push	esi
	call	_lua_settop
	add	esp, 8
; Line 446
	lea	edi, DWORD PTR [ebx+52]
; Line 447
	cmp	DWORD PTR [ebx+48], 0
	jne	SHORT $LN22@dsl_SetTex
; Line 449
	push	48					; 00000030H
	push	0
	push	edi
	call	_memset
; Line 450
	mov	DWORD PTR [edi], 2081			; 00000821H
	add	esp, 12					; 0000000cH
; Line 451
	mov	DWORD PTR [edi+12], 1056964608		; 3f000000H
; Line 452
	mov	DWORD PTR [edi+16], 1044885012		; 3e47ae14H
; Line 453
	mov	DWORD PTR [edi+20], 1020054733		; 3ccccccdH
; Line 454
	mov	DWORD PTR [edi+32], -8443607		; ff7f2929H
; Line 455
	mov	DWORD PTR [ebx+48], 1
$LN22@dsl_SetTex:
; Line 619
	push	1
	push	esi
	call	_lua_tostring
	movsx	eax, BYTE PTR [eax]
	push	eax
	call	_toupper
	add	esp, 12					; 0000000cH
	cmp	eax, 67					; 00000043H
	je	SHORT $LN7@dsl_SetTex
	cmp	eax, 76					; 0000004cH
	je	SHORT $LN6@dsl_SetTex
	cmp	eax, 82					; 00000052H
	je	SHORT $LN8@dsl_SetTex
; Line 632
	push	OFFSET ??_C@_0BP@MEEICDCE@unknown?5horizontal?5alignment?3?5@
	push	esi
	call	_lua_pushstring
; Line 633
	push	1
	push	esi
	call	_lua_pushvalue
; Line 634
	push	2
	push	esi
	call	_lua_concat
; Line 635
	push	-1
	push	esi
	call	_lua_tostring
	push	eax
	push	1
	push	esi
	call	_luaL_argerror
	add	esp, 44					; 0000002cH
	jmp	SHORT $LN2@dsl_SetTex
$LN8@dsl_SetTex:
; Line 628
	mov	eax, DWORD PTR [edi]
	and	eax, -2					; fffffffeH
; Line 629
	or	eax, 2
; Line 630
	jmp	SHORT $LN24@dsl_SetTex
$LN6@dsl_SetTex:
; Line 621
	and	DWORD PTR [edi], -4			; fffffffcH
; Line 622
	jmp	SHORT $LN2@dsl_SetTex
$LN7@dsl_SetTex:
; Line 624
	mov	eax, DWORD PTR [edi]
	and	eax, -3					; fffffffdH
; Line 625
	or	eax, 1
$LN24@dsl_SetTex:
; Line 637
	mov	DWORD PTR [edi], eax
$LN2@dsl_SetTex:
	push	esi
	call	_lua_gettop
	add	esp, 4
	cmp	eax, 2
	jl	$LN23@dsl_SetTex
; Line 639
	push	4
	push	2
	push	esi
	call	_luaL_checktype
; Line 640
	push	2
	push	esi
	call	_lua_tostring
	movsx	eax, BYTE PTR [eax]
	push	eax
	call	_toupper
	add	esp, 24					; 00000018H
	sub	eax, 66					; 00000042H
	je	SHORT $LN13@dsl_SetTex
	sub	eax, 1
	je	SHORT $LN12@dsl_SetTex
	sub	eax, 17					; 00000011H
	je	SHORT $LN11@dsl_SetTex
; Line 653
	push	OFFSET ??_C@_0BN@OLJEILMP@unknown?5vertical?5alignment?3?5@
	push	esi
	call	_lua_pushstring
; Line 654
	push	1
	push	esi
	call	_lua_pushvalue
; Line 655
	push	2
	push	esi
	call	_lua_concat
; Line 656
	push	-1
	push	esi
	call	_lua_tostring
	push	eax
	push	1
	push	esi
	call	_luaL_argerror
	add	esp, 44					; 0000002cH
; Line 659
	xor	eax, eax
	pop	edi
	pop	esi
	pop	ebx
	ret	0
$LN11@dsl_SetTex:
; Line 642
	and	DWORD PTR [edi], -12289			; ffffcfffH
; Line 659
	xor	eax, eax
	pop	edi
	pop	esi
	pop	ebx
	ret	0
$LN12@dsl_SetTex:
; Line 645
	mov	eax, DWORD PTR [edi]
	and	eax, -4097				; ffffefffH
; Line 646
	or	eax, 8192				; 00002000H
; Line 659
	mov	DWORD PTR [edi], eax
	xor	eax, eax
	pop	edi
	pop	esi
	pop	ebx
	ret	0
$LN13@dsl_SetTex:
; Line 649
	mov	eax, DWORD PTR [edi]
	and	eax, -8193				; ffffdfffH
; Line 650
	or	eax, 4096				; 00001000H
; Line 659
	mov	DWORD PTR [edi], eax
$LN23@dsl_SetTex:
	pop	edi
	pop	esi
	xor	eax, eax
	pop	ebx
	ret	0
_dsl_SetTextAlign ENDP
_TEXT	ENDS
; Function compile flags: /Ogtpy
;	COMDAT _dsl_SetTextFont
_TEXT	SEGMENT
_lua$ = 8						; size = 4
_dsl_SetTextFont PROC					; COMDAT
; File C:\Program Files (x86)\Steam\steamapps\common\Bully Scholarship Edition\_derpy_script_loader\src\client\library\lib_render.c
; Line 600
	push	esi
; Line 95
	mov	esi, DWORD PTR _lua$[esp]
; Line 600
	push	edi
; Line 95
	push	OFFSET ??_C@_0L@LNMHOCME@dsl_render@
	push	esi
	call	_lua_pushstring
; Line 96
	push	-10000					; ffffd8f0H
	push	esi
	call	_lua_rawget
; Line 97
	push	-1
	push	esi
	call	_lua_touserdata
	mov	edi, eax
	add	esp, 24					; 00000018H
; Line 98
	cmp	DWORD PTR [edi], 0
	jne	SHORT $LN6@dsl_SetTex
; Line 99
	push	OFFSET ??_C@_0BB@ELFFKIAH@invalid?5renderer@
	push	esi
	call	_luaL_error
	add	esp, 8
$LN6@dsl_SetTex:
; Line 100
	push	-2					; fffffffeH
	push	esi
	call	_lua_settop
; Line 605
	push	1
	push	esi
	call	_lua_touserdata
	add	esp, 16					; 00000010H
; Line 606
	test	eax, eax
	jne	SHORT $LN2@dsl_SetTex
; Line 607
	push	1
	push	esi
	call	_lua_type
	add	esp, 8
	cmp	eax, 4
	je	SHORT $LN3@dsl_SetTex
; Line 608
	push	4
	push	esi
	call	_lua_typename
	push	eax
	push	OFFSET ??_C@_0L@PFIBJIPN@?$CFs?5or?5font@
	push	esi
	call	_lua_pushfstring
	push	eax
	push	1
	push	esi
	call	_luaL_typerror
	add	esp, 32					; 00000020H
$LN3@dsl_SetTex:
; Line 609
	push	1
	push	esi
	call	_lua_tostring
	push	eax
	push	edi
	push	esi
	call	_getLuaCacheFont
	add	esp, 20					; 00000014H
$LN2@dsl_SetTex:
; Line 439
	mov	eax, DWORD PTR [edi+40]
	cmp	eax, -2					; fffffffeH
	je	SHORT $LN9@dsl_SetTex
; Line 440
	push	eax
	push	-10000					; ffffd8f0H
	push	esi
	call	_luaL_unref
	add	esp, 12					; 0000000cH
$LN9@dsl_SetTex:
; Line 441
	push	-10000					; ffffd8f0H
	push	esi
	call	_luaL_ref
	add	esp, 8
	mov	DWORD PTR [edi+40], eax
; Line 612
	xor	eax, eax
	pop	edi
	pop	esi
; Line 613
	ret	0
_dsl_SetTextFont ENDP
_TEXT	ENDS
; Function compile flags: /Ogtpy
;	COMDAT _dsl_SetTextScale
_TEXT	SEGMENT
_size$2$ = -8						; size = 4
_size$ = -4						; size = 4
_lua$ = 8						; size = 4
_dsl_SetTextScale PROC					; COMDAT
; File C:\Program Files (x86)\Steam\steamapps\common\Bully Scholarship Edition\_derpy_script_loader\src\client\library\lib_render.c
; Line 587
	sub	esp, 8
	push	esi
; Line 590
	mov	esi, DWORD PTR _lua$[esp+8]
	push	edi
	push	1
	push	esi
	call	_luaL_checknumber
	fmul	DWORD PTR __real@3ccccccd
	xorps	xmm0, xmm0
	add	esp, 8
; Line 591
	movss	DWORD PTR _size$2$[esp+16], xmm0
	fstp	DWORD PTR _size$[esp+16]
	movss	xmm1, DWORD PTR _size$[esp+16]
	comiss	xmm0, xmm1
	ja	SHORT $LN4@dsl_SetTex
; Line 594
	movss	xmm0, DWORD PTR __real@40800000
	minss	xmm0, xmm1
	movss	DWORD PTR _size$2$[esp+16], xmm0
$LN4@dsl_SetTex:
; Line 95
	push	OFFSET ??_C@_0L@LNMHOCME@dsl_render@
	push	esi
	call	_lua_pushstring
; Line 96
	push	-10000					; ffffd8f0H
	push	esi
	call	_lua_rawget
; Line 97
	push	-1
	push	esi
	call	_lua_touserdata
	mov	edi, eax
	add	esp, 24					; 00000018H
; Line 98
	cmp	DWORD PTR [edi], 0
	jne	SHORT $LN7@dsl_SetTex
; Line 99
	push	OFFSET ??_C@_0BB@ELFFKIAH@invalid?5renderer@
	push	esi
	call	_luaL_error
	add	esp, 8
$LN7@dsl_SetTex:
; Line 100
	push	-2					; fffffffeH
	push	esi
	call	_lua_settop
	add	esp, 8
; Line 446
	lea	esi, DWORD PTR [edi+52]
; Line 447
	cmp	DWORD PTR [edi+48], 0
	jne	SHORT $LN9@dsl_SetTex
; Line 449
	push	48					; 00000030H
	push	0
	push	esi
	call	_memset
; Line 450
	mov	DWORD PTR [esi], 2081			; 00000821H
	add	esp, 12					; 0000000cH
; Line 451
	mov	DWORD PTR [esi+12], 1056964608		; 3f000000H
; Line 452
	mov	DWORD PTR [esi+16], 1044885012		; 3e47ae14H
; Line 454
	mov	DWORD PTR [esi+32], -8443607		; ff7f2929H
; Line 455
	mov	DWORD PTR [edi+48], 1
$LN9@dsl_SetTex:
; Line 597
	movss	xmm0, DWORD PTR _size$2$[esp+16]
; Line 598
	xor	eax, eax
	pop	edi
	movss	DWORD PTR [esi+20], xmm0
	pop	esi
; Line 599
	add	esp, 8
	ret	0
_dsl_SetTextScale ENDP
_TEXT	ENDS
; Function compile flags: /Ogtpy
;	COMDAT _dsl_SetTextHeight
_TEXT	SEGMENT
_size$2$ = -8						; size = 4
_size$ = -4						; size = 4
_lua$ = 8						; size = 4
_dsl_SetTextHeight PROC					; COMDAT
; File C:\Program Files (x86)\Steam\steamapps\common\Bully Scholarship Edition\_derpy_script_loader\src\client\library\lib_render.c
; Line 574
	sub	esp, 8
	push	esi
; Line 577
	mov	esi, DWORD PTR _lua$[esp+8]
	push	edi
	push	1
	push	esi
	call	_luaL_checknumber
	fstp	DWORD PTR _size$[esp+24]
; Line 578
	movss	xmm1, DWORD PTR _size$[esp+24]
	xorps	xmm0, xmm0
	add	esp, 8
	movss	DWORD PTR _size$2$[esp+16], xmm0
	comiss	xmm0, xmm1
	ja	SHORT $LN4@dsl_SetTex
; Line 581
	movss	xmm0, DWORD PTR __real@40800000
	minss	xmm0, xmm1
	movss	DWORD PTR _size$2$[esp+16], xmm0
$LN4@dsl_SetTex:
; Line 95
	push	OFFSET ??_C@_0L@LNMHOCME@dsl_render@
	push	esi
	call	_lua_pushstring
; Line 96
	push	-10000					; ffffd8f0H
	push	esi
	call	_lua_rawget
; Line 97
	push	-1
	push	esi
	call	_lua_touserdata
	mov	edi, eax
	add	esp, 24					; 00000018H
; Line 98
	cmp	DWORD PTR [edi], 0
	jne	SHORT $LN7@dsl_SetTex
; Line 99
	push	OFFSET ??_C@_0BB@ELFFKIAH@invalid?5renderer@
	push	esi
	call	_luaL_error
	add	esp, 8
$LN7@dsl_SetTex:
; Line 100
	push	-2					; fffffffeH
	push	esi
	call	_lua_settop
	add	esp, 8
; Line 446
	lea	esi, DWORD PTR [edi+52]
; Line 447
	cmp	DWORD PTR [edi+48], 0
	jne	SHORT $LN9@dsl_SetTex
; Line 449
	push	48					; 00000030H
	push	0
	push	esi
	call	_memset
; Line 450
	mov	DWORD PTR [esi], 2081			; 00000821H
	add	esp, 12					; 0000000cH
; Line 451
	mov	DWORD PTR [esi+12], 1056964608		; 3f000000H
; Line 452
	mov	DWORD PTR [esi+16], 1044885012		; 3e47ae14H
; Line 454
	mov	DWORD PTR [esi+32], -8443607		; ff7f2929H
; Line 455
	mov	DWORD PTR [edi+48], 1
$LN9@dsl_SetTex:
; Line 584
	movss	xmm0, DWORD PTR _size$2$[esp+16]
; Line 585
	xor	eax, eax
	pop	edi
	movss	DWORD PTR [esi+20], xmm0
	pop	esi
; Line 586
	add	esp, 8
	ret	0
_dsl_SetTextHeight ENDP
_TEXT	ENDS
; Function compile flags: /Ogtpy
;	COMDAT _dsl_SetTextPosition
_TEXT	SEGMENT
_lua$ = 8						; size = 4
_dsl_SetTextPosition PROC				; COMDAT
; File C:\Program Files (x86)\Steam\steamapps\common\Bully Scholarship Edition\_derpy_script_loader\src\client\library\lib_render.c
; Line 566
	push	ebx
	push	esi
	push	edi
; Line 95
	mov	edi, DWORD PTR _lua$[esp+8]
	push	OFFSET ??_C@_0L@LNMHOCME@dsl_render@
	push	edi
	call	_lua_pushstring
; Line 96
	push	-10000					; ffffd8f0H
	push	edi
	call	_lua_rawget
; Line 97
	push	-1
	push	edi
	call	_lua_touserdata
	mov	ebx, eax
	add	esp, 24					; 00000018H
; Line 98
	cmp	DWORD PTR [ebx], 0
	jne	SHORT $LN4@dsl_SetTex
; Line 99
	push	OFFSET ??_C@_0BB@ELFFKIAH@invalid?5renderer@
	push	edi
	call	_luaL_error
	add	esp, 8
$LN4@dsl_SetTex:
; Line 100
	push	-2					; fffffffeH
	push	edi
	call	_lua_settop
	add	esp, 8
; Line 446
	lea	esi, DWORD PTR [ebx+52]
; Line 447
	cmp	DWORD PTR [ebx+48], 0
	jne	SHORT $LN6@dsl_SetTex
; Line 449
	push	48					; 00000030H
	push	0
	push	esi
	call	_memset
; Line 450
	mov	DWORD PTR [esi], 2081			; 00000821H
	add	esp, 12					; 0000000cH
; Line 451
	mov	DWORD PTR [esi+12], 1056964608		; 3f000000H
; Line 452
	mov	DWORD PTR [esi+16], 1044885012		; 3e47ae14H
; Line 453
	mov	DWORD PTR [esi+20], 1020054733		; 3ccccccdH
; Line 454
	mov	DWORD PTR [esi+32], -8443607		; ff7f2929H
; Line 455
	mov	DWORD PTR [ebx+48], 1
$LN6@dsl_SetTex:
; Line 570
	push	1
	push	edi
	call	_luaL_checknumber
; Line 571
	push	2
	fstp	DWORD PTR [esi+12]
	push	edi
	call	_luaL_checknumber
	add	esp, 16					; 00000010H
; Line 572
	xor	eax, eax
	fstp	DWORD PTR [esi+16]
	pop	edi
	pop	esi
	pop	ebx
; Line 573
	ret	0
_dsl_SetTextPosition ENDP
_TEXT	ENDS
; Function compile flags: /Ogtpy
;	COMDAT _dsl_DiscardText
_TEXT	SEGMENT
_lua$ = 8						; size = 4
_dsl_DiscardText PROC					; COMDAT
; File C:\Program Files (x86)\Steam\steamapps\common\Bully Scholarship Edition\_derpy_script_loader\src\client\library\lib_render.c
; Line 562
	push	esi
; Line 95
	mov	esi, DWORD PTR _lua$[esp]
; Line 562
	push	edi
; Line 95
	push	OFFSET ??_C@_0L@LNMHOCME@dsl_render@
	push	esi
	call	_lua_pushstring
; Line 96
	push	-10000					; ffffd8f0H
	push	esi
	call	_lua_rawget
; Line 97
	push	-1
	push	esi
	call	_lua_touserdata
	mov	edi, eax
	add	esp, 24					; 00000018H
; Line 98
	cmp	DWORD PTR [edi], 0
	jne	SHORT $LN4@dsl_Discar
; Line 99
	push	OFFSET ??_C@_0BB@ELFFKIAH@invalid?5renderer@
	push	esi
	call	_luaL_error
	add	esp, 8
$LN4@dsl_Discar:
; Line 100
	push	-2					; fffffffeH
	push	esi
	call	_lua_settop
; Line 495
	mov	eax, DWORD PTR [edi+40]
; Line 100
	add	esp, 8
; Line 495
	cmp	eax, -2					; fffffffeH
	je	SHORT $LN9@dsl_Discar
; Line 496
	push	eax
	push	-10000					; ffffd8f0H
	push	esi
	call	_luaL_unref
	add	esp, 12					; 0000000cH
; Line 497
	mov	DWORD PTR [edi+40], -2			; fffffffeH
$LN9@dsl_Discar:
; Line 565
	xor	eax, eax
	mov	DWORD PTR [edi+48], eax
	pop	edi
	pop	esi
	ret	0
_dsl_DiscardText ENDP
_TEXT	ENDS
; Function compile flags: /Ogtpy
;	COMDAT _dsl_MeasureText
_TEXT	SEGMENT
_x$ = -8						; size = 4
_y$ = -4						; size = 4
_lua$ = 8						; size = 4
_dsl_MeasureText PROC					; COMDAT
; File C:\Program Files (x86)\Steam\steamapps\common\Bully Scholarship Edition\_derpy_script_loader\src\client\library\lib_render.c
; Line 543
	sub	esp, 8
	push	ebx
	push	esi
	push	edi
; Line 95
	mov	edi, DWORD PTR _lua$[esp+16]
	push	OFFSET ??_C@_0L@LNMHOCME@dsl_render@
	push	edi
	call	_lua_pushstring
; Line 96
	push	-10000					; ffffd8f0H
	push	edi
	call	_lua_rawget
; Line 97
	push	-1
	push	edi
	call	_lua_touserdata
	mov	ebx, eax
	add	esp, 24					; 00000018H
; Line 98
	cmp	DWORD PTR [ebx], 0
	jne	SHORT $LN5@dsl_Measur
; Line 99
	push	OFFSET ??_C@_0BB@ELFFKIAH@invalid?5renderer@
	push	edi
	call	_luaL_error
	add	esp, 8
$LN5@dsl_Measur:
; Line 100
	push	-2					; fffffffeH
	push	edi
	call	_lua_settop
	add	esp, 8
; Line 446
	lea	esi, DWORD PTR [ebx+52]
; Line 447
	cmp	DWORD PTR [ebx+48], 0
	jne	SHORT $LN13@dsl_Measur
; Line 449
	push	48					; 00000030H
	push	0
	push	esi
	call	_memset
; Line 450
	mov	DWORD PTR [esi], 2081			; 00000821H
	add	esp, 12					; 0000000cH
; Line 451
	mov	DWORD PTR [esi+12], 1056964608		; 3f000000H
; Line 452
	mov	DWORD PTR [esi+16], 1044885012		; 3e47ae14H
; Line 453
	mov	DWORD PTR [esi+20], 1020054733		; 3ccccccdH
; Line 454
	mov	DWORD PTR [esi+32], -8443607		; ff7f2929H
; Line 455
	mov	DWORD PTR [ebx+48], 1
$LN13@dsl_Measur:
; Line 550
	push	edi
	call	_getLuaString
; Line 551
	push	1
	push	edi
	mov	DWORD PTR [esi+4], eax
	call	_lua_strlen
; Line 552
	or	DWORD PTR [esi], 16384			; 00004000H
	add	esp, 12					; 0000000cH
	mov	DWORD PTR [esi+8], eax
; Line 433
	mov	eax, DWORD PTR [ebx+40]
	cmp	eax, -2					; fffffffeH
	jne	SHORT $LN11@dsl_Measur
; Line 434
	push	OFFSET ??_C@_05MPFIAJAP@Arial@
	push	ebx
	push	edi
	call	_getLuaCacheFont
	add	esp, 12					; 0000000cH
	jmp	SHORT $LN10@dsl_Measur
$LN11@dsl_Measur:
; Line 435
	push	eax
	push	-10000					; ffffd8f0H
	push	edi
	call	_lua_rawgeti
; Line 436
	push	-1
	push	edi
	call	_lua_touserdata
	add	esp, 20					; 00000014H
	mov	eax, DWORD PTR [eax+4]
$LN10@dsl_Measur:
; Line 553
	lea	ecx, DWORD PTR _y$[esp+20]
	push	ecx
	lea	ecx, DWORD PTR _x$[esp+24]
	push	ecx
	push	esi
	push	eax
	push	DWORD PTR [ebx]
	call	_drawRenderString
	add	esp, 20					; 00000014H
	test	eax, eax
	jne	SHORT $LN2@dsl_Measur
; Line 554
	and	DWORD PTR [esi], -16385			; ffffbfffH
; Line 555
	push	DWORD PTR [ebx]
	call	_getRenderErrorString
	push	eax
	push	edi
	call	_luaL_error
	add	esp, 12					; 0000000cH
$LN2@dsl_Measur:
; Line 557
	and	DWORD PTR [esi], -16385			; ffffbfffH
; Line 558
	movss	xmm0, DWORD PTR _x$[esp+20]
	push	ecx
	movss	DWORD PTR [esp], xmm0
	push	edi
	call	_lua_pushnumber
; Line 559
	movss	xmm0, DWORD PTR _y$[esp+28]
	add	esp, 4
	movss	DWORD PTR [esp], xmm0
	push	edi
	call	_lua_pushnumber
	add	esp, 8
; Line 560
	mov	eax, 2
	pop	edi
	pop	esi
	pop	ebx
; Line 561
	add	esp, 8
	ret	0
_dsl_MeasureText ENDP
_TEXT	ENDS
; Function compile flags: /Ogtpy
;	COMDAT _dsl_DrawText
_TEXT	SEGMENT
_font$1$ = -12						; size = 4
_x$ = -8						; size = 4
_y$ = -4						; size = 4
_lua$ = 8						; size = 4
_dsl_DrawText PROC					; COMDAT
; File C:\Program Files (x86)\Steam\steamapps\common\Bully Scholarship Edition\_derpy_script_loader\src\client\library\lib_render.c
; Line 508
	sub	esp, 12					; 0000000cH
	push	ebx
	push	esi
; Line 95
	mov	esi, DWORD PTR _lua$[esp+16]
	push	OFFSET ??_C@_0L@LNMHOCME@dsl_render@
	push	esi
	call	_lua_pushstring
; Line 96
	push	-10000					; ffffd8f0H
	push	esi
	call	_lua_rawget
; Line 97
	push	-1
	push	esi
	call	_lua_touserdata
	mov	ebx, eax
	add	esp, 24					; 00000018H
; Line 98
	cmp	DWORD PTR [ebx], 0
	jne	SHORT $LN11@dsl_DrawTe
; Line 99
	push	OFFSET ??_C@_0BB@ELFFKIAH@invalid?5renderer@
	push	esi
	call	_luaL_error
	add	esp, 8
$LN11@dsl_DrawTe:
	push	ebp
	push	edi
; Line 100
	push	-2					; fffffffeH
	push	esi
	call	_lua_settop
	add	esp, 8
; Line 516
	cmp	DWORD PTR [ebx+4], 0
	je	SHORT $LN2@dsl_DrawTe
; Line 517
	push	3
	push	esi
	call	_lua_touserdata
; Line 518
	push	1
	push	esi
	mov	edi, eax
	call	_lua_tostring
; Line 519
	push	2
	push	esi
	mov	DWORD PTR [edi+4], eax
	call	_lua_touserdata
	add	esp, 24					; 00000018H
; Line 520
	jmp	SHORT $LN22@dsl_DrawTe
$LN2@dsl_DrawTe:
; Line 447
	cmp	DWORD PTR [ebx+48], 0
	lea	edi, DWORD PTR [ebx+52]
	jne	SHORT $LN13@dsl_DrawTe
; Line 449
	push	48					; 00000030H
	push	0
	push	edi
	call	_memset
; Line 450
	mov	DWORD PTR [edi], 2081			; 00000821H
	add	esp, 12					; 0000000cH
; Line 451
	mov	DWORD PTR [edi+12], 1056964608		; 3f000000H
; Line 452
	mov	DWORD PTR [edi+16], 1044885012		; 3e47ae14H
; Line 453
	mov	DWORD PTR [edi+20], 1020054733		; 3ccccccdH
; Line 454
	mov	DWORD PTR [edi+32], -8443607		; ff7f2929H
; Line 455
	mov	DWORD PTR [ebx+48], 1
$LN13@dsl_DrawTe:
; Line 522
	push	esi
	call	_getLuaString
	mov	DWORD PTR [edi+4], eax
	add	esp, 4
; Line 433
	mov	eax, DWORD PTR [ebx+40]
	cmp	eax, -2					; fffffffeH
	jne	SHORT $LN17@dsl_DrawTe
; Line 434
	push	OFFSET ??_C@_05MPFIAJAP@Arial@
	push	ebx
	push	esi
	call	_getLuaCacheFont
	add	esp, 12					; 0000000cH
	jmp	SHORT $LN23@dsl_DrawTe
$LN17@dsl_DrawTe:
; Line 435
	push	eax
	push	-10000					; ffffd8f0H
	push	esi
	call	_lua_rawgeti
; Line 436
	push	-1
	push	esi
	call	_lua_touserdata
	add	esp, 20					; 00000014H
$LN22@dsl_DrawTe:
; Line 525
	mov	eax, DWORD PTR [eax+4]
$LN23@dsl_DrawTe:
	push	1
	push	esi
	mov	DWORD PTR _font$1$[esp+36], eax
	call	_lua_strlen
	mov	DWORD PTR [edi+8], eax
; Line 526
	mov	ebp, DWORD PTR [ebx]
	push	ebp
	call	_isRenderActive
	add	esp, 12					; 0000000cH
	test	eax, eax
	lea	eax, DWORD PTR _y$[esp+28]
	push	eax
	lea	eax, DWORD PTR _x$[esp+32]
	push	eax
	push	edi
	push	DWORD PTR _font$1$[esp+40]
	push	ebp
	jne	SHORT $LN4@dsl_DrawTe
; Line 527
	or	DWORD PTR [edi], 16384			; 00004000H
; Line 528
	call	_drawRenderString
	add	esp, 20					; 00000014H
	test	eax, eax
	jne	SHORT $LN6@dsl_DrawTe
; Line 529
	and	DWORD PTR [edi], -16385			; ffffbfffH
; Line 530
	push	ebp
	call	_getRenderErrorString
	push	eax
	push	OFFSET ??_C@_02DKCKIIND@?$CFs@
	push	esi
	call	_luaL_error
	add	esp, 16					; 00000010H
$LN6@dsl_DrawTe:
; Line 532
	and	DWORD PTR [edi], -16385			; ffffbfffH
; Line 533
	push	48					; 00000030H
	push	esi
	call	_lua_newuserdata
	movups	xmm0, XMMWORD PTR [edi]
	movups	XMMWORD PTR [eax], xmm0
	movups	xmm0, XMMWORD PTR [edi+16]
	movups	XMMWORD PTR [eax+16], xmm0
	movups	xmm0, XMMWORD PTR [edi+32]
	movups	XMMWORD PTR [eax+32], xmm0
; Line 534
	push	DWORD PTR [ebx+32]
	push	esi
	call	_addCacheCall
	jmp	SHORT $LN24@dsl_DrawTe
$LN4@dsl_DrawTe:
; Line 535
	call	_drawRenderString
	add	esp, 20					; 00000014H
	test	eax, eax
	jne	SHORT $LN7@dsl_DrawTe
; Line 536
	push	ebp
	call	_getRenderErrorString
	push	eax
	push	OFFSET ??_C@_02DKCKIIND@?$CFs@
	push	esi
	call	_luaL_error
$LN24@dsl_DrawTe:
; Line 537
	add	esp, 16					; 00000010H
$LN7@dsl_DrawTe:
	cmp	DWORD PTR [ebx+4], 0
	pop	edi
	pop	ebp
	jne	SHORT $LN19@dsl_DrawTe
; Line 495
	mov	eax, DWORD PTR [ebx+40]
	cmp	eax, -2					; fffffffeH
	je	SHORT $LN20@dsl_DrawTe
; Line 496
	push	eax
	push	-10000					; ffffd8f0H
	push	esi
	call	_luaL_unref
	add	esp, 12					; 0000000cH
; Line 497
	mov	DWORD PTR [ebx+40], -2			; fffffffeH
$LN20@dsl_DrawTe:
; Line 499
	mov	DWORD PTR [ebx+48], 0
$LN19@dsl_DrawTe:
; Line 539
	movss	xmm0, DWORD PTR _x$[esp+20]
	push	ecx
	movss	DWORD PTR [esp], xmm0
	push	esi
	call	_lua_pushnumber
; Line 540
	movss	xmm0, DWORD PTR _y$[esp+28]
	add	esp, 4
	movss	DWORD PTR [esp], xmm0
	push	esi
	call	_lua_pushnumber
	add	esp, 8
; Line 541
	mov	eax, 2
	pop	esi
	pop	ebx
; Line 542
	add	esp, 12					; 0000000cH
	ret	0
_dsl_DrawText ENDP
_TEXT	ENDS
; Function compile flags: /Ogtpy
;	COMDAT _dsl_CreateFont
_TEXT	SEGMENT
_lua$ = 8						; size = 4
_dsl_CreateFont PROC					; COMDAT
; File C:\Program Files (x86)\Steam\steamapps\common\Bully Scholarship Edition\_derpy_script_loader\src\client\library\lib_render.c
; Line 503
	push	esi
; Line 504
	mov	esi, DWORD PTR _lua$[esp]
	push	edi
	push	4
	push	1
	push	esi
	call	_luaL_checktype
; Line 95
	push	OFFSET ??_C@_0L@LNMHOCME@dsl_render@
	push	esi
	call	_lua_pushstring
; Line 96
	push	-10000					; ffffd8f0H
	push	esi
	call	_lua_rawget
; Line 97
	push	-1
	push	esi
	call	_lua_touserdata
	mov	edi, eax
	add	esp, 36					; 00000024H
; Line 98
	cmp	DWORD PTR [edi], 0
	jne	SHORT $LN4@dsl_Create
; Line 99
	push	OFFSET ??_C@_0BB@ELFFKIAH@invalid?5renderer@
	push	esi
	call	_luaL_error
	add	esp, 8
$LN4@dsl_Create:
; Line 100
	push	-2					; fffffffeH
	push	esi
	call	_lua_settop
; Line 505
	push	1
	push	esi
	call	_lua_tostring
	push	eax
	push	DWORD PTR [edi]
	push	esi
	call	_createLuaFont
	add	esp, 28					; 0000001cH
; Line 506
	mov	eax, 1
	pop	edi
	pop	esi
; Line 507
	ret	0
_dsl_CreateFont ENDP
_TEXT	ENDS
; Function compile flags: /Ogtpy
;	COMDAT _resetLuaTextData
_TEXT	SEGMENT
_lua$ = 8						; size = 4
_lr$ = 12						; size = 4
_resetLuaTextData PROC					; COMDAT
; File C:\Program Files (x86)\Steam\steamapps\common\Bully Scholarship Edition\_derpy_script_loader\src\client\library\lib_render.c
; Line 494
	push	esi
; Line 495
	mov	esi, DWORD PTR _lr$[esp]
	mov	eax, DWORD PTR [esi+40]
	cmp	eax, -2					; fffffffeH
	je	SHORT $LN4@resetLuaTe
; Line 496
	push	eax
	push	-10000					; ffffd8f0H
	push	DWORD PTR _lua$[esp+8]
	call	_luaL_unref
	add	esp, 12					; 0000000cH
; Line 497
	mov	DWORD PTR [esi+40], -2			; fffffffeH
$LN4@resetLuaTe:
; Line 500
	mov	DWORD PTR [esi+48], 0
	pop	esi
	ret	0
_resetLuaTextData ENDP
_TEXT	ENDS
; Function compile flags: /Ogtpy
;	COMDAT _copyLuaTextArgs
_TEXT	SEGMENT
_lr$ = 8						; size = 4
_copy$ = 12						; size = 4
_copyLuaTextArgs PROC					; COMDAT
; File C:\Program Files (x86)\Steam\steamapps\common\Bully Scholarship Edition\_derpy_script_loader\src\client\library\lib_render.c
; Line 491
	mov	eax, DWORD PTR _copy$[esp-4]
	mov	ecx, DWORD PTR _lr$[esp-4]
	movups	xmm0, XMMWORD PTR [eax]
	movups	XMMWORD PTR [ecx+52], xmm0
	movups	xmm0, XMMWORD PTR [eax+16]
	movups	XMMWORD PTR [ecx+68], xmm0
	movups	xmm0, XMMWORD PTR [eax+32]
; Line 492
	mov	DWORD PTR [ecx+48], 1
	movups	XMMWORD PTR [ecx+84], xmm0
; Line 493
	ret	0
_copyLuaTextArgs ENDP
_TEXT	ENDS
; Function compile flags: /Ogtpy
;	COMDAT _setLuaTextArgs
_TEXT	SEGMENT
_lr$ = 8						; size = 4
_style$ = 12						; size = 4
_setLuaTextArgs PROC					; COMDAT
; File C:\Program Files (x86)\Steam\steamapps\common\Bully Scholarship Edition\_derpy_script_loader\src\client\library\lib_render.c
; Line 484
	push	esi
; Line 485
	mov	esi, DWORD PTR _lr$[esp]
	push	DWORD PTR _style$[esp]
	lea	eax, DWORD PTR [esi+52]
	push	eax
	call	_styleTextArgs
	add	esp, 8
	test	eax, eax
	jne	SHORT $LN2@setLuaText
	pop	esi
; Line 489
	ret	0
$LN2@setLuaText:
; Line 487
	mov	DWORD PTR [esi+48], 1
; Line 488
	mov	eax, 1
	pop	esi
; Line 489
	ret	0
_setLuaTextArgs ENDP
_TEXT	ENDS
; Function compile flags: /Ogtpy
;	COMDAT _styleTextArgs
_TEXT	SEGMENT
_args$ = 8						; size = 4
_style$ = 12						; size = 4
_styleTextArgs PROC					; COMDAT
; File C:\Program Files (x86)\Steam\steamapps\common\Bully Scholarship Edition\_derpy_script_loader\src\client\library\lib_render.c
; Line 458
	push	esi
; Line 459
	mov	esi, DWORD PTR _args$[esp]
	push	48					; 00000030H
	push	0
	push	esi
	call	_memset
; Line 460
	mov	ecx, DWORD PTR _style$[esp+12]
	add	esp, 12					; 0000000cH
	cmp	ecx, 1
	je	SHORT $LN4@styleTextA
	cmp	ecx, 3
	je	SHORT $LN4@styleTextA
	cmp	ecx, 5
	je	SHORT $LN4@styleTextA
; Line 470
	cmp	ecx, 2
	je	SHORT $LN10@styleTextA
	cmp	ecx, 4
	je	SHORT $LN10@styleTextA
	cmp	ecx, 6
	je	SHORT $LN10@styleTextA
; Line 481
	xor	eax, eax
	pop	esi
; Line 483
	ret	0
$LN10@styleTextA:
; Line 471
	mov	DWORD PTR [esi], 34852			; 00008824H
; Line 472
	cmp	ecx, 2
	jne	SHORT $LN11@styleTextA
; Line 473
	mov	DWORD PTR [esi], 34853			; 00008825H
	jmp	SHORT $LN13@styleTextA
$LN11@styleTextA:
; Line 474
	mov	eax, DWORD PTR [esi]
	cmp	ecx, 6
	mov	edx, 34854				; 00008826H
	cmove	eax, edx
	mov	DWORD PTR [esi], eax
$LN13@styleTextA:
; Line 479
	movss	xmm0, DWORD PTR __real@3d178d50
	mov	eax, -3618616				; ffc8c8c8H
	movss	xmm1, DWORD PTR __real@3f553f7d
; Line 480
	jmp	SHORT $LN9@styleTextA
$LN4@styleTextA:
; Line 461
	mov	DWORD PTR [esi], 34856			; 00008828H
; Line 462
	cmp	ecx, 1
	jne	SHORT $LN5@styleTextA
; Line 463
	mov	DWORD PTR [esi], 34857			; 00008829H
	jmp	SHORT $LN7@styleTextA
$LN5@styleTextA:
; Line 464
	mov	eax, DWORD PTR [esi]
	cmp	ecx, 5
	mov	edx, 34858				; 0000882aH
	cmove	eax, edx
	mov	DWORD PTR [esi], eax
$LN7@styleTextA:
; Line 469
	movss	xmm0, DWORD PTR __real@3d48b439
	mov	eax, -3618696				; ffc8c878H
	movss	xmm1, DWORD PTR __real@3e374bc7
$LN9@styleTextA:
; Line 482
	mov	DWORD PTR [esi+12], 1056964608		; 3f000000H
	movss	DWORD PTR [esi+16], xmm1
	movss	DWORD PTR [esi+20], xmm0
	mov	DWORD PTR [esi+32], eax
	mov	eax, 1
	pop	esi
; Line 483
	ret	0
_styleTextArgs ENDP
_TEXT	ENDS
; Function compile flags: /Ogtpy
;	COMDAT _getLuaTextArgs
_TEXT	SEGMENT
_lr$ = 8						; size = 4
_getLuaTextArgs PROC					; COMDAT
; File C:\Program Files (x86)\Steam\steamapps\common\Bully Scholarship Edition\_derpy_script_loader\src\client\library\lib_render.c
; Line 443
	push	esi
	push	edi
; Line 446
	mov	edi, DWORD PTR _lr$[esp+4]
; Line 447
	cmp	DWORD PTR [edi+48], 0
	lea	esi, DWORD PTR [edi+52]
	jne	SHORT $LN4@getLuaText
; Line 449
	push	48					; 00000030H
	push	0
	push	esi
	call	_memset
; Line 450
	mov	DWORD PTR [esi], 2081			; 00000821H
	add	esp, 12					; 0000000cH
; Line 451
	mov	DWORD PTR [esi+12], 1056964608		; 3f000000H
; Line 452
	mov	DWORD PTR [esi+16], 1044885012		; 3e47ae14H
; Line 453
	mov	DWORD PTR [esi+20], 1020054733		; 3ccccccdH
; Line 454
	mov	DWORD PTR [esi+32], -8443607		; ff7f2929H
; Line 455
	mov	DWORD PTR [edi+48], 1
$LN4@getLuaText:
; Line 457
	pop	edi
	mov	eax, esi
	pop	esi
	ret	0
_getLuaTextArgs ENDP
_TEXT	ENDS
; Function compile flags: /Ogtpy
;	COMDAT _setLuaTextFont
_TEXT	SEGMENT
_lua$ = 8						; size = 4
_lr$ = 12						; size = 4
_setLuaTextFont PROC					; COMDAT
; File C:\Program Files (x86)\Steam\steamapps\common\Bully Scholarship Edition\_derpy_script_loader\src\client\library\lib_render.c
; Line 438
	push	edi
; Line 439
	mov	edi, DWORD PTR _lr$[esp]
	mov	eax, DWORD PTR [edi+40]
	cmp	eax, -2					; fffffffeH
	je	SHORT $LN2@setLuaText
; Line 440
	push	eax
	push	-10000					; ffffd8f0H
	push	DWORD PTR _lua$[esp+8]
	call	_luaL_unref
	add	esp, 12					; 0000000cH
$LN2@setLuaText:
; Line 441
	push	-10000					; ffffd8f0H
	push	DWORD PTR _lua$[esp+4]
	call	_luaL_ref
	add	esp, 8
	mov	DWORD PTR [edi+40], eax
	pop	edi
; Line 442
	ret	0
_setLuaTextFont ENDP
_TEXT	ENDS
; Function compile flags: /Ogtpy
;	COMDAT _getLuaTextFont
_TEXT	SEGMENT
_lua$ = 8						; size = 4
_lr$ = 12						; size = 4
_getLuaTextFont PROC					; COMDAT
; File C:\Program Files (x86)\Steam\steamapps\common\Bully Scholarship Edition\_derpy_script_loader\src\client\library\lib_render.c
; Line 433
	mov	eax, DWORD PTR _lr$[esp-4]
	mov	ecx, DWORD PTR [eax+40]
	cmp	ecx, -2					; fffffffeH
	jne	SHORT $LN2@getLuaText
; Line 434
	push	OFFSET ??_C@_05MPFIAJAP@Arial@
	push	eax
	push	DWORD PTR _lua$[esp+4]
	call	_getLuaCacheFont
	add	esp, 12					; 0000000cH
; Line 437
	ret	0
$LN2@getLuaText:
; Line 435
	push	ecx
	push	-10000					; ffffd8f0H
	push	DWORD PTR _lua$[esp+4]
	call	_lua_rawgeti
; Line 436
	push	-1
	push	DWORD PTR _lua$[esp+12]
	call	_lua_touserdata
	add	esp, 20					; 00000014H
	mov	eax, DWORD PTR [eax+4]
; Line 437
	ret	0
_getLuaTextFont ENDP
_TEXT	ENDS
; Function compile flags: /Ogtpy
;	COMDAT _getLuaString
_TEXT	SEGMENT
_lua$ = 8						; size = 4
_getLuaString PROC					; COMDAT
; File C:\Program Files (x86)\Steam\steamapps\common\Bully Scholarship Edition\_derpy_script_loader\src\client\library\lib_render.c
; Line 406
	push	esi
; Line 409
	mov	esi, DWORD PTR _lua$[esp]
	push	edi
	push	1
	push	esi
	call	_luaL_checkany
; Line 410
	push	1
	push	esi
	call	_lua_tostring
	mov	edi, eax
	add	esp, 16					; 00000010H
; Line 411
	test	edi, edi
	jne	SHORT $LN2@getLuaStri
; Line 412
	push	OFFSET ??_C@_08FNIIFOJC@tostring@
	push	esi
	call	_lua_pushstring
; Line 413
	push	-10001					; ffffd8efH
	push	esi
	call	_lua_gettable
; Line 414
	push	-1
	push	esi
	call	_lua_type
	add	esp, 24					; 00000018H
	cmp	eax, 6
	je	SHORT $LN3@getLuaStri
; Line 415
	push	4
	push	esi
	call	_lua_typename
	push	eax
	push	1
	push	esi
	call	_luaL_typerror
	add	esp, 20					; 00000014H
$LN3@getLuaStri:
; Line 416
	push	1
	push	esi
	call	_lua_pushvalue
; Line 417
	push	1
	push	1
	push	esi
	call	_lua_call
; Line 418
	push	1
	push	esi
	call	_lua_replace
; Line 419
	push	0
	push	1
	push	esi
	call	_luaL_checklstring
	add	esp, 40					; 00000028H
	mov	edi, eax
$LN2@getLuaStri:
; Line 421
	push	esi
	call	_lua_gettop
	add	esp, 4
	cmp	eax, 1
	jne	SHORT $LN4@getLuaStri
; Line 422
	mov	eax, edi
	pop	edi
; Line 429
	pop	esi
	ret	0
$LN4@getLuaStri:
; Line 398
	push	OFFSET ??_C@_06ICGJLFIM@string@
	push	esi
	call	_lua_pushstring
; Line 399
	push	-10001					; ffffd8efH
	push	esi
	call	_lua_gettable
; Line 400
	push	-1
	push	esi
	call	_lua_type
	add	esp, 24					; 00000018H
	cmp	eax, 5
	jne	SHORT $LN5@getLuaStri
; Line 402
	push	OFFSET ??_C@_06DLEPGFEF@format@
	push	esi
	call	_lua_pushstring
; Line 403
	push	-2					; fffffffeH
	push	esi
	call	_lua_gettable
; Line 404
	push	-1
	push	esi
	call	_lua_type
	add	esp, 24					; 00000018H
; Line 423
	cmp	eax, 6
	jne	SHORT $LN5@getLuaStri
; Line 424
	push	1
	push	esi
	call	_lua_insert
	add	esp, 8
; Line 425
	push	1
	push	esi
	call	_lua_gettop
	add	esp, 4
	dec	eax
	push	eax
	push	esi
	call	_lua_call
	add	esp, 12					; 0000000cH
$LN5@getLuaStri:
; Line 427
	push	1
	push	esi
	call	_lua_settop
; Line 428
	push	0
	push	1
	push	esi
	call	_luaL_checklstring
	add	esp, 20					; 00000014H
	pop	edi
; Line 429
	pop	esi
	ret	0
_getLuaString ENDP
_TEXT	ENDS
; Function compile flags: /Ogtpy
;	COMDAT _getStringFormat
_TEXT	SEGMENT
_lua$ = 8						; size = 4
_getStringFormat PROC					; COMDAT
; File C:\Program Files (x86)\Steam\steamapps\common\Bully Scholarship Edition\_derpy_script_loader\src\client\library\lib_render.c
; Line 397
	push	esi
; Line 398
	mov	esi, DWORD PTR _lua$[esp]
	push	OFFSET ??_C@_06ICGJLFIM@string@
	push	esi
	call	_lua_pushstring
; Line 399
	push	-10001					; ffffd8efH
	push	esi
	call	_lua_gettable
; Line 400
	push	-1
	push	esi
	call	_lua_type
	add	esp, 24					; 00000018H
	cmp	eax, 5
	je	SHORT $LN2@getStringF
; Line 401
	xor	eax, eax
	pop	esi
; Line 405
	ret	0
$LN2@getStringF:
; Line 402
	push	OFFSET ??_C@_06DLEPGFEF@format@
	push	esi
	call	_lua_pushstring
; Line 403
	push	-2					; fffffffeH
	push	esi
	call	_lua_gettable
; Line 404
	push	-1
	push	esi
	call	_lua_type
	xor	ecx, ecx
	add	esp, 24					; 00000018H
	cmp	eax, 6
	sete	cl
	mov	eax, ecx
	pop	esi
; Line 405
	ret	0
_getStringFormat ENDP
_TEXT	ENDS
; Function compile flags: /Ogtpy
;	COMDAT _getLuaCacheFont
_TEXT	SEGMENT
_lf$1$ = -4						; size = 4
_lua$ = 8						; size = 4
_lr$ = 12						; size = 4
_name$ = 16						; size = 4
_getLuaCacheFont PROC					; COMDAT
; File C:\Program Files (x86)\Steam\steamapps\common\Bully Scholarship Edition\_derpy_script_loader\src\client\library\lib_render.c
; Line 375
	push	ecx
	push	ebx
; Line 379
	mov	ebx, DWORD PTR _lr$[esp+4]
	push	esi
	mov	esi, DWORD PTR _name$[esp+8]
	push	edi
	mov	edi, DWORD PTR [ebx+36]
	test	edi, edi
	je	SHORT $LN3@getLuaCach
$LL4@getLuaCach:
; Line 380
	mov	eax, esi
	lea	ecx, DWORD PTR [edi+8]
$LL24@getLuaCach:
	mov	dl, BYTE PTR [ecx]
	cmp	dl, BYTE PTR [eax]
	jne	SHORT $LN25@getLuaCach
	test	dl, dl
	je	SHORT $LN26@getLuaCach
	mov	dl, BYTE PTR [ecx+1]
	cmp	dl, BYTE PTR [eax+1]
	jne	SHORT $LN25@getLuaCach
	add	ecx, 2
	add	eax, 2
	test	dl, dl
	jne	SHORT $LL24@getLuaCach
$LN26@getLuaCach:
	xor	eax, eax
	jmp	SHORT $LN27@getLuaCach
$LN25@getLuaCach:
	sbb	eax, eax
	or	eax, 1
$LN27@getLuaCach:
	test	eax, eax
	je	$LN16@getLuaCach
; Line 379
	mov	edi, DWORD PTR [edi]
	test	edi, edi
	jne	SHORT $LL4@getLuaCach
$LN3@getLuaCach:
; Line 356
	mov	edi, DWORD PTR _lua$[esp+12]
; Line 384
	mov	ebx, DWORD PTR [ebx]
; Line 356
	push	0
	push	edi
	call	_lua_setgcthreshold
; Line 357
	mov	ecx, esi
	add	esp, 8
	lea	edx, DWORD PTR [ecx+1]
$LL28@getLuaCach:
	mov	al, BYTE PTR [ecx]
	inc	ecx
	test	al, al
	jne	SHORT $LL28@getLuaCach
	sub	ecx, edx
	lea	eax, DWORD PTR [ecx+9]
	push	eax
	push	edi
	call	_lua_newuserdata
; Line 359
	mov	ecx, eax
	mov	DWORD PTR _lf$1$[esp+24], eax
	add	esp, 8
	mov	edx, esi
	sub	ecx, esi
	mov	DWORD PTR [eax+4], 0
	npad	8
$LL12@getLuaCach:
	mov	al, BYTE PTR [edx]
	lea	edx, DWORD PTR [edx+1]
	mov	BYTE PTR [ecx+edx+7], al
	test	al, al
	jne	SHORT $LL12@getLuaCach
; Line 360
	push	ebp
	push	edi
	call	_lua_newtable
; Line 361
	push	OFFSET ??_C@_0L@HDFPAPPH@__tostring@
	push	edi
	call	_lua_pushstring
; Line 362
	push	0
	push	OFFSET _getLuaFontString
	push	edi
	call	_lua_pushcclosure
; Line 363
	push	-3					; fffffffdH
	push	edi
	call	_lua_rawset
; Line 364
	push	OFFSET ??_C@_04BDLIKKMN@__gc@
	push	edi
	call	_lua_pushstring
; Line 365
	push	0
	push	OFFSET _freeLuaFont
	push	edi
	call	_lua_pushcclosure
; Line 366
	push	-3					; fffffffdH
	push	edi
	call	_lua_rawset
; Line 367
	push	-2					; fffffffeH
	push	edi
	call	_lua_setmetatable
	add	esp, 68					; 00000044H
; Line 368
	push	esi
	push	0
	push	ebx
	call	_createRenderFont
	mov	ebp, eax
	add	esp, 12					; 0000000cH
; Line 369
	test	ebp, ebp
	jne	SHORT $LN10@getLuaCach
; Line 370
	push	ebx
	call	_getRenderErrorString
	push	eax
	push	OFFSET ??_C@_02DKCKIIND@?$CFs@
	push	edi
	call	_luaL_error
	add	esp, 16					; 00000010H
$LN10@getLuaCach:
; Line 371
	mov	eax, DWORD PTR _lf$1$[esp+20]
; Line 385
	mov	ecx, esi
; Line 371
	mov	DWORD PTR [eax], ebx
; Line 385
	lea	edx, DWORD PTR [ecx+1]
; Line 372
	mov	DWORD PTR [eax+4], ebp
$LL29@getLuaCach:
; Line 385
	mov	al, BYTE PTR [ecx]
	inc	ecx
	test	al, al
	jne	SHORT $LL29@getLuaCach
	sub	ecx, edx
	lea	eax, DWORD PTR [ecx+9]
	push	eax
	call	_malloc
	mov	ebx, eax
	add	esp, 4
; Line 386
	test	ebx, ebx
	jne	SHORT $LN6@getLuaCach
; Line 387
	push	OFFSET ??_C@_0BO@LLMELLC@failed?5to?5allocate?5font?5cache@
	push	edi
	call	_luaL_error
	add	esp, 8
$LN6@getLuaCach:
; Line 388
	mov	ecx, ebx
	sub	ecx, esi
$LL8@getLuaCach:
	mov	al, BYTE PTR [esi]
	lea	esi, DWORD PTR [esi+1]
	mov	BYTE PTR [ecx+esi+7], al
	test	al, al
	jne	SHORT $LL8@getLuaCach
; Line 389
	push	-1
	push	edi
	call	_lua_pushvalue
; Line 390
	push	-10000					; ffffd8f0H
	push	edi
	call	_luaL_ref
; Line 391
	mov	ecx, DWORD PTR _lr$[esp+32]
	add	esp, 16					; 00000010H
	mov	DWORD PTR [ebx+4], eax
	mov	eax, DWORD PTR [ecx+36]
	mov	DWORD PTR [ebx], eax
; Line 393
	mov	eax, ebp
	pop	ebp
	pop	edi
; Line 394
	pop	esi
	mov	DWORD PTR [ecx+36], ebx
	pop	ebx
	pop	ecx
	ret	0
$LN16@getLuaCach:
; Line 381
	push	DWORD PTR [edi+4]
	mov	esi, DWORD PTR _lua$[esp+16]
	push	-10000					; ffffd8f0H
	push	esi
	call	_lua_rawgeti
; Line 382
	push	-1
	push	esi
	call	_lua_touserdata
	add	esp, 20					; 00000014H
	mov	eax, DWORD PTR [eax+4]
	pop	edi
; Line 394
	pop	esi
	pop	ebx
	pop	ecx
	ret	0
_getLuaCacheFont ENDP
_TEXT	ENDS
; Function compile flags: /Ogtpy
;	COMDAT _createLuaFont
_TEXT	SEGMENT
_lua$ = 8						; size = 4
_render$ = 12						; size = 4
_name$ = 16						; size = 4
_createLuaFont PROC					; COMDAT
; File C:\Program Files (x86)\Steam\steamapps\common\Bully Scholarship Edition\_derpy_script_loader\src\client\library\lib_render.c
; Line 352
	push	ebx
	push	ebp
	push	esi
; Line 356
	mov	esi, DWORD PTR _lua$[esp+8]
	push	edi
	push	0
	push	esi
	call	_lua_setgcthreshold
; Line 357
	mov	edi, DWORD PTR _name$[esp+20]
	add	esp, 8
	mov	ecx, edi
	lea	edx, DWORD PTR [ecx+1]
	npad	4
$LL8@createLuaF:
	mov	al, BYTE PTR [ecx]
	inc	ecx
	test	al, al
	jne	SHORT $LL8@createLuaF
	sub	ecx, edx
	lea	eax, DWORD PTR [ecx+9]
	push	eax
	push	esi
	call	_lua_newuserdata
	mov	ebp, eax
	add	esp, 8
; Line 359
	mov	ecx, ebp
	mov	edx, edi
	sub	ecx, edi
	mov	DWORD PTR [ebp+4], 0
$LL4@createLuaF:
	mov	al, BYTE PTR [edx]
	lea	edx, DWORD PTR [edx+1]
	mov	BYTE PTR [ecx+edx+7], al
	test	al, al
	jne	SHORT $LL4@createLuaF
; Line 360
	push	esi
	call	_lua_newtable
; Line 361
	push	OFFSET ??_C@_0L@HDFPAPPH@__tostring@
	push	esi
	call	_lua_pushstring
; Line 362
	push	0
	push	OFFSET _getLuaFontString
	push	esi
	call	_lua_pushcclosure
; Line 363
	push	-3					; fffffffdH
	push	esi
	call	_lua_rawset
; Line 364
	push	OFFSET ??_C@_04BDLIKKMN@__gc@
	push	esi
	call	_lua_pushstring
; Line 365
	push	0
	push	OFFSET _freeLuaFont
	push	esi
	call	_lua_pushcclosure
; Line 366
	push	-3					; fffffffdH
	push	esi
	call	_lua_rawset
; Line 367
	push	-2					; fffffffeH
	push	esi
	call	_lua_setmetatable
; Line 368
	mov	ebx, DWORD PTR _render$[esp+80]
	add	esp, 68					; 00000044H
	push	edi
	push	0
	push	ebx
	call	_createRenderFont
	mov	edi, eax
	add	esp, 12					; 0000000cH
; Line 369
	test	edi, edi
	jne	SHORT $LN2@createLuaF
; Line 370
	push	ebx
	call	_getRenderErrorString
	push	eax
	push	OFFSET ??_C@_02DKCKIIND@?$CFs@
	push	esi
	call	_luaL_error
	add	esp, 16					; 00000010H
$LN2@createLuaF:
; Line 372
	mov	DWORD PTR [ebp+4], edi
; Line 373
	mov	eax, edi
	pop	edi
	pop	esi
	mov	DWORD PTR [ebp], ebx
	pop	ebp
	pop	ebx
; Line 374
	ret	0
_createLuaFont ENDP
_TEXT	ENDS
; Function compile flags: /Ogtpy
;	COMDAT _freeLuaFont
_TEXT	SEGMENT
_lua$ = 8						; size = 4
_freeLuaFont PROC					; COMDAT
; File C:\Program Files (x86)\Steam\steamapps\common\Bully Scholarship Edition\_derpy_script_loader\src\client\library\lib_render.c
; Line 347
	push	1
	push	DWORD PTR _lua$[esp]
	call	_lua_touserdata
	add	esp, 8
; Line 348
	mov	ecx, DWORD PTR [eax+4]
	test	ecx, ecx
	je	SHORT $LN4@freeLuaFon
; Line 349
	push	ecx
	push	DWORD PTR [eax]
	call	_destroyRenderFont
	add	esp, 8
$LN4@freeLuaFon:
; Line 351
	xor	eax, eax
	ret	0
_freeLuaFont ENDP
_TEXT	ENDS
; Function compile flags: /Ogtpy
;	COMDAT _getLuaFontString
_TEXT	SEGMENT
_lua$ = 8						; size = 4
_getLuaFontString PROC					; COMDAT
; File C:\Program Files (x86)\Steam\steamapps\common\Bully Scholarship Edition\_derpy_script_loader\src\client\library\lib_render.c
; Line 341
	push	1
	push	DWORD PTR _lua$[esp]
	call	_lua_touserdata
	add	eax, 8
	push	eax
	push	OFFSET ??_C@_08FEJHICA@font?3?5?$CFs@
	push	DWORD PTR _lua$[esp+12]
	call	_lua_pushfstring
	add	esp, 20					; 00000014H
; Line 342
	mov	eax, 1
; Line 343
	ret	0
_getLuaFontString ENDP
_TEXT	ENDS
; Function compile flags: /Ogtpy
;	COMDAT _dsl_GetTextureDisplayAspectRatio
_TEXT	SEGMENT
tv83 = -4						; size = 4
_lua$ = 8						; size = 4
_dsl_GetTextureDisplayAspectRatio PROC			; COMDAT
; File C:\Program Files (x86)\Steam\steamapps\common\Bully Scholarship Edition\_derpy_script_loader\src\client\library\lib_render.c
; Line 329
	push	ecx
	push	esi
; Line 332
	mov	esi, DWORD PTR _lua$[esp+4]
	push	edi
	push	1
	push	esi
	call	_lua_touserdata
	mov	edi, eax
	add	esp, 8
; Line 333
	test	edi, edi
	jne	SHORT $LN2@dsl_GetTex
; Line 334
	push	OFFSET ??_C@_07JDHEGGGP@texture@
	push	1
	push	esi
	call	_luaL_typerror
	add	esp, 12					; 0000000cH
$LN2@dsl_GetTex:
; Line 335
	push	DWORD PTR [edi+4]
	push	DWORD PTR [edi]
	call	_getRenderTextureAspect
	push	DWORD PTR [edi]
	fstp	DWORD PTR tv83[esp+24]
	call	_getRenderAspect
	fdivr	DWORD PTR tv83[esp+24]
	add	esp, 8
	fstp	DWORD PTR [esp]
	push	esi
	call	_lua_pushnumber
	add	esp, 8
; Line 336
	mov	eax, 1
	pop	edi
	pop	esi
; Line 337
	pop	ecx
	ret	0
_dsl_GetTextureDisplayAspectRatio ENDP
_TEXT	ENDS
; Function compile flags: /Ogtpy
;	COMDAT _dsl_GetTextureAspectRatio
_TEXT	SEGMENT
_lua$ = 8						; size = 4
_dsl_GetTextureAspectRatio PROC				; COMDAT
; File C:\Program Files (x86)\Steam\steamapps\common\Bully Scholarship Edition\_derpy_script_loader\src\client\library\lib_render.c
; Line 320
	push	esi
; Line 323
	mov	esi, DWORD PTR _lua$[esp]
	push	edi
	push	1
	push	esi
	call	_lua_touserdata
	mov	edi, eax
	add	esp, 8
; Line 324
	test	edi, edi
	jne	SHORT $LN2@dsl_GetTex
; Line 325
	push	OFFSET ??_C@_07JDHEGGGP@texture@
	push	1
	push	esi
	call	_luaL_typerror
	add	esp, 12					; 0000000cH
$LN2@dsl_GetTex:
; Line 326
	push	DWORD PTR [edi+4]
	push	DWORD PTR [edi]
	call	_getRenderTextureAspect
	add	esp, 4
	fstp	DWORD PTR [esp]
	push	esi
	call	_lua_pushnumber
	add	esp, 8
; Line 327
	mov	eax, 1
	pop	edi
	pop	esi
; Line 328
	ret	0
_dsl_GetTextureAspectRatio ENDP
_TEXT	ENDS
; Function compile flags: /Ogtpy
;	COMDAT _dsl_GetTextureResolution
_TEXT	SEGMENT
_w$ = -8						; size = 4
_h$ = -4						; size = 4
_lua$ = 8						; size = 4
_dsl_GetTextureResolution PROC				; COMDAT
; File C:\Program Files (x86)\Steam\steamapps\common\Bully Scholarship Edition\_derpy_script_loader\src\client\library\lib_render.c
; Line 308
	sub	esp, 8
	push	esi
; Line 312
	mov	esi, DWORD PTR _lua$[esp+8]
	push	edi
	push	1
	push	esi
	call	_lua_touserdata
	mov	edi, eax
	add	esp, 8
; Line 313
	test	edi, edi
	jne	SHORT $LN2@dsl_GetTex
; Line 314
	push	OFFSET ??_C@_07JDHEGGGP@texture@
	push	1
	push	esi
	call	_luaL_typerror
	add	esp, 12					; 0000000cH
$LN2@dsl_GetTex:
; Line 315
	lea	eax, DWORD PTR _h$[esp+16]
	push	eax
	lea	eax, DWORD PTR _w$[esp+20]
	push	eax
	push	DWORD PTR [edi+4]
	push	DWORD PTR [edi]
	call	_getRenderTextureResolution
	movd	xmm0, DWORD PTR _w$[esp+32]
; Line 316
	add	esp, 12					; 0000000cH
	cvtdq2ps xmm0, xmm0
	movss	DWORD PTR [esp], xmm0
	push	esi
	call	_lua_pushnumber
	movd	xmm0, DWORD PTR _h$[esp+24]
; Line 317
	add	esp, 4
	cvtdq2ps xmm0, xmm0
	movss	DWORD PTR [esp], xmm0
	push	esi
	call	_lua_pushnumber
	add	esp, 8
; Line 318
	mov	eax, 2
	pop	edi
	pop	esi
; Line 319
	add	esp, 8
	ret	0
_dsl_GetTextureResolution ENDP
_TEXT	ENDS
; Function compile flags: /Ogtpy
;	COMDAT _dsl_SetTextureBounds
_TEXT	SEGMENT
_lua$ = 8						; size = 4
_dsl_SetTextureBounds PROC				; COMDAT
; File C:\Program Files (x86)\Steam\steamapps\common\Bully Scholarship Edition\_derpy_script_loader\src\client\library\lib_render.c
; Line 293
	push	ebx
	push	esi
	push	edi
; Line 297
	mov	edi, DWORD PTR _lua$[esp+8]
	push	1
	push	edi
	call	_lua_touserdata
	mov	ebx, eax
	add	esp, 8
; Line 298
	test	ebx, ebx
	jne	SHORT $LN5@dsl_SetTex
; Line 299
	push	OFFSET ??_C@_07JDHEGGGP@texture@
	push	1
	push	edi
	call	_luaL_typerror
	add	esp, 12					; 0000000cH
$LN5@dsl_SetTex:
; Line 300
	mov	esi, 2
	npad	3
$LL4@dsl_SetTex:
; Line 301
	push	3
	push	esi
	push	edi
	call	_luaL_checktype
	inc	esi
	add	esp, 12					; 0000000cH
	cmp	esi, 5
	jle	SHORT $LL4@dsl_SetTex
; Line 302
	push	2
	push	edi
	call	_lua_tonumber
; Line 303
	push	3
	fstp	DWORD PTR [ebx+8]
	push	edi
	call	_lua_tonumber
; Line 304
	push	4
	fstp	DWORD PTR [ebx+12]
	push	edi
	call	_lua_tonumber
; Line 305
	push	5
	fstp	DWORD PTR [ebx+16]
	push	edi
	call	_lua_tonumber
	add	esp, 32					; 00000020H
; Line 306
	xor	eax, eax
	fstp	DWORD PTR [ebx+20]
	pop	edi
	pop	esi
	pop	ebx
; Line 307
	ret	0
_dsl_SetTextureBounds ENDP
_TEXT	ENDS
; Function compile flags: /Ogtpy
;	COMDAT _dsl_DrawTexture2
_TEXT	SEGMENT
tv323 = -8						; size = 8
tv275 = -8						; size = 8
_lua$ = 8						; size = 4
_dsl_DrawTexture2 PROC					; COMDAT
; File C:\Program Files (x86)\Steam\steamapps\common\Bully Scholarship Edition\_derpy_script_loader\src\client\library\lib_render.c
; Line 267
	sub	esp, 8
	push	ebx
	push	esi
; Line 272
	mov	esi, DWORD PTR _lua$[esp+12]
	push	edi
	push	1
	push	esi
	call	_lua_touserdata
	mov	ebx, eax
	add	esp, 8
; Line 273
	test	ebx, ebx
	jne	SHORT $LN7@dsl_DrawTe
; Line 274
	push	OFFSET ??_C@_07JDHEGGGP@texture@
	push	1
	push	esi
	call	_luaL_typerror
	add	esp, 12					; 0000000cH
$LN7@dsl_DrawTe:
; Line 275
	mov	edi, 2
$LL4@dsl_DrawTe:
; Line 276
	push	3
	push	edi
	push	esi
	call	_luaL_checktype
	inc	edi
	add	esp, 12					; 0000000cH
	cmp	edi, 6
	jle	SHORT $LL4@dsl_DrawTe
; Line 277
	push	esi
	call	_lua_gettop
	add	esp, 4
	cmp	eax, 10					; 0000000aH
	jge	SHORT $LN6@dsl_DrawTe
$LL5@dsl_DrawTe:
; Line 278
	push	ecx
	mov	DWORD PTR [esp], 1132396544		; 437f0000H
	push	esi
	call	_lua_pushnumber
	push	esi
	call	_lua_gettop
	add	esp, 12					; 0000000cH
	cmp	eax, 10					; 0000000aH
	jl	SHORT $LL5@dsl_DrawTe
$LN6@dsl_DrawTe:
; Line 279
	mov	edi, DWORD PTR [ebx]
	push	edi
	call	_isRenderActive
	add	esp, 4
	test	eax, eax
	jne	$LN8@dsl_DrawTe
; Line 280
	push	10					; 0000000aH
	push	esi
	call	_lua_settop
; Line 281
	movss	xmm0, DWORD PTR [ebx+8]
	add	esp, 4
	movss	DWORD PTR [esp], xmm0
	push	esi
	call	_lua_pushnumber
; Line 282
	movss	xmm0, DWORD PTR [ebx+12]
	add	esp, 4
	movss	DWORD PTR [esp], xmm0
	push	esi
	call	_lua_pushnumber
; Line 283
	movss	xmm0, DWORD PTR [ebx+16]
	add	esp, 4
	movss	DWORD PTR [esp], xmm0
	push	esi
	call	_lua_pushnumber
; Line 284
	movss	xmm0, DWORD PTR [ebx+20]
	add	esp, 4
	movss	DWORD PTR [esp], xmm0
	push	esi
	call	_lua_pushnumber
; Line 95
	push	OFFSET ??_C@_0L@LNMHOCME@dsl_render@
	push	esi
	call	_lua_pushstring
; Line 96
	push	-10000					; ffffd8f0H
	push	esi
	call	_lua_rawget
; Line 97
	push	-1
	push	esi
	call	_lua_touserdata
	mov	edi, eax
	add	esp, 32					; 00000020H
; Line 98
	cmp	DWORD PTR [edi], 0
	jne	SHORT $LN16@dsl_DrawTe
; Line 99
	push	OFFSET ??_C@_0BB@ELFFKIAH@invalid?5renderer@
	push	esi
	call	_luaL_error
	add	esp, 8
$LN16@dsl_DrawTe:
; Line 100
	push	-2					; fffffffeH
	push	esi
	call	_lua_settop
; Line 285
	push	DWORD PTR [edi+32]
	push	esi
	call	_addCacheCall
; Line 292
	add	esp, 16					; 00000010H
	xor	eax, eax
	pop	edi
	pop	esi
	pop	ebx
	add	esp, 8
	ret	0
$LN8@dsl_DrawTe:
	push	ebp
; Line 95
	push	OFFSET ??_C@_0L@LNMHOCME@dsl_render@
	push	esi
	call	_lua_pushstring
; Line 96
	push	-10000					; ffffd8f0H
	push	esi
	call	_lua_rawget
; Line 97
	push	-1
	push	esi
	call	_lua_touserdata
	mov	ebp, eax
	add	esp, 24					; 00000018H
; Line 98
	cmp	DWORD PTR [ebp], 0
	jne	SHORT $LN19@dsl_DrawTe
; Line 99
	push	OFFSET ??_C@_0BB@ELFFKIAH@invalid?5renderer@
	push	esi
	call	_luaL_error
	add	esp, 8
$LN19@dsl_DrawTe:
; Line 100
	push	-2					; fffffffeH
	push	esi
	call	_lua_settop
	add	esp, 8
; Line 286
	cmp	DWORD PTR [ebp+4], 0
	pop	ebp
	push	6
	push	esi
	je	SHORT $LN10@dsl_DrawTe
; Line 287
	call	_lua_tonumber
	fstp	QWORD PTR tv323[esp+28]
	movsd	xmm0, QWORD PTR tv323[esp+28]
	add	esp, 4
	mulsd	xmm0, QWORD PTR __real@3f91df46a2529d39
	cvtpd2ps xmm0, xmm0
	movss	DWORD PTR [esp], xmm0
	push	14					; 0000000eH
	push	esi
	call	_lua_tonumber
	add	esp, 4
	fstp	DWORD PTR [esp]
	push	13					; 0000000dH
	push	esi
	call	_lua_tonumber
	add	esp, 4
	fstp	DWORD PTR [esp]
	push	12					; 0000000cH
	push	esi
	call	_lua_tonumber
	add	esp, 4
	fstp	DWORD PTR [esp]
	push	11					; 0000000bH
	push	esi
	call	_lua_tonumber
	add	esp, 4
	fstp	DWORD PTR [esp]
; Line 289
	jmp	SHORT $LN33@dsl_DrawTe
$LN10@dsl_DrawTe:
	call	_lua_tonumber
	fstp	QWORD PTR tv275[esp+28]
	movsd	xmm0, QWORD PTR tv275[esp+28]
	mulsd	xmm0, QWORD PTR __real@3f91df46a2529d39
	cvtpd2ps xmm0, xmm0
	movss	DWORD PTR [esp+4], xmm0
	movss	xmm0, DWORD PTR [ebx+20]
	movss	DWORD PTR [esp], xmm0
	sub	esp, 12					; 0000000cH
	movss	xmm0, DWORD PTR [ebx+16]
	movss	DWORD PTR [esp+8], xmm0
	movss	xmm0, DWORD PTR [ebx+12]
	movss	DWORD PTR [esp+4], xmm0
	movss	xmm0, DWORD PTR [ebx+8]
	movss	DWORD PTR [esp], xmm0
$LN33@dsl_DrawTe:
; Line 292
	push	7
	push	esi
	call	_getLuaRgba
	add	esp, 8
	push	eax
	push	5
	push	esi
	call	_lua_tonumber
	add	esp, 4
	fstp	DWORD PTR [esp]
	push	4
	push	esi
	call	_lua_tonumber
	add	esp, 4
	fstp	DWORD PTR [esp]
	push	3
	push	esi
	call	_lua_tonumber
	add	esp, 4
	fstp	DWORD PTR [esp]
	push	2
	push	esi
	call	_lua_tonumber
	add	esp, 4
	fstp	DWORD PTR [esp]
	push	DWORD PTR [ebx+4]
	push	edi
	call	_drawRenderTextureUV2
	add	esp, 48					; 00000030H
	test	eax, eax
	jne	SHORT $LN29@dsl_DrawTe
	push	edi
	call	_getRenderErrorString
	push	eax
	push	OFFSET ??_C@_02DKCKIIND@?$CFs@
	push	esi
	call	_luaL_error
	add	esp, 16					; 00000010H
$LN29@dsl_DrawTe:
	pop	edi
	pop	esi
	xor	eax, eax
	pop	ebx
	add	esp, 8
	ret	0
_dsl_DrawTexture2 ENDP
_TEXT	ENDS
; Function compile flags: /Ogtpy
;	COMDAT _dsl_DrawTexture
_TEXT	SEGMENT
_lua$ = 8						; size = 4
_dsl_DrawTexture PROC					; COMDAT
; File C:\Program Files (x86)\Steam\steamapps\common\Bully Scholarship Edition\_derpy_script_loader\src\client\library\lib_render.c
; Line 241
	push	ebx
	push	esi
; Line 246
	mov	esi, DWORD PTR _lua$[esp+4]
	push	edi
	push	1
	push	esi
	call	_lua_touserdata
	mov	ebx, eax
	add	esp, 8
; Line 247
	test	ebx, ebx
	jne	SHORT $LN7@dsl_DrawTe
; Line 248
	push	OFFSET ??_C@_07JDHEGGGP@texture@
	push	1
	push	esi
	call	_luaL_typerror
	add	esp, 12					; 0000000cH
$LN7@dsl_DrawTe:
; Line 249
	mov	edi, 2
	npad	3
$LL4@dsl_DrawTe:
; Line 250
	push	3
	push	edi
	push	esi
	call	_luaL_checktype
	inc	edi
	add	esp, 12					; 0000000cH
	cmp	edi, 5
	jle	SHORT $LL4@dsl_DrawTe
; Line 251
	push	esi
	call	_lua_gettop
	add	esp, 4
	cmp	eax, 9
	jge	SHORT $LN6@dsl_DrawTe
$LL5@dsl_DrawTe:
; Line 252
	push	ecx
	mov	DWORD PTR [esp], 1132396544		; 437f0000H
	push	esi
	call	_lua_pushnumber
	push	esi
	call	_lua_gettop
	add	esp, 12					; 0000000cH
	cmp	eax, 9
	jl	SHORT $LL5@dsl_DrawTe
$LN6@dsl_DrawTe:
; Line 253
	mov	edi, DWORD PTR [ebx]
	push	edi
	call	_isRenderActive
	add	esp, 4
	test	eax, eax
	jne	$LN8@dsl_DrawTe
; Line 254
	push	9
	push	esi
	call	_lua_settop
; Line 255
	movss	xmm0, DWORD PTR [ebx+8]
	add	esp, 4
	movss	DWORD PTR [esp], xmm0
	push	esi
	call	_lua_pushnumber
; Line 256
	movss	xmm0, DWORD PTR [ebx+12]
	add	esp, 4
	movss	DWORD PTR [esp], xmm0
	push	esi
	call	_lua_pushnumber
; Line 257
	movss	xmm0, DWORD PTR [ebx+16]
	add	esp, 4
	movss	DWORD PTR [esp], xmm0
	push	esi
	call	_lua_pushnumber
; Line 258
	movss	xmm0, DWORD PTR [ebx+20]
	add	esp, 4
	movss	DWORD PTR [esp], xmm0
	push	esi
	call	_lua_pushnumber
; Line 95
	push	OFFSET ??_C@_0L@LNMHOCME@dsl_render@
	push	esi
	call	_lua_pushstring
; Line 96
	push	-10000					; ffffd8f0H
	push	esi
	call	_lua_rawget
; Line 97
	push	-1
	push	esi
	call	_lua_touserdata
	mov	edi, eax
	add	esp, 32					; 00000020H
; Line 98
	cmp	DWORD PTR [edi], 0
	jne	SHORT $LN16@dsl_DrawTe
; Line 99
	push	OFFSET ??_C@_0BB@ELFFKIAH@invalid?5renderer@
	push	esi
	call	_luaL_error
	add	esp, 8
$LN16@dsl_DrawTe:
; Line 100
	push	-2					; fffffffeH
	push	esi
	call	_lua_settop
; Line 259
	push	DWORD PTR [edi+32]
	push	esi
	call	_addCacheCall
; Line 266
	add	esp, 16					; 00000010H
	xor	eax, eax
	pop	edi
	pop	esi
	pop	ebx
	ret	0
$LN8@dsl_DrawTe:
	push	ebp
; Line 95
	push	OFFSET ??_C@_0L@LNMHOCME@dsl_render@
	push	esi
	call	_lua_pushstring
; Line 96
	push	-10000					; ffffd8f0H
	push	esi
	call	_lua_rawget
; Line 97
	push	-1
	push	esi
	call	_lua_touserdata
	mov	ebp, eax
	add	esp, 24					; 00000018H
; Line 98
	cmp	DWORD PTR [ebp], 0
	jne	SHORT $LN19@dsl_DrawTe
; Line 99
	push	OFFSET ??_C@_0BB@ELFFKIAH@invalid?5renderer@
	push	esi
	call	_luaL_error
	add	esp, 8
$LN19@dsl_DrawTe:
; Line 100
	push	-2					; fffffffeH
	push	esi
	call	_lua_settop
	add	esp, 8
; Line 260
	cmp	DWORD PTR [ebp+4], 0
	pop	ebp
	je	SHORT $LN10@dsl_DrawTe
; Line 261
	push	13					; 0000000dH
	push	esi
	call	_lua_tonumber
	add	esp, 4
	fstp	DWORD PTR [esp]
	push	12					; 0000000cH
	push	esi
	call	_lua_tonumber
	add	esp, 4
	fstp	DWORD PTR [esp]
	push	11					; 0000000bH
	push	esi
	call	_lua_tonumber
	add	esp, 4
	fstp	DWORD PTR [esp]
	push	10					; 0000000aH
	push	esi
	call	_lua_tonumber
	add	esp, 4
	fstp	DWORD PTR [esp]
; Line 263
	jmp	SHORT $LN33@dsl_DrawTe
$LN10@dsl_DrawTe:
	movups	xmm0, XMMWORD PTR [ebx+8]
	sub	esp, 16					; 00000010H
	movups	XMMWORD PTR [esp], xmm0
$LN33@dsl_DrawTe:
; Line 266
	push	6
	push	esi
	call	_getLuaRgba
	add	esp, 8
	push	eax
	push	5
	push	esi
	call	_lua_tonumber
	add	esp, 4
	fstp	DWORD PTR [esp]
	push	4
	push	esi
	call	_lua_tonumber
	add	esp, 4
	fstp	DWORD PTR [esp]
	push	3
	push	esi
	call	_lua_tonumber
	add	esp, 4
	fstp	DWORD PTR [esp]
	push	2
	push	esi
	call	_lua_tonumber
	add	esp, 4
	fstp	DWORD PTR [esp]
	push	DWORD PTR [ebx+4]
	push	edi
	call	_drawRenderTextureUV
	add	esp, 44					; 0000002cH
	test	eax, eax
	jne	SHORT $LN29@dsl_DrawTe
	push	edi
	call	_getRenderErrorString
	push	eax
	push	OFFSET ??_C@_02DKCKIIND@?$CFs@
	push	esi
	call	_luaL_error
	add	esp, 16					; 00000010H
$LN29@dsl_DrawTe:
	pop	edi
	pop	esi
	xor	eax, eax
	pop	ebx
	ret	0
_dsl_DrawTexture ENDP
_TEXT	ENDS
; Function compile flags: /Ogtpy
;	COMDAT _dsl_CreateTexture
_TEXT	SEGMENT
_lua$ = 8						; size = 4
_dsl_CreateTexture PROC					; COMDAT
; File C:\Program Files (x86)\Steam\steamapps\common\Bully Scholarship Edition\_derpy_script_loader\src\client\library\lib_render.c
; Line 236
	push	esi
; Line 237
	mov	esi, DWORD PTR _lua$[esp]
	push	edi
	push	4
	push	1
	push	esi
	call	_luaL_checktype
; Line 95
	push	OFFSET ??_C@_0L@LNMHOCME@dsl_render@
	push	esi
	call	_lua_pushstring
; Line 96
	push	-10000					; ffffd8f0H
	push	esi
	call	_lua_rawget
; Line 97
	push	-1
	push	esi
	call	_lua_touserdata
	mov	edi, eax
	add	esp, 36					; 00000024H
; Line 98
	cmp	DWORD PTR [edi], 0
	jne	SHORT $LN4@dsl_Create
; Line 99
	push	OFFSET ??_C@_0BB@ELFFKIAH@invalid?5renderer@
	push	esi
	call	_luaL_error
	add	esp, 8
$LN4@dsl_Create:
; Line 100
	push	-2					; fffffffeH
	push	esi
	call	_lua_settop
	add	esp, 8
; Line 238
	push	0
	push	0
	push	-1
	push	esi
	call	_lua_tostring
	add	esp, 8
	push	eax
	push	DWORD PTR [edi]
	push	1
	push	esi
	call	_getDslState
	add	esp, 8
	push	eax
	push	esi
	call	_createLuaTexture
	add	esp, 24					; 00000018H
; Line 239
	mov	eax, 1
	pop	edi
	pop	esi
; Line 240
	ret	0
_dsl_CreateTexture ENDP
_TEXT	ENDS
; Function compile flags: /Ogtpy
;	COMDAT _dsl_DrawRectangle
_TEXT	SEGMENT
_lua$ = 8						; size = 4
_dsl_DrawRectangle PROC					; COMDAT
; File C:\Program Files (x86)\Steam\steamapps\common\Bully Scholarship Edition\_derpy_script_loader\src\client\library\lib_render.c
; Line 221
	push	ebx
	push	esi
; Line 225
	mov	esi, DWORD PTR _lua$[esp+4]
	push	edi
	mov	edi, 1
	npad	4
$LL4@dsl_DrawRe:
; Line 226
	push	3
	push	edi
	push	esi
	call	_luaL_checktype
	inc	edi
	add	esp, 12					; 0000000cH
	cmp	edi, 4
	jle	SHORT $LL4@dsl_DrawRe
; Line 227
	push	esi
	call	_lua_gettop
	add	esp, 4
	cmp	eax, 8
	jge	SHORT $LN6@dsl_DrawRe
$LL5@dsl_DrawRe:
; Line 228
	push	ecx
	mov	DWORD PTR [esp], 1132396544		; 437f0000H
	push	esi
	call	_lua_pushnumber
	push	esi
	call	_lua_gettop
	add	esp, 12					; 0000000cH
	cmp	eax, 8
	jl	SHORT $LL5@dsl_DrawRe
$LN6@dsl_DrawRe:
; Line 95
	push	OFFSET ??_C@_0L@LNMHOCME@dsl_render@
	push	esi
	call	_lua_pushstring
; Line 96
	push	-10000					; ffffd8f0H
	push	esi
	call	_lua_rawget
; Line 97
	push	-1
	push	esi
	call	_lua_touserdata
	mov	ebx, eax
	add	esp, 24					; 00000018H
; Line 98
	cmp	DWORD PTR [ebx], 0
	jne	SHORT $LN10@dsl_DrawRe
; Line 99
	push	OFFSET ??_C@_0BB@ELFFKIAH@invalid?5renderer@
	push	esi
	call	_luaL_error
	add	esp, 8
$LN10@dsl_DrawRe:
; Line 100
	push	-2					; fffffffeH
	push	esi
	call	_lua_settop
; Line 177
	mov	edi, DWORD PTR [ebx]
	push	edi
	call	_isRenderActive
	add	esp, 12					; 0000000cH
	test	eax, eax
	jne	SHORT $LN12@dsl_DrawRe
; Line 179
	push	DWORD PTR [ebx+32]
	push	esi
	call	_addCacheCall
	add	esp, 8
; Line 233
	xor	eax, eax
	pop	edi
	pop	esi
	pop	ebx
	ret	0
$LN12@dsl_DrawRe:
; Line 230
	test	edi, edi
	je	SHORT $LN23@dsl_DrawRe
	push	5
	push	esi
	call	_getLuaRgba
	add	esp, 8
	push	eax
	push	4
	push	esi
	call	_lua_tonumber
	add	esp, 4
	fstp	DWORD PTR [esp]
	push	3
	push	esi
	call	_lua_tonumber
	add	esp, 4
	fstp	DWORD PTR [esp]
	push	2
	push	esi
	call	_lua_tonumber
	add	esp, 4
	fstp	DWORD PTR [esp]
	push	1
	push	esi
	call	_lua_tonumber
	add	esp, 4
	fstp	DWORD PTR [esp]
	push	edi
	call	_drawRenderRectangle
	add	esp, 24					; 00000018H
	test	eax, eax
	jne	SHORT $LN23@dsl_DrawRe
; Line 231
	push	edi
	call	_getRenderErrorString
	push	eax
	push	OFFSET ??_C@_02DKCKIIND@?$CFs@
	push	esi
	call	_luaL_error
	add	esp, 16					; 00000010H
$LN23@dsl_DrawRe:
; Line 233
	pop	edi
	pop	esi
	xor	eax, eax
	pop	ebx
	ret	0
_dsl_DrawRectangle ENDP
_TEXT	ENDS
; Function compile flags: /Ogtpy
;	COMDAT _dsl_SetDrawLayer
_TEXT	SEGMENT
_lua$ = 8						; size = 4
_dsl_SetDrawLayer PROC					; COMDAT
; File C:\Program Files (x86)\Steam\steamapps\common\Bully Scholarship Edition\_derpy_script_loader\src\client\library\lib_render.c
; Line 198
	push	ebx
	push	esi
; Line 202
	mov	esi, DWORD PTR _lua$[esp+4]
	push	edi
	push	4
	push	1
	push	esi
	call	_luaL_checktype
; Line 203
	push	1
	push	esi
	call	_lua_tostring
; Line 95
	push	OFFSET ??_C@_0L@LNMHOCME@dsl_render@
	push	esi
; Line 203
	mov	ebx, eax
; Line 95
	call	_lua_pushstring
; Line 96
	push	-10000					; ffffd8f0H
	push	esi
	call	_lua_rawget
; Line 97
	push	-1
	push	esi
	call	_lua_touserdata
	mov	edi, eax
	add	esp, 44					; 0000002cH
; Line 98
	cmp	DWORD PTR [edi], 0
	jne	SHORT $LN10@dsl_SetDra
; Line 99
	push	OFFSET ??_C@_0BB@ELFFKIAH@invalid?5renderer@
	push	esi
	call	_luaL_error
	add	esp, 8
$LN10@dsl_SetDra:
; Line 100
	push	-2					; fffffffeH
	push	esi
	call	_lua_settop
; Line 205
	push	OFFSET ??_C@_0L@ILOABIJA@POST_WORLD@
	push	ebx
	call	_dslisenum
	add	esp, 16					; 00000010H
	test	eax, eax
	je	SHORT $LN2@dsl_SetDra
; Line 206
	lea	eax, DWORD PTR [edi+16]
	mov	DWORD PTR [edi+32], eax
; Line 218
	xor	eax, eax
	pop	edi
	pop	esi
	pop	ebx
	ret	0
$LN2@dsl_SetDra:
; Line 207
	push	OFFSET ??_C@_08JJMKLCIN@PRE_FADE@
	push	ebx
	call	_dslisenum
	add	esp, 8
	test	eax, eax
	je	SHORT $LN4@dsl_SetDra
; Line 208
	lea	eax, DWORD PTR [edi+8]
	mov	DWORD PTR [edi+32], eax
; Line 218
	xor	eax, eax
	pop	edi
	pop	esi
	pop	ebx
	ret	0
$LN4@dsl_SetDra:
; Line 209
	push	OFFSET ??_C@_09FLCHFCFJ@POST_FADE@
	push	ebx
	call	_dslisenum
	add	esp, 8
	test	eax, eax
	je	SHORT $LN6@dsl_SetDra
; Line 210
	lea	eax, DWORD PTR [edi+24]
	mov	DWORD PTR [edi+32], eax
; Line 218
	xor	eax, eax
	pop	edi
	pop	esi
	pop	ebx
	ret	0
$LN6@dsl_SetDra:
; Line 212
	push	OFFSET ??_C@_0BA@EEPCJNBC@unknown?5layer?3?5@
	push	esi
	call	_lua_pushstring
; Line 213
	push	1
	push	esi
	call	_lua_pushvalue
; Line 214
	push	2
	push	esi
	call	_lua_concat
; Line 215
	push	-1
	push	esi
	call	_lua_tostring
	push	eax
	push	1
	push	esi
	call	_luaL_argerror
	add	esp, 44					; 0000002cH
; Line 218
	xor	eax, eax
	pop	edi
	pop	esi
	pop	ebx
	ret	0
_dsl_SetDrawLayer ENDP
_TEXT	ENDS
; Function compile flags: /Ogtpy
;	COMDAT _dsl_GetDisplayAspectRatio
_TEXT	SEGMENT
_lua$ = 8						; size = 4
_dsl_GetDisplayAspectRatio PROC				; COMDAT
; File C:\Program Files (x86)\Steam\steamapps\common\Bully Scholarship Edition\_derpy_script_loader\src\client\library\lib_render.c
; Line 192
	push	esi
; Line 95
	mov	esi, DWORD PTR _lua$[esp]
; Line 192
	push	edi
; Line 95
	push	OFFSET ??_C@_0L@LNMHOCME@dsl_render@
	push	esi
	call	_lua_pushstring
; Line 96
	push	-10000					; ffffd8f0H
	push	esi
	call	_lua_rawget
; Line 97
	push	-1
	push	esi
	call	_lua_touserdata
	mov	edi, eax
	add	esp, 24					; 00000018H
; Line 98
	cmp	DWORD PTR [edi], 0
	jne	SHORT $LN4@dsl_GetDis
; Line 99
	push	OFFSET ??_C@_0BB@ELFFKIAH@invalid?5renderer@
	push	esi
	call	_luaL_error
	add	esp, 8
$LN4@dsl_GetDis:
; Line 100
	push	-2					; fffffffeH
	push	esi
	call	_lua_settop
; Line 193
	push	DWORD PTR [edi]
	call	_getRenderAspect
	add	esp, 8
	fstp	DWORD PTR [esp]
	push	esi
	call	_lua_pushnumber
	add	esp, 8
; Line 194
	mov	eax, 1
	pop	edi
	pop	esi
; Line 195
	ret	0
_dsl_GetDisplayAspectRatio ENDP
_TEXT	ENDS
; Function compile flags: /Ogtpy
;	COMDAT _dsl_GetDisplayResolution
_TEXT	SEGMENT
_w$ = -8						; size = 4
_h$ = -4						; size = 4
_lua$ = 8						; size = 4
_dsl_GetDisplayResolution PROC				; COMDAT
; File C:\Program Files (x86)\Steam\steamapps\common\Bully Scholarship Edition\_derpy_script_loader\src\client\library\lib_render.c
; Line 184
	sub	esp, 8
	push	esi
; Line 95
	mov	esi, DWORD PTR _lua$[esp+8]
; Line 184
	push	edi
; Line 95
	push	OFFSET ??_C@_0L@LNMHOCME@dsl_render@
	push	esi
	call	_lua_pushstring
; Line 96
	push	-10000					; ffffd8f0H
	push	esi
	call	_lua_rawget
; Line 97
	push	-1
	push	esi
	call	_lua_touserdata
	mov	edi, eax
	add	esp, 24					; 00000018H
; Line 98
	cmp	DWORD PTR [edi], 0
	jne	SHORT $LN4@dsl_GetDis
; Line 99
	push	OFFSET ??_C@_0BB@ELFFKIAH@invalid?5renderer@
	push	esi
	call	_luaL_error
	add	esp, 8
$LN4@dsl_GetDis:
; Line 100
	push	-2					; fffffffeH
	push	esi
	call	_lua_settop
; Line 187
	lea	eax, DWORD PTR _h$[esp+24]
	push	eax
	lea	eax, DWORD PTR _w$[esp+28]
	push	eax
	push	DWORD PTR [edi]
	call	_getRenderResolution
	movd	xmm0, DWORD PTR _w$[esp+36]
; Line 188
	add	esp, 16					; 00000010H
	cvtdq2ps xmm0, xmm0
	movss	DWORD PTR [esp], xmm0
	push	esi
	call	_lua_pushnumber
	movd	xmm0, DWORD PTR _h$[esp+24]
; Line 189
	add	esp, 4
	cvtdq2ps xmm0, xmm0
	movss	DWORD PTR [esp], xmm0
	push	esi
	call	_lua_pushnumber
	add	esp, 8
; Line 190
	mov	eax, 2
	pop	edi
	pop	esi
; Line 191
	add	esp, 8
	ret	0
_dsl_GetDisplayResolution ENDP
_TEXT	ENDS
; Function compile flags: /Ogtpy
;	COMDAT _getRenderOrCache
_TEXT	SEGMENT
_lua$ = 8						; size = 4
_lr$ = 12						; size = 4
_getRenderOrCache PROC					; COMDAT
; File C:\Program Files (x86)\Steam\steamapps\common\Bully Scholarship Edition\_derpy_script_loader\src\client\library\lib_render.c
; Line 174
	push	esi
	push	edi
; Line 177
	mov	edi, DWORD PTR _lr$[esp+4]
	mov	esi, DWORD PTR [edi]
	push	esi
	call	_isRenderActive
	add	esp, 4
	test	eax, eax
	je	SHORT $LN2@getRenderO
; Line 178
	pop	edi
	mov	eax, esi
; Line 181
	pop	esi
	ret	0
$LN2@getRenderO:
; Line 179
	push	DWORD PTR [edi+32]
	push	DWORD PTR _lua$[esp+8]
	call	_addCacheCall
	add	esp, 8
; Line 180
	xor	eax, eax
	pop	edi
; Line 181
	pop	esi
	ret	0
_getRenderOrCache ENDP
_TEXT	ENDS
; Function compile flags: /Ogtpy
;	COMDAT _runCacheCalls
_TEXT	SEGMENT
_i$1$ = -4						; size = 4
_lua$ = 8						; size = 4
_lr$ = 12						; size = 4
_lc$ = 16						; size = 4
_runCacheCalls PROC					; COMDAT
; File C:\Program Files (x86)\Steam\steamapps\common\Bully Scholarship Edition\_derpy_script_loader\src\client\library\lib_render.c
; Line 137
	push	ecx
; Line 141
	mov	eax, DWORD PTR _lc$[esp]
	push	ebx
	mov	ebx, DWORD PTR [eax]
; Line 142
	test	ebx, ebx
	je	$LN1@runCacheCa
; Line 144
	push	ebp
; Line 145
	mov	ebp, DWORD PTR _lr$[esp+8]
	push	esi
; Line 147
	mov	esi, DWORD PTR _lua$[esp+12]
	push	edi
	mov	DWORD PTR [eax], 0
	mov	DWORD PTR [ebp+32], eax
	mov	DWORD PTR [ebp+4], 1
	push	DWORD PTR [eax+4]
	push	-10000					; ffffd8f0H
	push	esi
	call	_lua_rawgeti
	mov	eax, 1
	add	esp, 12					; 0000000cH
	mov	DWORD PTR _i$1$[esp+20], eax
; Line 148
	cmp	ebx, eax
	jl	$LN3@runCacheCa
	npad	3
$LL4@runCacheCa:
; Line 149
	push	eax
	push	-1
	push	esi
	call	_lua_rawgeti
; Line 150
	push	esi
	call	_lua_gettop
	mov	ebp, eax
; Line 151
	push	1
	push	ebp
	push	esi
	call	_lua_rawgeti
; Line 152
	mov	edi, 2
	push	edi
	push	ebp
	push	esi
	call	_lua_rawgeti
	push	-1
	push	esi
	call	_lua_type
	add	esp, 48					; 00000030H
	test	eax, eax
	je	SHORT $LN31@runCacheCa
$LL7@runCacheCa:
; Line 153
	push	20					; 00000014H
	push	esi
	call	_lua_checkstack
	add	esp, 8
	test	eax, eax
	je	SHORT $LN31@runCacheCa
; Line 152
	inc	edi
	push	edi
	push	ebp
	push	esi
	call	_lua_rawgeti
	push	-1
	push	esi
	call	_lua_type
	add	esp, 20					; 00000014H
	test	eax, eax
	jne	SHORT $LL7@runCacheCa
$LN31@runCacheCa:
; Line 155
	push	-2					; fffffffeH
	push	esi
	call	_lua_settop
; Line 156
	push	0
	push	0
	lea	eax, DWORD PTR [edi-2]
	push	eax
	push	esi
	call	_lua_pcall
	add	esp, 24					; 00000018H
	test	eax, eax
	je	SHORT $LN13@runCacheCa
; Line 157
	push	0
	push	esi
	call	_getDslState
	mov	edi, eax
	add	esp, 8
	test	edi, edi
	je	SHORT $LN16@runCacheCa
; Line 158
	push	-1
	push	esi
	call	_lua_isstring
	add	esp, 8
	test	eax, eax
	je	SHORT $LN15@runCacheCa
; Line 159
	push	-1
	push	esi
	call	_lua_tostring
	add	esp, 8
	push	eax
	jmp	SHORT $LN32@runCacheCa
$LN15@runCacheCa:
; Line 161
	push	OFFSET ??_C@_0BK@FGOEOOHP@an?5unknown?5error?5occurred@
$LN32@runCacheCa:
; Line 163
	push	1
	push	edi
	call	_getDslPrintPrefix
	add	esp, 8
	push	eax
	push	OFFSET ??_C@_04HDOCAJNK@?$CFs?$CFs@
	push	1
	push	DWORD PTR [edi+24]
	call	_printConsoleFormatted
	add	esp, 20					; 00000014H
$LN16@runCacheCa:
	push	-2					; fffffffeH
	push	esi
	call	_lua_settop
	add	esp, 8
$LN13@runCacheCa:
; Line 165
	push	-2					; fffffffeH
	push	esi
	call	_lua_settop
	mov	eax, DWORD PTR _i$1$[esp+28]
	add	esp, 8
	inc	eax
	mov	DWORD PTR _i$1$[esp+20], eax
	cmp	eax, ebx
	jle	$LL4@runCacheCa
	mov	ebp, DWORD PTR _lr$[esp+16]
$LN3@runCacheCa:
; Line 167
	mov	edi, DWORD PTR _lc$[esp+16]
	mov	edi, DWORD PTR [edi]
	cmp	ebx, edi
	jle	SHORT $LN9@runCacheCa
$LL10@runCacheCa:
; Line 168
	push	esi
	call	_lua_pushnil
; Line 169
	push	ebx
	push	-2					; fffffffeH
	push	esi
	call	_lua_rawseti
	dec	ebx
	add	esp, 16					; 00000010H
	cmp	ebx, edi
	jg	SHORT $LL10@runCacheCa
$LN9@runCacheCa:
; Line 171
	push	-2					; fffffffeH
	push	esi
	call	_lua_settop
	add	esp, 8
; Line 172
	mov	DWORD PTR [ebp+4], 0
	pop	edi
	pop	esi
	pop	ebp
$LN1@runCacheCa:
	pop	ebx
; Line 173
	pop	ecx
	ret	0
_runCacheCalls ENDP
_TEXT	ENDS
; Function compile flags: /Ogtpy
;	COMDAT _addCacheCall
_TEXT	SEGMENT
_ar$ = -100						; size = 96
__$ArrayPad$ = -4					; size = 4
_lua$ = 8						; size = 4
_lc$ = 12						; size = 4
_addCacheCall PROC					; COMDAT
; File C:\Program Files (x86)\Steam\steamapps\common\Bully Scholarship Edition\_derpy_script_loader\src\client\library\lib_render.c
; Line 113
	sub	esp, 100				; 00000064H
	mov	eax, DWORD PTR ___security_cookie
	xor	eax, esp
	mov	DWORD PTR __$ArrayPad$[esp+100], eax
	push	ebx
	mov	ebx, DWORD PTR _lc$[esp+100]
	push	edi
	mov	edi, DWORD PTR _lua$[esp+104]
; Line 118
	cmp	DWORD PTR [ebx], 1024			; 00000400H
	jge	$LN1@addCacheCa
; Line 121
	push	ebp
	push	edi
	call	_lua_gettop
; Line 122
	push	DWORD PTR [ebx+4]
	mov	ebp, eax
	push	-10000					; ffffd8f0H
	push	edi
	call	_lua_rawgeti
; Line 123
	push	edi
	call	_lua_newtable
; Line 124
	lea	eax, DWORD PTR _ar$[esp+132]
	push	eax
	push	0
	push	edi
	call	_lua_getstack
	add	esp, 32					; 00000020H
	test	eax, eax
	je	SHORT $LN6@addCacheCa
	lea	eax, DWORD PTR _ar$[esp+112]
	push	eax
	push	OFFSET ??_C@_01INIBCBCB@f@
	push	edi
	call	_lua_getinfo
	add	esp, 12					; 0000000cH
	test	eax, eax
	je	SHORT $LN6@addCacheCa
; Line 128
	push	esi
	push	1
	push	-2					; fffffffeH
	push	edi
	call	_lua_rawseti
; Line 129
	mov	esi, 1
	add	esp, 12					; 0000000cH
; Line 130
	cmp	ebp, esi
	jl	SHORT $LN3@addCacheCa
$LL2@addCacheCa:
; Line 131
	push	esi
	push	edi
	call	_lua_pushvalue
; Line 132
	inc	esi
	push	esi
	push	-2					; fffffffeH
	push	edi
	call	_lua_rawseti
	add	esp, 20					; 00000014H
	cmp	esi, ebp
	jle	SHORT $LL2@addCacheCa
$LN3@addCacheCa:
; Line 134
	inc	DWORD PTR [ebx]
	push	DWORD PTR [ebx]
	push	-2					; fffffffeH
	push	edi
	call	_lua_rawseti
; Line 135
	push	-2					; fffffffeH
	push	edi
	call	_lua_settop
	add	esp, 20					; 00000014H
	pop	esi
	pop	ebp
	pop	edi
; Line 136
	pop	ebx
	mov	ecx, DWORD PTR __$ArrayPad$[esp+100]
	xor	ecx, esp
	call	@__security_check_cookie@4
	add	esp, 100				; 00000064H
	ret	0
$LN6@addCacheCa:
; Line 125
	push	-3					; fffffffdH
	push	edi
	call	_lua_settop
	add	esp, 8
	pop	ebp
$LN1@addCacheCa:
; Line 136
	mov	ecx, DWORD PTR __$ArrayPad$[esp+108]
	pop	edi
	pop	ebx
	xor	ecx, esp
	call	@__security_check_cookie@4
	add	esp, 100				; 00000064H
	ret	0
_addCacheCall ENDP
_TEXT	ENDS
; Function compile flags: /Ogtpy
;	COMDAT _getLuaRgba
_TEXT	SEGMENT
_lua$ = 8						; size = 4
tv177 = 12						; size = 4
tv169 = 12						; size = 4
tv161 = 12						; size = 4
tv91 = 12						; size = 4
_index$ = 12						; size = 4
_getLuaRgba PROC					; COMDAT
; File C:\Program Files (x86)\Steam\steamapps\common\Bully Scholarship Edition\_derpy_script_loader\src\client\library\lib_render.c
; Line 108
	push	ebx
; Line 109
	mov	ebx, DWORD PTR _lua$[esp]
	push	ebp
	mov	ebp, DWORD PTR _index$[esp+4]
	push	esi
	push	edi
	lea	eax, DWORD PTR [ebp+3]
	push	eax
	push	ebx
	call	_lua_tonumber
	add	esp, 8
	fstp	DWORD PTR tv177[esp+12]
	movss	xmm0, DWORD PTR tv177[esp+12]
	call	__ftoui3
	mov	esi, eax
	push	ebp
	push	ebx
	shl	esi, 8
	call	_lua_tonumber
	add	esp, 8
	fstp	DWORD PTR tv169[esp+12]
	movss	xmm0, DWORD PTR tv169[esp+12]
	call	__ftoui3
	lea	ecx, DWORD PTR [ebp+1]
	mov	edi, eax
	push	ecx
	or	edi, esi
	push	ebx
	shl	edi, 8
	call	_lua_tonumber
	add	esp, 8
	fstp	DWORD PTR tv161[esp+12]
	movss	xmm0, DWORD PTR tv161[esp+12]
	call	__ftoui3
	lea	ecx, DWORD PTR [ebp+2]
	mov	esi, eax
	push	ecx
	or	esi, edi
	push	ebx
	shl	esi, 8
	call	_lua_tonumber
	add	esp, 8
	fstp	DWORD PTR tv91[esp+12]
	movss	xmm0, DWORD PTR tv91[esp+12]
	call	__ftoui3
	pop	edi
	or	eax, esi
	pop	esi
	pop	ebp
	pop	ebx
; Line 110
	ret	0
_getLuaRgba ENDP
_TEXT	ENDS
; Function compile flags: /Ogtpy
;	COMDAT _getLuaRgb
_TEXT	SEGMENT
_lua$ = 8						; size = 4
tv137 = 12						; size = 4
tv129 = 12						; size = 4
tv80 = 12						; size = 4
_index$ = 12						; size = 4
_getLuaRgb PROC						; COMDAT
; File C:\Program Files (x86)\Steam\steamapps\common\Bully Scholarship Edition\_derpy_script_loader\src\client\library\lib_render.c
; Line 105
	push	ebx
; Line 106
	mov	ebx, DWORD PTR _lua$[esp]
	push	ebp
	mov	ebp, DWORD PTR _index$[esp+4]
	push	esi
	push	edi
	lea	eax, DWORD PTR [ebp+1]
	push	eax
	push	ebx
	call	_lua_tonumber
	add	esp, 8
	fstp	DWORD PTR tv137[esp+12]
	movss	xmm0, DWORD PTR tv137[esp+12]
	call	__ftoui3
	push	ebp
	push	ebx
	mov	esi, eax
	call	_lua_tonumber
	add	esp, 8
	fstp	DWORD PTR tv129[esp+12]
	movss	xmm0, DWORD PTR tv129[esp+12]
	call	__ftoui3
	mov	edi, eax
	lea	ecx, DWORD PTR [ebp+2]
	shl	edi, 8
	push	ecx
	or	edi, esi
	push	ebx
	shl	edi, 8
	call	_lua_tonumber
	add	esp, 8
	fstp	DWORD PTR tv80[esp+12]
	movss	xmm0, DWORD PTR tv80[esp+12]
	call	__ftoui3
	or	eax, edi
	pop	edi
	pop	esi
	pop	ebp
	pop	ebx
; Line 107
	ret	0
_getLuaRgb ENDP
_TEXT	ENDS
; Function compile flags: /Ogtpy
;	COMDAT _getLuaRender
_TEXT	SEGMENT
_lua$ = 8						; size = 4
_getLuaRender PROC					; COMDAT
; File C:\Program Files (x86)\Steam\steamapps\common\Bully Scholarship Edition\_derpy_script_loader\src\client\library\lib_render.c
; Line 92
	push	esi
; Line 95
	mov	esi, DWORD PTR _lua$[esp]
	push	edi
	push	OFFSET ??_C@_0L@LNMHOCME@dsl_render@
	push	esi
	call	_lua_pushstring
; Line 96
	push	-10000					; ffffd8f0H
	push	esi
	call	_lua_rawget
; Line 97
	push	-1
	push	esi
	call	_lua_touserdata
	mov	edi, eax
	add	esp, 24					; 00000018H
; Line 98
	cmp	DWORD PTR [edi], 0
	jne	SHORT $LN2@getLuaRend
; Line 99
	push	OFFSET ??_C@_0BB@ELFFKIAH@invalid?5renderer@
	push	esi
	call	_luaL_error
	add	esp, 8
$LN2@getLuaRend:
; Line 100
	push	-2					; fffffffeH
	push	esi
	call	_lua_settop
	add	esp, 8
; Line 101
	mov	eax, edi
	pop	edi
	pop	esi
; Line 102
	ret	0
_getLuaRender ENDP
_TEXT	ENDS
; Function compile flags: /Ogtpy
;	COMDAT _setupLuaRender
_TEXT	SEGMENT
_lua$ = 8						; size = 4
_dsl$ = 12						; size = 4
_setupLuaRender PROC					; COMDAT
; File C:\Program Files (x86)\Steam\steamapps\common\Bully Scholarship Edition\_derpy_script_loader\src\client\library\lib_render.c
; Line 63
	push	ebx
	push	ebp
	push	esi
; Line 67
	mov	esi, DWORD PTR _lua$[esp+8]
	push	edi
	push	OFFSET ??_C@_0L@LNMHOCME@dsl_render@
	push	esi
	call	_lua_pushstring
; Line 68
	push	100					; 00000064H
	push	esi
	call	_lua_newuserdata
; Line 69
	push	100					; 00000064H
	mov	ebp, eax
	push	0
	push	ebp
	call	_memset
; Line 70
	mov	ecx, DWORD PTR _dsl$[esp+40]
; Line 73
	push	esi
	mov	ecx, DWORD PTR [ecx+12]
	mov	DWORD PTR [ebp], ecx
	lea	ecx, DWORD PTR [ebp+8]
	mov	DWORD PTR [ebp+32], ecx
	mov	DWORD PTR [ebp+40], -2			; fffffffeH
	call	_lua_newtable
; Line 74
	push	OFFSET ??_C@_04BDLIKKMN@__gc@
	push	esi
	call	_lua_pushstring
; Line 75
	push	0
	push	OFFSET _freeLuaRender
	push	esi
	call	_lua_pushcclosure
; Line 76
	push	-3					; fffffffdH
	push	esi
	call	_lua_rawset
; Line 77
	push	-2					; fffffffeH
	push	esi
	call	_lua_setmetatable
	add	esp, 68					; 00000044H
; Line 78
	push	-10000					; ffffd8f0H
	push	esi
	call	_lua_rawset
	add	esp, 8
	lea	edi, DWORD PTR [ebp+12]
	mov	ebx, 3
$LL4@setupLuaRe:
; Line 80
	push	esi
	call	_lua_newtable
; Line 81
	push	-10000					; ffffd8f0H
	push	esi
	call	_luaL_ref
	add	esp, 12					; 0000000cH
	mov	DWORD PTR [edi], eax
	lea	edi, DWORD PTR [edi+8]
	sub	ebx, 1
	jne	SHORT $LL4@setupLuaRe
; Line 83
	push	esi
	call	_lua_newtable
; Line 84
	push	esi
	call	_lua_newtable
; Line 85
	push	OFFSET ??_C@_06BPGFKLEK@__mode@
	push	esi
	call	_lua_pushstring
; Line 86
	push	OFFSET ??_C@_01MHEDDDHA@v@
	push	esi
	call	_lua_pushstring
; Line 87
	push	-3					; fffffffdH
	push	esi
	call	_lua_rawset
; Line 88
	push	-2					; fffffffeH
	push	esi
	call	_lua_setmetatable
; Line 89
	push	-10000					; ffffd8f0H
	push	esi
	call	_luaL_ref
	add	esp, 48					; 00000030H
	mov	DWORD PTR [ebp+44], eax
; Line 90
	mov	eax, ebp
	pop	edi
	pop	esi
	pop	ebp
	pop	ebx
; Line 91
	ret	0
_setupLuaRender ENDP
_TEXT	ENDS
; Function compile flags: /Ogtpy
;	COMDAT _freeLuaRender
_TEXT	SEGMENT
_lua$ = 8						; size = 4
_freeLuaRender PROC					; COMDAT
; File C:\Program Files (x86)\Steam\steamapps\common\Bully Scholarship Edition\_derpy_script_loader\src\client\library\lib_render.c
; Line 56
	push	1
	push	DWORD PTR _lua$[esp]
	call	_lua_touserdata
	add	esp, 8
; Line 57
	mov	eax, DWORD PTR [eax+36]
	test	eax, eax
	je	SHORT $LN10@freeLuaRen
	push	esi
$LL4@freeLuaRen:
; Line 58
	mov	esi, DWORD PTR [eax]
; Line 59
	push	eax
	call	_free
	add	esp, 4
	mov	eax, esi
	test	esi, esi
	jne	SHORT $LL4@freeLuaRen
; Line 61
	pop	esi
$LN10@freeLuaRen:
; Line 62
	xor	eax, eax
	ret	0
_freeLuaRender ENDP
_TEXT	ENDS
; Function compile flags: /Ogtpy
;	COMDAT _sprintf
_TEXT	SEGMENT
__Buffer$ = 8						; size = 4
__Format$ = 12						; size = 4
_sprintf PROC						; COMDAT
; File C:\Program Files (x86)\Windows Kits\10\include\10.0.18362.0\ucrt\stdio.h
; Line 1390
	lea	eax, DWORD PTR __Format$[esp]
	push	eax
	push	0
	push	DWORD PTR __Format$[esp+4]
	push	-1
	push	DWORD PTR __Buffer$[esp+12]
	call	___local_stdio_printf_options
	mov	ecx, DWORD PTR [eax]
	push	DWORD PTR [eax+4]
	or	ecx, 1
	push	ecx
	call	___stdio_common_vsprintf
; Line 1394
	or	ecx, -1
	add	esp, 28					; 0000001cH
	test	eax, eax
	cmovs	eax, ecx
; Line 1793
	ret	0
_sprintf ENDP
_TEXT	ENDS
; Function compile flags: /Ogtpy
;	COMDAT __vsprintf_l
_TEXT	SEGMENT
__Buffer$ = 8						; size = 4
__Format$ = 12						; size = 4
__Locale$ = 16						; size = 4
__ArgList$ = 20						; size = 4
__vsprintf_l PROC					; COMDAT
; File C:\Program Files (x86)\Windows Kits\10\include\10.0.18362.0\ucrt\stdio.h
; Line 1390
	push	DWORD PTR __ArgList$[esp-4]
	push	DWORD PTR __Locale$[esp]
	push	DWORD PTR __Format$[esp+4]
	push	-1
	push	DWORD PTR __Buffer$[esp+12]
	call	___local_stdio_printf_options
	mov	ecx, DWORD PTR [eax]
	push	DWORD PTR [eax+4]
	or	ecx, 1
	push	ecx
	call	___stdio_common_vsprintf
; Line 1394
	or	ecx, -1
	add	esp, 28					; 0000001cH
	test	eax, eax
	cmovs	eax, ecx
; Line 1464
	ret	0
__vsprintf_l ENDP
_TEXT	ENDS
; Function compile flags: /Ogtpy
;	COMDAT __vsnprintf_l
_TEXT	SEGMENT
__Buffer$ = 8						; size = 4
__BufferCount$ = 12					; size = 4
__Format$ = 16						; size = 4
__Locale$ = 20						; size = 4
__ArgList$ = 24						; size = 4
__vsnprintf_l PROC					; COMDAT
; File C:\Program Files (x86)\Windows Kits\10\include\10.0.18362.0\ucrt\stdio.h
; Line 1390
	push	DWORD PTR __ArgList$[esp-4]
	push	DWORD PTR __Locale$[esp]
	push	DWORD PTR __Format$[esp+4]
	push	DWORD PTR __BufferCount$[esp+8]
	push	DWORD PTR __Buffer$[esp+12]
	call	___local_stdio_printf_options
	mov	ecx, DWORD PTR [eax]
	push	DWORD PTR [eax+4]
	or	ecx, 1
	push	ecx
	call	___stdio_common_vsprintf
; Line 1394
	or	ecx, -1
	add	esp, 28					; 0000001cH
	test	eax, eax
	cmovs	eax, ecx
; Line 1395
	ret	0
__vsnprintf_l ENDP
_TEXT	ENDS
; Function compile flags: /Ogtpy
;	COMDAT ___local_stdio_printf_options
_TEXT	SEGMENT
___local_stdio_printf_options PROC			; COMDAT
; File C:\Program Files (x86)\Windows Kits\10\include\10.0.18362.0\ucrt\corecrt_stdio_config.h
; Line 88
	mov	eax, OFFSET ?_OptionsStorage@?1??__local_stdio_printf_options@@9@9 ; `__local_stdio_printf_options'::`2'::_OptionsStorage
; Line 89
	ret	0
___local_stdio_printf_options ENDP
_TEXT	ENDS
END
