; Listing generated by Microsoft (R) Optimizing Compiler Version 19.23.28107.0 

	TITLE	C:\Program Files (x86)\Steam\steamapps\common\Bully Scholarship Edition\_derpy_script_loader\src\client\main.c
	.686P
	.XMM
	include listing.inc
	.model	flat

INCLUDELIB LIBCMT
INCLUDELIB OLDNAMES

PUBLIC	_DllMain@12
EXTRN	_free:PROC
EXTRN	_malloc:PROC
EXTRN	__imp__GetFileSize@8:PROC
EXTRN	__imp__ReadFile@20:PROC
EXTRN	__imp__WriteFile@20:PROC
EXTRN	__imp__ShowWindow@8:PROC
EXTRN	__imp__ChangeDisplaySettingsA@8:PROC
EXTRN	_lua_open:PROC
EXTRN	_lua_close:PROC
EXTRN	_lua_newthread:PROC
EXTRN	_replaceImmediateValue:PROC
EXTRN	_replaceImmediateByte:PROC
EXTRN	_replaceCodeWithJump:PROC
EXTRN	_replaceFunctionCall:PROC
EXTRN	_luaC_collectgarbage:PROC
EXTRN	_luaM_realloc:PROC
EXTRN	_luaX_init:PROC
EXTRN	_luaY_parser:PROC
EXTRN	_openDsl:PROC
EXTRN	_saveDslData:PROC
EXTRN	_closeDsl:PROC
EXTRN	_initDslContent:PROC
EXTRN	_updateDslKeyboard:PROC
EXTRN	_updateDslMouse:PROC
EXTRN	_updateDslController:PROC
EXTRN	_updateDslControllers:PROC
EXTRN	_updateDslBeforeSystem:PROC
EXTRN	_updateDslAfterSkipped:PROC
EXTRN	_updateDslAfterScripts:PROC
EXTRN	_updateDslAfterWorld:PROC
EXTRN	_updateDslBeforeFade:PROC
EXTRN	_updateDslBeforeDraw:PROC
EXTRN	_readDslSaveData:PROC
EXTRN	_writeDslSaveData:PROC
EXTRN	_creatingDslPed:PROC
EXTRN	_canDslBuildPlayer:PROC
EXTRN	_canDslSetPedStat:PROC
EXTRN	_setDslCameraFade:PROC
EXTRN	_canDslLoadSaveGame:PROC
EXTRN	_loadedDslGameScript:PROC
EXTRN	_canDslPauseGame:PROC
EXTRN	_canDslForceSleep:PROC
EXTRN	_setDslPedThrottle:PROC
EXTRN	_updateDslWindow:PROC
EXTRN	_canDslBeMinimized:PROC
EXTRN	_canDslGoFullscreen:PROC
EXTRN	__fltused:DWORD
_BSS	SEGMENT
_g_waitforsave DD 01H DUP (?)
_g_savedata DD	01H DUP (?)
_g_data	DD	01H DUP (?)
_g_dsl	DD	01H DUP (?)
_g_controller DD 01H DUP (?)
_g_d3d9device DD 01H DUP (?)
_BSS	ENDS
; Function compile flags: /Ogtpy
;	COMDAT _DllMain@12
_TEXT	SEGMENT
_instance$ = 8						; size = 4
_reason$ = 12						; size = 4
_reserved$ = 16						; size = 4
_DllMain@12 PROC					; COMDAT
; File C:\Program Files (x86)\Steam\steamapps\common\Bully Scholarship Edition\_derpy_script_loader\src\client\main.c
; Line 389
	cmp	DWORD PTR _reason$[esp-4], 1
	jne	$LN4@DllMain
; Line 392
	push	7610544					; 007420b0H
	push	OFFSET _lua_close
	call	_replaceCodeWithJump
; Line 393
	push	7581280					; 0073ae60H
	push	OFFSET _lua_newthread
	call	_replaceCodeWithJump
; Line 394
	push	7610384					; 00742010H
	push	OFFSET _lua_open
	call	_replaceCodeWithJump
; Line 395
	push	7606048					; 00740f20H
	push	OFFSET _luaC_collectgarbage
	call	_replaceCodeWithJump
; Line 397
	push	OFFSET _luaM_realloc
	push	7608048					; 007416f0H
	call	_replaceCodeWithJump
; Line 399
	push	OFFSET _luaX_init
	push	5
	push	7609930					; 00741e4aH
	call	_replaceFunctionCall
; Line 400
	push	OFFSET _luaY_parser
	push	5
	push	7602155					; 0073ffebH
	call	_replaceFunctionCall
	add	esp, 64					; 00000040H
; Line 402
	push	OFFSET _setupDevice@28
	push	5
	push	8913175					; 00880117H
	call	_replaceFunctionCall
; Line 404
	push	OFFSET _startGame
	push	5
	push	4450494					; 0043e8beH
	call	_replaceFunctionCall
; Line 406
	push	OFFSET _loadGame
	push	5
	push	4443988					; 0043cf54H
	call	_replaceFunctionCall
; Line 408
	push	OFFSET @initLuaState@4
	push	5
	push	6144884					; 005dc374H
	call	_replaceFunctionCall
; Line 410
	push	OFFSET _updateSystem
	push	5
	push	4445776					; 0043d650H
	call	_replaceFunctionCall
; Line 411
	push	OFFSET _skipGameUpdate
	push	5
	push	4445792					; 0043d660H
	call	_replaceFunctionCall
	add	esp, 72					; 00000048H
; Line 412
	push	OFFSET _updateController
	push	5
	push	7570967					; 00738617H
	call	_replaceFunctionCall
; Line 413
	push	OFFSET @updateInputs@4
	push	5
	push	7570810					; 0073857aH
	call	_replaceFunctionCall
; Line 414
	push	OFFSET _updateInputs2a
	push	5
	push	5297602					; 0050d5c2H
	call	_replaceFunctionCall
; Line 415
	push	OFFSET _updateInputs2b@8
	push	5
	push	5295469					; 0050cd6dH
	call	_replaceFunctionCall
; Line 416
	push	OFFSET @updateScripts@12
	push	5
	push	4391039					; 0043007fH
	call	_replaceFunctionCall
; Line 417
	push	OFFSET _drawGameWorld
	push	5
	push	4443302					; 0043cca6H
	call	_replaceFunctionCall
	add	esp, 72					; 00000048H
; Line 418
	push	OFFSET _fadeGameScreen
	push	5
	push	4443858					; 0043ced2H
	call	_replaceFunctionCall
; Line 419
	push	OFFSET _updateDrawing
	push	5
	push	4443878					; 0043cee6H
	call	_replaceFunctionCall
; Line 422
	push	OFFSET _destroyLuaState
	push	5
	push	6142538					; 005dba4aH
	call	_replaceFunctionCall
; Line 424
	push	OFFSET _readSaveFile
	push	5
	push	7559541					; 00735975H
	call	_replaceFunctionCall
; Line 425
	push	OFFSET _readSaveFile2
	push	5
	push	7566009					; 007372b9H
	call	_replaceFunctionCall
; Line 426
	push	OFFSET _writeSaveFile
	push	5
	push	7563247					; 007367efH
	call	_replaceFunctionCall
	add	esp, 72					; 00000048H
; Line 428
	push	OFFSET _updateWindow
	push	5
	push	4219834					; 004063baH
	call	_replaceFunctionCall
; Line 429
	push	OFFSET _unfocusWindow
	push	5
	push	4198662					; 00401106H
	call	_replaceFunctionCall
; Line 430
	push	OFFSET _showAfterWindowCreated@8
	push	6
	push	8567664					; 0082bb70H
	call	_replaceFunctionCall
; Line 431
	push	OFFSET _changeDisplaySettings@8
	push	6
	push	4216248					; 004055b8H
	call	_replaceFunctionCall
; Line 433
	push	OFFSET _creatingPed
	push	5
	push	4550474					; 00456f4aH
	call	_replaceFunctionCall
; Line 434
	push	OFFSET _creatingPed
	push	5
	push	4830582					; 0049b576H
	call	_replaceFunctionCall
	add	esp, 72					; 00000048H
; Line 435
	push	OFFSET _creatingPed
	push	5
	push	4847048					; 0049f5c8H
	call	_replaceFunctionCall
; Line 436
	push	OFFSET _creatingPed
	push	5
	push	4847564					; 0049f7ccH
	call	_replaceFunctionCall
; Line 437
	push	OFFSET _creatingPed
	push	5
	push	4849078					; 0049fdb6H
	call	_replaceFunctionCall
; Line 438
	push	OFFSET _creatingPed
	push	5
	push	4859648					; 004a2700H
	call	_replaceFunctionCall
; Line 439
	push	OFFSET _creatingPed
	push	5
	push	6092985					; 005cf8b9H
	call	_replaceFunctionCall
; Line 440
	push	OFFSET _creatingPed
	push	5
	push	6096210					; 005d0552H
	call	_replaceFunctionCall
	add	esp, 72					; 00000048H
; Line 442
	push	OFFSET @buildPlayer@12
	push	5
	push	4219590					; 004062c6H
	call	_replaceFunctionCall
; Line 443
	push	OFFSET @buildPlayer@12
	push	5
	push	4219622					; 004062e6H
	call	_replaceFunctionCall
; Line 444
	push	OFFSET @buildPlayer@12
	push	5
	push	6009009					; 005bb0b1H
	call	_replaceFunctionCall
; Line 445
	push	OFFSET @buildPlayer@12
	push	5
	push	7099713					; 006c5541H
	call	_replaceFunctionCall
; Line 446
	push	OFFSET @buildPlayer@12
	push	5
	push	7102728					; 006c6108H
	call	_replaceFunctionCall
; Line 447
	push	OFFSET @buildPlayer@12
	push	5
	push	7130531					; 006ccda3H
	call	_replaceFunctionCall
	add	esp, 72					; 00000048H
; Line 448
	push	OFFSET @buildPlayer@12
	push	5
	push	7557182					; 0073503eH
	call	_replaceFunctionCall
; Line 450
	push	OFFSET @setPedStat@16
	push	5
	push	4749859					; 00487a23H
	call	_replaceFunctionCall
; Line 451
	push	OFFSET @setPedStat@16
	push	5
	push	6066706					; 005c9212H
	call	_replaceFunctionCall
; Line 452
	push	OFFSET @setPedStat@16
	push	5
	push	6115000					; 005d4eb8H
	call	_replaceFunctionCall
; Line 453
	push	OFFSET @setPedStat@16
	push	5
	push	6800633					; 0067c4f9H
	call	_replaceFunctionCall
; Line 454
	push	OFFSET @setPedStat@16
	push	5
	push	6800678					; 0067c526H
	call	_replaceFunctionCall
	add	esp, 72					; 00000048H
; Line 455
	push	OFFSET @setPedStat@16
	push	5
	push	6800696					; 0067c538H
	call	_replaceFunctionCall
; Line 456
	push	OFFSET @setPedStat@16
	push	5
	push	6801591					; 0067c8b7H
	call	_replaceFunctionCall
; Line 458
	push	OFFSET @fadeCamera@20
	push	5
	push	4288794					; 0041711aH
	call	_replaceFunctionCall
; Line 459
	push	OFFSET @fadeCamera@20
	push	5
	push	4289801					; 00417509H
	call	_replaceFunctionCall
; Line 460
	push	OFFSET @fadeCamera@20
	push	5
	push	4396250					; 004314daH
	call	_replaceFunctionCall
; Line 461
	push	OFFSET @fadeCamera@20
	push	5
	push	4435130					; 0043acbaH
	call	_replaceFunctionCall
	add	esp, 72					; 00000048H
; Line 462
	push	OFFSET @fadeCamera@20
	push	5
	push	4439673					; 0043be79H
	call	_replaceFunctionCall
; Line 463
	push	OFFSET @fadeCamera@20
	push	5
	push	4445746					; 0043d632H
	call	_replaceFunctionCall
; Line 464
	push	OFFSET @fadeCamera@20
	push	5
	push	4445891					; 0043d6c3H
	call	_replaceFunctionCall
; Line 465
	push	OFFSET @fadeCamera@20
	push	5
	push	4450232					; 0043e7b8H
	call	_replaceFunctionCall
; Line 466
	push	OFFSET @fadeCamera@20
	push	5
	push	5210820					; 004f82c4H
	call	_replaceFunctionCall
; Line 467
	push	OFFSET @fadeCamera@20
	push	5
	push	6000759					; 005b9077H
	call	_replaceFunctionCall
	add	esp, 72					; 00000048H
; Line 468
	push	OFFSET @fadeCamera@20
	push	5
	push	6673005					; 0065d26dH
	call	_replaceFunctionCall
; Line 469
	push	OFFSET @fadeCamera@20
	push	5
	push	6673026					; 0065d282H
	call	_replaceFunctionCall
; Line 470
	push	OFFSET @fadeCamera@20
	push	5
	push	6940032					; 0069e580H
	call	_replaceFunctionCall
; Line 471
	push	OFFSET @fadeCamera@20
	push	5
	push	6987995					; 006aa0dbH
	call	_replaceFunctionCall
; Line 472
	push	OFFSET @fadeCamera@20
	push	5
	push	6988074					; 006aa12aH
	call	_replaceFunctionCall
; Line 473
	push	OFFSET @fadeCamera@20
	push	5
	push	7361187					; 007052a3H
	call	_replaceFunctionCall
	add	esp, 72					; 00000048H
; Line 474
	push	OFFSET @fadeCamera@20
	push	5
	push	7370509					; 0070770dH
	call	_replaceFunctionCall
; Line 476
	push	OFFSET _loadSaveGame
	push	5
	push	7566793					; 007375c9H
	call	_replaceFunctionCall
; Line 477
	push	OFFSET @loadLuaScript@12
	push	5
	push	6144340					; 005dc154H
	call	_replaceFunctionCall
; Line 478
	push	OFFSET _setGamePaused
	push	5
	push	6962466					; 006a3d22H
	call	_replaceFunctionCall
; Line 479
	push	OFFSET @shouldAllowSleep@4
	push	5
	push	4480885					; 00445f75H
	call	_replaceFunctionCall
; Line 480
	push	-70					; ffffffbaH
	push	6243308					; 005f43ecH
	call	_replaceImmediateByte
	add	esp, 68					; 00000044H
; Line 481
	push	OFFSET @setPedThrottle@12
	push	6243309					; 005f43edH
	call	_replaceImmediateValue
; Line 482
	push	OFFSET @beforeControllerProcessing@16
	push	5
	push	5296796					; 0050d29cH
	call	_replaceFunctionCall
; Line 483
	push	OFFSET _setKeyboardCooperativeLevel@12
	push	5
	push	5291110					; 0050bc66H
	call	_replaceFunctionCall
	add	esp, 32					; 00000020H
$LN4@DllMain:
; Line 514
	mov	eax, 1
	ret	12					; 0000000cH
_DllMain@12 ENDP
_TEXT	ENDS
; Function compile flags: /Ogtpy
;	COMDAT _setKeyboardCooperativeLevel@12
_TEXT	SEGMENT
_device$ = 8						; size = 4
_window$ = 12						; size = 4
_flags$ = 16						; size = 4
_setKeyboardCooperativeLevel@12 PROC			; COMDAT
; File C:\Program Files (x86)\Steam\steamapps\common\Bully Scholarship Edition\_derpy_script_loader\src\client\main.c
; Line 381
	mov	eax, DWORD PTR _device$[esp-4]
	mov	ecx, DWORD PTR [eax]
	mov	DWORD PTR _flags$[esp-4], 6
	mov	DWORD PTR _device$[esp-4], eax
	mov	eax, DWORD PTR [ecx+52]
	jmp	eax
_setKeyboardCooperativeLevel@12 ENDP
_TEXT	ENDS
; Function compile flags: /Ogtpy
;	COMDAT @beforeControllerProcessing@16
_TEXT	SEGMENT
_arg$ = 8						; size = 4
_input$ = 12						; size = 4
@beforeControllerProcessing@16 PROC			; COMDAT
; _controller$ = ecx
; _edx$ = edx
; File C:\Program Files (x86)\Steam\steamapps\common\Bully Scholarship Edition\_derpy_script_loader\src\client\main.c
; Line 371
	push	esi
	mov	esi, ecx
; Line 373
	mov	ecx, DWORD PTR _g_dsl
	push	edi
	mov	edi, edx
	test	ecx, ecx
	je	SHORT $LN2@
	cmp	DWORD PTR [esi+312], 0
	jne	SHORT $LN2@
; Line 374
	lea	eax, DWORD PTR [esi+516]
	push	eax
	push	ecx
	call	_updateDslKeyboard
; Line 375
	lea	eax, DWORD PTR [esi+500]
	push	eax
	push	DWORD PTR _g_dsl
	call	_updateDslMouse
	add	esp, 16					; 00000010H
$LN2@:
; Line 377
	push	DWORD PTR _input$[esp+4]
	mov	eax, 5292080				; 0050c030H
	mov	edx, edi
	push	DWORD PTR _arg$[esp+8]
	mov	ecx, esi
	call	eax
	pop	edi
	pop	esi
; Line 378
	ret	8
@beforeControllerProcessing@16 ENDP
_TEXT	ENDS
; Function compile flags: /Ogtpy
;	COMDAT @setPedThrottle@12
_TEXT	SEGMENT
_arg$ = 8						; size = 4
@setPedThrottle@12 PROC					; COMDAT
; _ecx$ = ecx
; _edx$ = edx
; File C:\Program Files (x86)\Steam\steamapps\common\Bully Scholarship Edition\_derpy_script_loader\src\client\main.c
; Line 366
	movss	xmm0, DWORD PTR _arg$[esp-4]
	push	ebx
	mov	ebx, ecx
	push	esi
	push	edi
	push	ecx
	mov	eax, DWORD PTR [ebx]
	movss	DWORD PTR [esp], xmm0
	mov	edi, DWORD PTR [eax+12]
	call	edi
; Line 367
	mov	ecx, DWORD PTR _g_dsl
	mov	esi, eax
	test	ecx, ecx
	je	SHORT $LN2@
	test	esi, esi
	je	SHORT $LN2@
	cmp	edi, 6258384				; 005f7ed0H
	je	SHORT $LN3@
	cmp	edi, 6336352				; 0060af60H
	jne	SHORT $LN2@
$LN3@:
	mov	eax, DWORD PTR [ebx+64]
	test	eax, eax
	je	SHORT $LN8@
	mov	eax, DWORD PTR [eax+8]
	test	eax, eax
	je	SHORT $LN8@
; Line 368
	push	eax
	push	ecx
	call	_setDslPedThrottle
	add	esp, 8
$LN8@:
; Line 370
	mov	eax, esi
$LN2@:
	pop	edi
	pop	esi
	pop	ebx
	ret	4
@setPedThrottle@12 ENDP
_TEXT	ENDS
; Function compile flags: /Ogtpy
;	COMDAT @shouldAllowSleep@4
_TEXT	SEGMENT
@shouldAllowSleep@4 PROC				; COMDAT
; _arg$ = ecx
; File C:\Program Files (x86)\Steam\steamapps\common\Bully Scholarship Edition\_derpy_script_loader\src\client\main.c
; Line 354
	mov	eax, DWORD PTR _g_dsl
	push	esi
	mov	esi, ecx
	test	eax, eax
	je	SHORT $LN2@
	push	eax
	call	_canDslForceSleep
	add	esp, 4
	test	eax, eax
	jne	SHORT $LN2@
; Line 355
	mov	eax, 1
	pop	esi
; Line 357
	ret	0
$LN2@:
; Line 356
	mov	ecx, esi
	mov	eax, 5182192				; 004f12f0H
	pop	esi
	jmp	eax
@shouldAllowSleep@4 ENDP
_TEXT	ENDS
; Function compile flags: /Ogtpy
;	COMDAT _setGamePaused
_TEXT	SEGMENT
_setGamePaused PROC					; COMDAT
; File C:\Program Files (x86)\Steam\steamapps\common\Bully Scholarship Edition\_derpy_script_loader\src\client\main.c
; Line 349
	mov	eax, DWORD PTR _g_dsl
	test	eax, eax
	je	SHORT $LN3@setGamePau
	push	eax
	call	_canDslPauseGame
	add	esp, 4
	test	eax, eax
	je	SHORT $LN2@setGamePau
$LN3@setGamePau:
; Line 350
	mov	eax, 4569104				; 0045b810H
	jmp	eax
$LN2@setGamePau:
; Line 351
	ret	0
_setGamePaused ENDP
_TEXT	ENDS
; Function compile flags: /Ogtpy
;	COMDAT @loadLuaScript@12
_TEXT	SEGMENT
_lua$ = 8						; size = 4
@loadLuaScript@12 PROC					; COMDAT
; _script$ = ecx
; _edx$ = edx
; File C:\Program Files (x86)\Steam\steamapps\common\Bully Scholarship Edition\_derpy_script_loader\src\client\main.c
; Line 341
	push	esi
; Line 343
	push	DWORD PTR _lua$[esp]
	mov	eax, 6135216				; 005d9db0H
	mov	esi, ecx
	call	eax
; Line 344
	mov	eax, DWORD PTR _g_dsl
	test	eax, eax
	je	SHORT $LN2@
; Line 345
	push	DWORD PTR _lua$[esp]
	push	esi
	push	eax
	call	_loadedDslGameScript
	add	esp, 12					; 0000000cH
$LN2@:
; Line 346
	pop	esi
	ret	4
@loadLuaScript@12 ENDP
_TEXT	ENDS
; Function compile flags: /Ogtpy
;	COMDAT _loadSaveGame
_TEXT	SEGMENT
_name$ = 8						; size = 4
_loadSaveGame PROC					; COMDAT
; File C:\Program Files (x86)\Steam\steamapps\common\Bully Scholarship Edition\_derpy_script_loader\src\client\main.c
; Line 337
	mov	eax, DWORD PTR _g_dsl
	test	eax, eax
	je	SHORT $LN2@loadSaveGa
	push	eax
	call	_canDslLoadSaveGame
	add	esp, 4
	test	eax, eax
	jne	SHORT $LN2@loadSaveGa
; Line 340
	ret	0
$LN2@loadSaveGa:
; Line 339
	mov	eax, 7559072				; 007357a0H
	jmp	eax
_loadSaveGame ENDP
_TEXT	ENDS
; Function compile flags: /Ogtpy
;	COMDAT @fadeCamera@20
_TEXT	SEGMENT
_timer$ = 8						; size = 4
_black$ = 12						; size = 4
_arg$ = 16						; size = 4
@fadeCamera@20 PROC					; COMDAT
; _manager$ = ecx
; _edx$ = edx
; File C:\Program Files (x86)\Steam\steamapps\common\Bully Scholarship Edition\_derpy_script_loader\src\client\main.c
; Line 331
	push	DWORD PTR _arg$[esp-4]
	movss	xmm0, DWORD PTR _timer$[esp]
	mov	eax, 5184208				; 004f1ad0H
	push	DWORD PTR _black$[esp]
	push	ecx
	movss	DWORD PTR [esp], xmm0
	call	eax
; Line 332
	mov	eax, DWORD PTR _g_dsl
	test	eax, eax
	je	SHORT $LN2@
; Line 333
	movss	xmm0, DWORD PTR _timer$[esp-4]
	push	ecx
	movss	DWORD PTR [esp], xmm0
	push	DWORD PTR _black$[esp]
	push	eax
	call	_setDslCameraFade
	add	esp, 12					; 0000000cH
$LN2@:
; Line 334
	ret	12					; 0000000cH
@fadeCamera@20 ENDP
_TEXT	ENDS
; Function compile flags: /Ogtpy
;	COMDAT @setPedStat@16
_TEXT	SEGMENT
_stat$ = 8						; size = 4
_value$ = 12						; size = 4
@setPedStat@16 PROC					; COMDAT
; _ped$ = ecx
; _edx$ = edx
; File C:\Program Files (x86)\Steam\steamapps\common\Bully Scholarship Edition\_derpy_script_loader\src\client\main.c
; Line 326
	mov	eax, DWORD PTR _g_dsl
	push	ebp
	mov	ebp, edx
	push	esi
	mov	esi, ecx
	test	eax, eax
	je	SHORT $LN3@
	push	DWORD PTR _value$[esp+4]
	push	DWORD PTR _stat$[esp+8]
	push	esi
	push	eax
	call	_canDslSetPedStat
	add	esp, 16					; 00000010H
	test	eax, eax
	je	SHORT $LN2@
$LN3@:
; Line 327
	push	DWORD PTR _value$[esp+4]
	mov	eax, 4681968				; 004770f0H
	mov	edx, ebp
	push	DWORD PTR _stat$[esp+8]
	mov	ecx, esi
	call	eax
$LN2@:
; Line 328
	pop	esi
	pop	ebp
	ret	8
@setPedStat@16 ENDP
_TEXT	ENDS
; Function compile flags: /Ogtpy
;	COMDAT @buildPlayer@12
_TEXT	SEGMENT
_arg$ = 8						; size = 4
@buildPlayer@12 PROC					; COMDAT
; _player$ = ecx
; _edx$ = edx
; File C:\Program Files (x86)\Steam\steamapps\common\Bully Scholarship Edition\_derpy_script_loader\src\client\main.c
; Line 321
	mov	eax, DWORD PTR _g_dsl
	push	ebx
	mov	ebx, edx
	push	esi
	mov	esi, ecx
	test	eax, eax
	je	SHORT $LN3@
	push	DWORD PTR _arg$[esp+4]
	push	esi
	push	eax
	call	_canDslBuildPlayer
	add	esp, 12					; 0000000cH
	test	eax, eax
	je	SHORT $LN2@
$LN3@:
; Line 322
	push	DWORD PTR _arg$[esp+4]
	mov	eax, 7129024				; 006cc7c0H
	mov	edx, ebx
	mov	ecx, esi
	call	eax
$LN2@:
; Line 323
	pop	esi
	pop	ebx
	ret	4
@buildPlayer@12 ENDP
_TEXT	ENDS
; Function compile flags: /Ogtpy
;	COMDAT _creatingPed
_TEXT	SEGMENT
_arg$ = 8						; size = 4
_creatingPed PROC					; COMDAT
; File C:\Program Files (x86)\Steam\steamapps\common\Bully Scholarship Edition\_derpy_script_loader\src\client\main.c
; Line 315
	mov	eax, DWORD PTR _g_dsl
	test	eax, eax
	je	SHORT $LN2@creatingPe
; Line 316
	push	eax
	call	_creatingDslPed
	add	esp, 4
$LN2@creatingPe:
; Line 317
	mov	eax, 4688352				; 004789e0H
	jmp	eax
_creatingPed ENDP
_TEXT	ENDS
; Function compile flags: /Ogtpy
;	COMDAT _changeDisplaySettings@8
_TEXT	SEGMENT
_mode$ = 8						; size = 4
_flags$ = 12						; size = 4
_changeDisplaySettings@8 PROC				; COMDAT
; File C:\Program Files (x86)\Steam\steamapps\common\Bully Scholarship Edition\_derpy_script_loader\src\client\main.c
; Line 307
	mov	eax, DWORD PTR _g_dsl
	test	eax, eax
	je	SHORT $LN2@changeDisp
	push	eax
	call	_canDslGoFullscreen
	add	esp, 4
	test	eax, eax
	jne	SHORT $LN2@changeDisp
; Line 310
	ret	8
$LN2@changeDisp:
; Line 309
	jmp	DWORD PTR __imp__ChangeDisplaySettingsA@8
_changeDisplaySettings@8 ENDP
_TEXT	ENDS
; Function compile flags: /Ogtpy
;	COMDAT _showAfterWindowCreated@8
_TEXT	SEGMENT
_window$ = 8						; size = 4
_show$ = 12						; size = 4
_showAfterWindowCreated@8 PROC				; COMDAT
; File C:\Program Files (x86)\Steam\steamapps\common\Bully Scholarship Edition\_derpy_script_loader\src\client\main.c
; Line 301
	mov	eax, DWORD PTR _g_dsl
	test	eax, eax
	je	SHORT $LN2@showAfterW
; Line 302
	push	0
	push	DWORD PTR _window$[esp]
	push	eax
	call	_updateDslWindow
	add	esp, 12					; 0000000cH
$LN2@showAfterW:
; Line 303
	jmp	DWORD PTR __imp__ShowWindow@8
_showAfterWindowCreated@8 ENDP
_TEXT	ENDS
; Function compile flags: /Ogtpy
;	COMDAT _unfocusWindow
_TEXT	SEGMENT
_focus$ = 8						; size = 4
_unfocusWindow PROC					; COMDAT
; File C:\Program Files (x86)\Steam\steamapps\common\Bully Scholarship Edition\_derpy_script_loader\src\client\main.c
; Line 296
	mov	eax, DWORD PTR _g_dsl
	test	eax, eax
	je	SHORT $LN3@unfocusWin
	push	eax
	call	_canDslBeMinimized
	add	esp, 4
	test	eax, eax
	je	SHORT $LN2@unfocusWin
$LN3@unfocusWin:
; Line 297
	mov	eax, 4218288				; 00405db0H
	jmp	eax
$LN2@unfocusWin:
; Line 298
	ret	0
_unfocusWindow ENDP
_TEXT	ENDS
; Function compile flags: /Ogtpy
;	COMDAT _updateWindow
_TEXT	SEGMENT
_updateWindow PROC					; COMDAT
; File C:\Program Files (x86)\Steam\steamapps\common\Bully Scholarship Edition\_derpy_script_loader\src\client\main.c
; Line 285
	push	esi
; Line 289
	mov	eax, 4218720				; 00405f60H
	call	eax
	mov	esi, eax
; Line 290
	mov	eax, DWORD PTR _g_dsl
	test	eax, eax
	je	SHORT $LN4@updateWind
; Line 291
	push	1
	push	DWORD PTR ds:12417020
	push	eax
	call	_updateDslWindow
	add	esp, 12					; 0000000cH
$LN4@updateWind:
; Line 293
	mov	eax, esi
	pop	esi
	ret	0
_updateWindow ENDP
_TEXT	ENDS
; Function compile flags: /Ogtpy
;	COMDAT _writeSaveFile
_TEXT	SEGMENT
_write$ = -4						; size = 4
_file$ = 8						; size = 4
_buffer$ = 12						; size = 4
_bytes$ = 16						; size = 4
_writeSaveFile PROC					; COMDAT
; File C:\Program Files (x86)\Steam\steamapps\common\Bully Scholarship Edition\_derpy_script_loader\src\client\main.c
; Line 266
	push	ecx
	push	esi
; Line 270
	mov	esi, DWORD PTR _file$[esp+4]
	lea	eax, DWORD PTR _bytes$[esp+4]
	push	0
	push	eax
	push	DWORD PTR _bytes$[esp+12]
	push	DWORD PTR _buffer$[esp+16]
	push	esi
	call	DWORD PTR __imp__WriteFile@20
	test	eax, eax
	je	SHORT $LN8@writeSaveF
; Line 272
	mov	eax, DWORD PTR _g_dsl
	test	eax, eax
	je	SHORT $LN3@writeSaveF
; Line 273
	mov	ecx, DWORD PTR _g_savedata
	test	ecx, ecx
	je	SHORT $LN5@writeSaveF
; Line 274
	push	ecx
	call	_free
; Line 275
	mov	eax, DWORD PTR _g_dsl
	add	esp, 4
	mov	DWORD PTR _g_savedata, 0
$LN5@writeSaveF:
; Line 277
	push	esi
	push	eax
	call	_writeDslSaveData
	add	esp, 8
	test	eax, eax
	jne	SHORT $LN10@writeSaveF
$LN8@writeSaveF:
; Line 280
	xor	eax, eax
	pop	esi
; Line 282
	pop	ecx
	ret	0
$LN3@writeSaveF:
; Line 279
	mov	eax, DWORD PTR _g_savedata
	test	eax, eax
	je	SHORT $LN10@writeSaveF
	push	0
	lea	ecx, DWORD PTR _write$[esp+12]
	push	ecx
	push	DWORD PTR [eax]
	add	eax, 4
	push	eax
	push	esi
	call	DWORD PTR __imp__WriteFile@20
	test	eax, eax
	je	SHORT $LN8@writeSaveF
	mov	eax, DWORD PTR _bytes$[esp+4]
	cmp	DWORD PTR _write$[esp+8], eax
	jne	SHORT $LN8@writeSaveF
	pop	esi
; Line 282
	pop	ecx
	ret	0
$LN10@writeSaveF:
; Line 279
	mov	eax, DWORD PTR _bytes$[esp+4]
	pop	esi
; Line 282
	pop	ecx
	ret	0
_writeSaveFile ENDP
_TEXT	ENDS
; Function compile flags: /Ogtpy
;	COMDAT _readSaveFile2
_TEXT	SEGMENT
_file$ = 8						; size = 4
_buffer$ = 12						; size = 4
_bytes$ = 16						; size = 4
_readSaveFile2 PROC					; COMDAT
; File C:\Program Files (x86)\Steam\steamapps\common\Bully Scholarship Edition\_derpy_script_loader\src\client\main.c
; Line 263
	mov	DWORD PTR _g_waitforsave, 1
; Line 264
	jmp	_readSaveFile
_readSaveFile2 ENDP
_TEXT	ENDS
; Function compile flags: /Ogtpy
;	COMDAT _readSaveFile
_TEXT	SEGMENT
_read$ = -4						; size = 4
_file$ = 8						; size = 4
_buffer$ = 12						; size = 4
_bytes$ = 16						; size = 4
_readSaveFile PROC					; COMDAT
; File C:\Program Files (x86)\Steam\steamapps\common\Bully Scholarship Edition\_derpy_script_loader\src\client\main.c
; Line 229
	push	ecx
; Line 233
	mov	eax, DWORD PTR _g_savedata
	test	eax, eax
	je	SHORT $LN2@readSaveFi
; Line 234
	push	eax
	call	_free
	add	esp, 4
; Line 235
	mov	DWORD PTR _g_savedata, 0
$LN2@readSaveFi:
; Line 237
	push	esi
	push	edi
	mov	edi, DWORD PTR _file$[esp+8]
	lea	eax, DWORD PTR _bytes$[esp+8]
	push	0
	push	eax
	push	DWORD PTR _bytes$[esp+16]
	push	DWORD PTR _buffer$[esp+20]
	push	edi
	call	DWORD PTR __imp__ReadFile@20
	test	eax, eax
	je	$LN11@readSaveFi
; Line 239
	push	0
	push	edi
	call	DWORD PTR __imp__GetFileSize@8
	mov	esi, eax
; Line 240
	cmp	esi, -1
	je	$LN11@readSaveFi
; Line 242
	mov	eax, DWORD PTR _bytes$[esp+8]
	cmp	esi, eax
	jb	$LN1@readSaveFi
; Line 244
	sub	esi, eax
; Line 245
	lea	eax, DWORD PTR [esi+4]
	push	eax
	call	_malloc
	add	esp, 4
	mov	DWORD PTR _g_savedata, eax
; Line 246
	test	eax, eax
	je	SHORT $LN11@readSaveFi
; Line 249
	push	0
	lea	ecx, DWORD PTR _read$[esp+16]
	mov	DWORD PTR [eax], esi
	push	ecx
	push	esi
	add	eax, 4
	push	eax
	push	edi
	call	DWORD PTR __imp__ReadFile@20
	test	eax, eax
	je	SHORT $LN8@readSaveFi
	cmp	DWORD PTR _read$[esp+12], esi
	jne	SHORT $LN8@readSaveFi
; Line 254
	mov	ecx, DWORD PTR _g_dsl
	test	ecx, ecx
	je	SHORT $LN9@readSaveFi
	cmp	DWORD PTR _g_waitforsave, 0
	jne	SHORT $LN9@readSaveFi
; Line 255
	mov	eax, DWORD PTR _g_savedata
	push	DWORD PTR [eax]
	add	eax, 4
	push	eax
	push	ecx
	call	_readDslSaveData
; Line 256
	push	DWORD PTR _g_savedata
	call	_free
	add	esp, 16					; 00000010H
; Line 257
	mov	DWORD PTR _g_savedata, 0
$LN9@readSaveFi:
; Line 259
	mov	eax, DWORD PTR _bytes$[esp+8]
	pop	edi
; Line 260
	pop	esi
	pop	ecx
	ret	0
$LN8@readSaveFi:
; Line 250
	push	DWORD PTR _g_savedata
	call	_free
	add	esp, 4
; Line 251
	mov	DWORD PTR _g_savedata, 0
$LN11@readSaveFi:
; Line 260
	xor	eax, eax
$LN1@readSaveFi:
	pop	edi
	pop	esi
	pop	ecx
	ret	0
_readSaveFile ENDP
_TEXT	ENDS
; Function compile flags: /Ogtpy
;	COMDAT _destroyLuaState
_TEXT	SEGMENT
_lua$ = 8						; size = 4
_destroyLuaState PROC					; COMDAT
; File C:\Program Files (x86)\Steam\steamapps\common\Bully Scholarship Edition\_derpy_script_loader\src\client\main.c
; Line 218
	mov	eax, DWORD PTR _g_dsl
	test	eax, eax
	je	SHORT $LN2@destroyLua
; Line 219
	push	eax
	call	_saveDslData
	add	esp, 4
	mov	DWORD PTR _g_data, eax
$LN2@destroyLua:
; Line 220
	push	DWORD PTR _lua$[esp-4]
	mov	eax, 7610544				; 007420b0H
	call	eax
; Line 221
	mov	eax, DWORD PTR _g_dsl
	add	esp, 4
	test	eax, eax
	je	SHORT $LN5@destroyLua
; Line 222
	push	eax
	call	_closeDsl
	add	esp, 4
; Line 223
	mov	DWORD PTR _g_dsl, 0
$LN5@destroyLua:
; Line 226
	mov	DWORD PTR _g_waitforsave, 0
	ret	0
_destroyLuaState ENDP
_TEXT	ENDS
; Function compile flags: /Ogtpy
;	COMDAT _updateDrawing
_TEXT	SEGMENT
_arg$ = 8						; size = 4
_updateDrawing PROC					; COMDAT
; File C:\Program Files (x86)\Steam\steamapps\common\Bully Scholarship Edition\_derpy_script_loader\src\client\main.c
; Line 202
	mov	eax, DWORD PTR _g_dsl
	test	eax, eax
	je	SHORT $LN2@updateDraw
; Line 203
	push	eax
	call	_updateDslBeforeDraw
	add	esp, 4
$LN2@updateDraw:
; Line 204
	mov	eax, 4435168				; 0043ace0H
	jmp	eax
_updateDrawing ENDP
_TEXT	ENDS
; Function compile flags: /Ogtpy
;	COMDAT _fadeGameScreen
_TEXT	SEGMENT
_a$ = 8							; size = 4
_b$ = 12						; size = 4
_fadeGameScreen PROC					; COMDAT
; File C:\Program Files (x86)\Steam\steamapps\common\Bully Scholarship Edition\_derpy_script_loader\src\client\main.c
; Line 196
	mov	eax, DWORD PTR _g_dsl
	test	eax, eax
	je	SHORT $LN2@fadeGameSc
; Line 197
	push	eax
	call	_updateDslBeforeFade
	add	esp, 4
$LN2@fadeGameSc:
; Line 198
	mov	eax, 4440160				; 0043c060H
	jmp	eax
_fadeGameScreen ENDP
_TEXT	ENDS
; Function compile flags: /Ogtpy
;	COMDAT _drawGameWorld
_TEXT	SEGMENT
_drawGameWorld PROC					; COMDAT
; File C:\Program Files (x86)\Steam\steamapps\common\Bully Scholarship Edition\_derpy_script_loader\src\client\main.c
; Line 190
	mov	eax, 5628608				; 0055e2c0H
	call	eax
; Line 191
	mov	eax, DWORD PTR _g_dsl
	test	eax, eax
	je	SHORT $LN2@drawGameWo
; Line 192
	push	eax
	call	_updateDslAfterWorld
	pop	ecx
$LN2@drawGameWo:
; Line 193
	ret	0
_drawGameWorld ENDP
_TEXT	ENDS
; Function compile flags: /Ogtpy
;	COMDAT @updateScripts@12
_TEXT	SEGMENT
_arg$ = 8						; size = 4
@updateScripts@12 PROC					; COMDAT
; _game$ = ecx
; _edx$ = edx
; File C:\Program Files (x86)\Steam\steamapps\common\Bully Scholarship Edition\_derpy_script_loader\src\client\main.c
; Line 184
	push	DWORD PTR _arg$[esp-4]
	mov	eax, 6142784				; 005dbb40H
	call	eax
; Line 185
	mov	eax, DWORD PTR _g_dsl
	test	eax, eax
	je	SHORT $LN2@
; Line 186
	push	eax
	call	_updateDslAfterScripts
	pop	ecx
$LN2@:
; Line 187
	ret	4
@updateScripts@12 ENDP
_TEXT	ENDS
; Function compile flags: /Ogtpy
;	COMDAT _updateInputs2b@8
_TEXT	SEGMENT
_index$ = 8						; size = 4
_state$ = 12						; size = 4
_updateInputs2b@8 PROC					; COMDAT
; File C:\Program Files (x86)\Steam\steamapps\common\Bully Scholarship Edition\_derpy_script_loader\src\client\main.c
; Line 170
	push	esi
; Line 174
	push	DWORD PTR _state$[esp]
	mov	eax, 8760214				; 0085ab96H
	push	DWORD PTR _index$[esp+4]
	call	eax
	mov	esi, eax
; Line 175
	mov	eax, DWORD PTR _g_controller
	test	eax, eax
	je	SHORT $LN5@updateInpu
; Line 176
	mov	ecx, DWORD PTR _g_dsl
	test	ecx, ecx
	je	SHORT $LN3@updateInpu
; Line 177
	push	eax
	push	ecx
	call	_updateDslController
	add	esp, 8
$LN3@updateInpu:
; Line 178
	mov	DWORD PTR _g_controller, 0
$LN5@updateInpu:
; Line 181
	mov	eax, esi
	pop	esi
	ret	8
_updateInputs2b@8 ENDP
_TEXT	ENDS
; Function compile flags: /Ogtpy
;	COMDAT _updateInputs2a
_TEXT	SEGMENT
_updateInputs2a PROC					; COMDAT
; File C:\Program Files (x86)\Steam\steamapps\common\Bully Scholarship Edition\_derpy_script_loader\src\client\main.c
; Line 163
	mov	eax, DWORD PTR _g_controller
	test	eax, eax
	je	SHORT $LN2@updateInpu
; Line 164
	mov	ecx, DWORD PTR _g_dsl
	test	ecx, ecx
	je	SHORT $LN3@updateInpu
; Line 165
	push	eax
	push	ecx
	call	_updateDslController
	add	esp, 8
$LN3@updateInpu:
; Line 166
	mov	DWORD PTR _g_controller, 0
$LN2@updateInpu:
; Line 168
	mov	eax, 4570272				; 0045bca0H
	jmp	eax
_updateInputs2a ENDP
_TEXT	ENDS
; Function compile flags: /Ogtpy
;	COMDAT @updateInputs@4
_TEXT	SEGMENT
@updateInputs@4 PROC					; COMDAT
; _controller$ = ecx
; File C:\Program Files (x86)\Steam\steamapps\common\Bully Scholarship Edition\_derpy_script_loader\src\client\main.c
; Line 158
	mov	DWORD PTR _g_controller, ecx
; Line 159
	mov	eax, 5295408				; 0050cd30H
	jmp	eax
@updateInputs@4 ENDP
_TEXT	ENDS
; Function compile flags: /Ogtpy
;	COMDAT _updateController
_TEXT	SEGMENT
_controller$ = 8					; size = 4
_updateController PROC					; COMDAT
; File C:\Program Files (x86)\Steam\steamapps\common\Bully Scholarship Edition\_derpy_script_loader\src\client\main.c
; Line 152
	push	DWORD PTR _controller$[esp-4]
	mov	eax, 7570800				; 00738570H
	call	eax
; Line 153
	mov	eax, DWORD PTR _g_dsl
	add	esp, 4
	test	eax, eax
	je	SHORT $LN2@updateCont
	cmp	DWORD PTR _controller$[esp-4], 34408492	; 020d082cH
	jne	SHORT $LN2@updateCont
; Line 154
	mov	DWORD PTR _controller$[esp-4], eax
	jmp	_updateDslControllers
$LN2@updateCont:
; Line 155
	ret	0
_updateController ENDP
_TEXT	ENDS
; Function compile flags: /Ogtpy
;	COMDAT _skipGameUpdate
_TEXT	SEGMENT
_arg$ = 8						; size = 4
_skipGameUpdate PROC					; COMDAT
; File C:\Program Files (x86)\Steam\steamapps\common\Bully Scholarship Edition\_derpy_script_loader\src\client\main.c
; Line 146
	mov	eax, DWORD PTR _g_dsl
	test	eax, eax
	je	SHORT $LN2@skipGameUp
; Line 147
	push	eax
	call	_updateDslAfterSkipped
	add	esp, 4
$LN2@skipGameUp:
; Line 148
	mov	eax, 4569440				; 0045b960H
	jmp	eax
_skipGameUpdate ENDP
_TEXT	ENDS
; Function compile flags: /Ogtpy
;	COMDAT _updateSystem
_TEXT	SEGMENT
_updateSystem PROC					; COMDAT
; File C:\Program Files (x86)\Steam\steamapps\common\Bully Scholarship Edition\_derpy_script_loader\src\client\main.c
; Line 140
	mov	eax, DWORD PTR _g_dsl
	test	eax, eax
	je	SHORT $LN2@updateSyst
; Line 141
	push	eax
	call	_updateDslBeforeSystem
	add	esp, 4
$LN2@updateSyst:
; Line 142
	mov	eax, 4216448				; 00405680H
	jmp	eax
_updateSystem ENDP
_TEXT	ENDS
; Function compile flags: /Ogtpy
;	COMDAT @initLuaState@4
_TEXT	SEGMENT
@initLuaState@4 PROC					; COMDAT
; _game$ = ecx
; File C:\Program Files (x86)\Steam\steamapps\common\Bully Scholarship Edition\_derpy_script_loader\src\client\main.c
; Line 121
	mov	eax, DWORD PTR _g_dsl
	push	esi
	mov	esi, ecx
	test	eax, eax
	je	SHORT $LN2@
; Line 122
	push	eax
	call	_saveDslData
; Line 123
	push	DWORD PTR _g_dsl
	mov	DWORD PTR _g_data, eax
	call	_closeDsl
	add	esp, 8
; Line 124
	mov	DWORD PTR _g_dsl, 0
$LN2@:
; Line 126
	mov	eax, 6140864				; 005db3c0H
	mov	ecx, esi
	call	eax
; Line 127
	mov	eax, DWORD PTR _g_d3d9device
	test	eax, eax
	je	SHORT $LN4@
; Line 128
	push	DWORD PTR _g_data
	push	eax
	push	esi
	call	_openDsl
	mov	ecx, eax
	add	esp, 12					; 0000000cH
	mov	DWORD PTR _g_dsl, ecx
; Line 129
	test	ecx, ecx
	je	SHORT $LN4@
	mov	eax, DWORD PTR _g_savedata
	test	eax, eax
	je	SHORT $LN4@
; Line 130
	push	DWORD PTR [eax]
	add	eax, 4
	push	eax
	push	ecx
	call	_readDslSaveData
; Line 131
	push	DWORD PTR _g_savedata
	call	_free
	add	esp, 16					; 00000010H
; Line 132
	mov	DWORD PTR _g_savedata, 0
$LN4@:
; Line 135
	pop	esi
	ret	0
@initLuaState@4 ENDP
_TEXT	ENDS
; Function compile flags: /Ogtpy
;	COMDAT _loadGame
_TEXT	SEGMENT
_world$ = 8						; size = 4
_loadGame PROC						; COMDAT
; File C:\Program Files (x86)\Steam\steamapps\common\Bully Scholarship Edition\_derpy_script_loader\src\client\main.c
; Line 108
	push	DWORD PTR _world$[esp-4]
	mov	eax, 4386784				; 0042efe0H
	call	eax
; Line 109
	mov	eax, DWORD PTR _g_dsl
	add	esp, 4
	test	eax, eax
	je	SHORT $LN2@loadGame
; Line 110
	push	eax
	call	_saveDslData
; Line 111
	push	DWORD PTR _g_dsl
	mov	DWORD PTR _g_data, eax
	call	_closeDsl
	add	esp, 8
; Line 112
	mov	DWORD PTR _g_dsl, 0
$LN2@loadGame:
; Line 114
	mov	eax, DWORD PTR _g_d3d9device
	test	eax, eax
	je	SHORT $LN3@loadGame
	push	DWORD PTR _g_data
	push	eax
	push	0
	call	_openDsl
	mov	ecx, DWORD PTR _g_waitforsave
	add	esp, 12					; 0000000cH
	test	eax, eax
	mov	DWORD PTR _g_dsl, eax
	mov	edx, 1
	cmovne	ecx, edx
	mov	DWORD PTR _g_waitforsave, ecx
$LN3@loadGame:
; Line 116
	ret	0
_loadGame ENDP
_TEXT	ENDS
; Function compile flags: /Ogtpy
;	COMDAT _startGame
_TEXT	SEGMENT
_arg$ = 8						; size = 4
_startGame PROC						; COMDAT
; File C:\Program Files (x86)\Steam\steamapps\common\Bully Scholarship Edition\_derpy_script_loader\src\client\main.c
; Line 98
	push	0
	push	0
	push	0
	call	_openDsl
	add	esp, 12					; 0000000cH
	mov	DWORD PTR _g_dsl, eax
	test	eax, eax
	je	SHORT $LN2@startGame
; Line 99
	push	eax
	call	_initDslContent
	add	esp, 4
; Line 100
	mov	DWORD PTR _g_waitforsave, 1
$LN2@startGame:
; Line 102
	mov	eax, 6221984				; 005ef0a0H
	jmp	eax
_startGame ENDP
_TEXT	ENDS
; Function compile flags: /Ogtpy
;	COMDAT _setupDevice@28
_TEXT	SEGMENT
_arg$ = 8						; size = 4
_adapter$ = 12						; size = 4
_type$ = 16						; size = 4
_focus$ = 20						; size = 4
_behavior$ = 24						; size = 4
_presentation$ = 28					; size = 4
_device$ = 32						; size = 4
_setupDevice@28 PROC					; COMDAT
; File C:\Program Files (x86)\Steam\steamapps\common\Bully Scholarship Edition\_derpy_script_loader\src\client\main.c
; Line 89
	mov	eax, DWORD PTR ds:34499844
	push	esi
	mov	esi, DWORD PTR _device$[esp]
	push	esi
	push	DWORD PTR _presentation$[esp+4]
	mov	ecx, DWORD PTR [eax]
	push	DWORD PTR _behavior$[esp+8]
	push	DWORD PTR _focus$[esp+12]
	push	DWORD PTR _type$[esp+16]
	push	DWORD PTR _adapter$[esp+20]
	push	eax
	mov	eax, DWORD PTR [ecx+64]
	call	eax
; Line 90
	test	eax, eax
	jne	SHORT $LN2@setupDevic
; Line 91
	mov	ecx, DWORD PTR [esi]
	mov	DWORD PTR _g_d3d9device, ecx
$LN2@setupDevic:
; Line 93
	pop	esi
	ret	28					; 0000001cH
_setupDevice@28 ENDP
_TEXT	ENDS
END
