; Listing generated by Microsoft (R) Optimizing Compiler Version 19.23.28107.0 

	TITLE	C:\Program Files (x86)\Steam\steamapps\common\Bully Scholarship Edition\_derpy_script_loader\src\client\render.cpp
	.686P
	.XMM
	include listing.inc
	.model	flat

INCLUDELIB LIBCMT
INCLUDELIB OLDNAMES

CONST	SEGMENT
?g_quadindices@@3QBHB DD 00H				; g_quadindices
	DD	01H
	DD	02H
	DD	00H
	DD	02H
	DD	03H
CONST	ENDS
PUBLIC	___local_stdio_printf_options
PUBLIC	__vsnprintf_l
PUBLIC	__vsprintf_l
PUBLIC	_sprintf
PUBLIC	_createRenderTextureEx
PUBLIC	_destroyRenderTexture
PUBLIC	_getRenderTextureAspect
PUBLIC	_getRenderTextureResolution
PUBLIC	_createRenderTextureTarget
PUBLIC	_fillRenderTextureBackBuffer
PUBLIC	_drawRenderRectangle
PUBLIC	_drawRenderTextureUV
PUBLIC	_drawRenderTextureUV2
PUBLIC	_clearRenderDisplay
PUBLIC	_drawRenderString
PUBLIC	_createRenderFont
PUBLIC	_destroyRenderFont
PUBLIC	_getRenderStringCacheCount
PUBLIC	_startRender
PUBLIC	_finishRender
PUBLIC	_startRenderDwriteCycle
PUBLIC	_finishRenderDwriteCycle
PUBLIC	_isRenderActive
PUBLIC	_getRenderAspect
PUBLIC	_getRenderResolution
PUBLIC	_createRender
PUBLIC	_destroyRender
PUBLIC	_getRenderError
PUBLIC	_getRenderErrorString
PUBLIC	?_OptionsStorage@?1??__local_stdio_printf_options@@9@4_KA ; `__local_stdio_printf_options'::`2'::_OptionsStorage
PUBLIC	??_C@_06IJIHIEPH@1?46?437@			; `string'
PUBLIC	??_C@_0BD@NLOLCDDC@corrupted?5png?5file@	; `string'
PUBLIC	??_C@_0BE@DGIHAGAE@really?5severe?5error@	; `string'
PUBLIC	??_C@_0P@EBPDKGHP@renderer?5is?5ok@		; `string'
PUBLIC	??_C@_0O@BFJCFAAK@unknown?5error@		; `string'
PUBLIC	??_C@_0BC@GHGDHPHO@unknown?5gdi?5error@		; `string'
PUBLIC	??_C@_0BD@EECPMFML@unknown?5d3d9?5error@	; `string'
PUBLIC	??_C@_0BF@EMOHGGEH@unknown?5dwrite?5error@	; `string'
PUBLIC	??_C@_0BK@BCKPCAAA@failed?5to?5allocate?5memory@ ; `string'
PUBLIC	??_C@_0BE@HHDIFFCA@failed?5to?5read?5file@	; `string'
PUBLIC	??_C@_0N@DBGDKEE@missing?5file@			; `string'
PUBLIC	??_C@_0N@JEIBBCAB@invalid?5file@		; `string'
PUBLIC	??_C@_0BB@CNAADGED@unsupported?5file@		; `string'
PUBLIC	??_C@_0BC@EFNKOJNF@not?5ready?5to?5draw@	; `string'
PUBLIC	??_C@_0BH@BNEHNMLH@bad?5arguments?5for?5call@	; `string'
PUBLIC	??_C@_0BI@DIBCAMOG@text?5draw?5limit?5reached@	; `string'
PUBLIC	??_C@_0BO@KCKFEELI@text?5isn?8t?5big?5enough?5to?5draw@ ; `string'
PUBLIC	??_C@_0CE@MDMHEHOM@dwrite?5error?3?5failed?5to?5get?5int@ ; `string'
PUBLIC	??_C@_0CG@LEGGLHGO@dwrite?5error?3?5failed?5to?5create?5@ ; `string'
PUBLIC	??_C@_0CG@HNFMEAME@dwrite?5error?3?5failed?5to?5create?5@ ; `string'
PUBLIC	??_C@_0CG@CFNAIMMM@dwrite?5error?3?5failed?5to?5create?5@ ; `string'
PUBLIC	??_C@_0CH@HDJOMMEH@dwrite?5error?3?5failed?5to?5create?5@ ; `string'
PUBLIC	??_C@_0CG@FLKFKECP@dwrite?5error?3?5failed?5to?5query?5m@ ; `string'
PUBLIC	??_C@_0CC@CMEKACBM@dwrite?5error?3?5failed?5to?5draw?5te@ ; `string'
PUBLIC	??_C@_0BK@NNLBIDP@different?5texture?5formats@	; `string'
PUBLIC	??_C@_0BJ@NHOKHELG@failed?5to?5create?5texture@	; `string'
PUBLIC	??_C@_0BB@IDBDENEI@invalid?5viewport@		; `string'
PUBLIC	??_C@_0BH@JLEIFCGN@unknown?5error?5code?3?5?$CFd@ ; `string'
PUBLIC	___isa_available_default
PUBLIC	__real@3d89374c
PUBLIC	__real@3dcccccd
PUBLIC	__real@3f000000
PUBLIC	__real@3f800000
PUBLIC	__xmm@00000003000000020000000100000000
PUBLIC	__xmm@41f00000000000000000000000000000
PUBLIC	__xmm@80000000800000008000000080000000
EXTRN	_fread:PROC
EXTRN	___stdio_common_vsprintf:PROC
EXTRN	_free:PROC
EXTRN	_malloc:PROC
EXTRN	_readDslFile:PROC
EXTRN	_createFontRenderer:PROC
EXTRN	_destroyFontRenderer:PROC
EXTRN	_createFontRendererFont:PROC
EXTRN	_destroyFontRendererFont:PROC
EXTRN	_startFontRendererCycle:PROC
EXTRN	_finishFontRendererCycle:PROC
EXTRN	_drawFontRendererTexture:PROC
EXTRN	_getFontRendererCacheCount:PROC
EXTRN	_longjmp:PROC
EXTRN	_png_set_sig_bytes:PROC
EXTRN	_png_sig_cmp:PROC
EXTRN	_png_create_read_struct:PROC
EXTRN	_png_set_longjmp_fn:PROC
EXTRN	_png_create_info_struct:PROC
EXTRN	_png_read_info:PROC
EXTRN	_png_set_palette_to_rgb:PROC
EXTRN	_png_set_tRNS_to_alpha:PROC
EXTRN	_png_set_bgr:PROC
EXTRN	_png_set_gray_to_rgb:PROC
EXTRN	_png_set_add_alpha:PROC
EXTRN	_png_set_packing:PROC
EXTRN	_png_set_interlace_handling:PROC
EXTRN	_png_set_strip_16:PROC
EXTRN	_png_read_update_info:PROC
EXTRN	_png_read_image:PROC
EXTRN	_png_read_end:PROC
EXTRN	_png_destroy_read_struct:PROC
EXTRN	_png_init_io:PROC
EXTRN	_png_set_read_fn:PROC
EXTRN	_png_get_io_ptr:PROC
EXTRN	_png_error:PROC
EXTRN	_png_get_valid:PROC
EXTRN	_png_get_rowbytes:PROC
EXTRN	_png_get_IHDR:PROC
EXTRN	@__security_check_cookie@4:PROC
EXTRN	__CIatan2:PROC
EXTRN	__libm_sse2_cos_precise:PROC
EXTRN	__libm_sse2_sin_precise:PROC
EXTRN	__libm_sse2_sqrt_precise:PROC
EXTRN	__setjmp3:PROC
EXTRN	___isa_available:DWORD
EXTRN	___security_cookie:DWORD
EXTRN	__fltused:DWORD
;	COMDAT ?_OptionsStorage@?1??__local_stdio_printf_options@@9@4_KA
_BSS	SEGMENT
?_OptionsStorage@?1??__local_stdio_printf_options@@9@4_KA DQ 01H DUP (?) ; `__local_stdio_printf_options'::`2'::_OptionsStorage
_BSS	ENDS
;	COMDAT ___isa_available_default
_BSS	SEGMENT
___isa_available_default DD 01H DUP (?)
_BSS	ENDS
;	COMDAT __xmm@80000000800000008000000080000000
CONST	SEGMENT
__xmm@80000000800000008000000080000000 DB 00H, 00H, 00H, 080H, 00H, 00H, 00H
	DB	080H, 00H, 00H, 00H, 080H, 00H, 00H, 00H, 080H
CONST	ENDS
;	COMDAT __xmm@41f00000000000000000000000000000
CONST	SEGMENT
__xmm@41f00000000000000000000000000000 DB 00H, 00H, 00H, 00H, 00H, 00H, 00H
	DB	00H, 00H, 00H, 00H, 00H, 00H, 00H, 0f0H, 'A'
CONST	ENDS
;	COMDAT __xmm@00000003000000020000000100000000
CONST	SEGMENT
__xmm@00000003000000020000000100000000 DB 00H, 00H, 00H, 00H, 01H, 00H, 00H
	DB	00H, 02H, 00H, 00H, 00H, 03H, 00H, 00H, 00H
CONST	ENDS
;	COMDAT __real@3f800000
CONST	SEGMENT
__real@3f800000 DD 03f800000r			; 1
CONST	ENDS
;	COMDAT __real@3f000000
CONST	SEGMENT
__real@3f000000 DD 03f000000r			; 0.5
CONST	ENDS
;	COMDAT __real@3dcccccd
CONST	SEGMENT
__real@3dcccccd DD 03dcccccdr			; 0.1
CONST	ENDS
;	COMDAT __real@3d89374c
CONST	SEGMENT
__real@3d89374c DD 03d89374cr			; 0.067
CONST	ENDS
;	COMDAT ??_C@_0BH@JLEIFCGN@unknown?5error?5code?3?5?$CFd@
CONST	SEGMENT
??_C@_0BH@JLEIFCGN@unknown?5error?5code?3?5?$CFd@ DB 'unknown error code:'
	DB	' %d', 00H					; `string'
CONST	ENDS
;	COMDAT ??_C@_0BB@IDBDENEI@invalid?5viewport@
CONST	SEGMENT
??_C@_0BB@IDBDENEI@invalid?5viewport@ DB 'invalid viewport', 00H ; `string'
CONST	ENDS
;	COMDAT ??_C@_0BJ@NHOKHELG@failed?5to?5create?5texture@
CONST	SEGMENT
??_C@_0BJ@NHOKHELG@failed?5to?5create?5texture@ DB 'failed to create text'
	DB	'ure', 00H					; `string'
CONST	ENDS
;	COMDAT ??_C@_0BK@NNLBIDP@different?5texture?5formats@
CONST	SEGMENT
??_C@_0BK@NNLBIDP@different?5texture?5formats@ DB 'different texture form'
	DB	'ats', 00H					; `string'
CONST	ENDS
;	COMDAT ??_C@_0CC@CMEKACBM@dwrite?5error?3?5failed?5to?5draw?5te@
CONST	SEGMENT
??_C@_0CC@CMEKACBM@dwrite?5error?3?5failed?5to?5draw?5te@ DB 'dwrite erro'
	DB	'r: failed to draw text', 00H		; `string'
CONST	ENDS
;	COMDAT ??_C@_0CG@FLKFKECP@dwrite?5error?3?5failed?5to?5query?5m@
CONST	SEGMENT
??_C@_0CG@FLKFKECP@dwrite?5error?3?5failed?5to?5query?5m@ DB 'dwrite erro'
	DB	'r: failed to query monitor', 00H		; `string'
CONST	ENDS
;	COMDAT ??_C@_0CH@HDJOMMEH@dwrite?5error?3?5failed?5to?5create?5@
CONST	SEGMENT
??_C@_0CH@HDJOMMEH@dwrite?5error?3?5failed?5to?5create?5@ DB 'dwrite erro'
	DB	'r: failed to create factory', 00H		; `string'
CONST	ENDS
;	COMDAT ??_C@_0CG@CFNAIMMM@dwrite?5error?3?5failed?5to?5create?5@
CONST	SEGMENT
??_C@_0CG@CFNAIMMM@dwrite?5error?3?5failed?5to?5create?5@ DB 'dwrite erro'
	DB	'r: failed to create layout', 00H		; `string'
CONST	ENDS
;	COMDAT ??_C@_0CG@HNFMEAME@dwrite?5error?3?5failed?5to?5create?5@
CONST	SEGMENT
??_C@_0CG@HNFMEAME@dwrite?5error?3?5failed?5to?5create?5@ DB 'dwrite erro'
	DB	'r: failed to create format', 00H		; `string'
CONST	ENDS
;	COMDAT ??_C@_0CG@LEGGLHGO@dwrite?5error?3?5failed?5to?5create?5@
CONST	SEGMENT
??_C@_0CG@LEGGLHGO@dwrite?5error?3?5failed?5to?5create?5@ DB 'dwrite erro'
	DB	'r: failed to create bitmap', 00H		; `string'
CONST	ENDS
;	COMDAT ??_C@_0CE@MDMHEHOM@dwrite?5error?3?5failed?5to?5get?5int@
CONST	SEGMENT
??_C@_0CE@MDMHEHOM@dwrite?5error?3?5failed?5to?5get?5int@ DB 'dwrite erro'
	DB	'r: failed to get interop', 00H		; `string'
CONST	ENDS
;	COMDAT ??_C@_0BO@KCKFEELI@text?5isn?8t?5big?5enough?5to?5draw@
CONST	SEGMENT
??_C@_0BO@KCKFEELI@text?5isn?8t?5big?5enough?5to?5draw@ DB 'text isn''t b'
	DB	'ig enough to draw', 00H			; `string'
CONST	ENDS
;	COMDAT ??_C@_0BI@DIBCAMOG@text?5draw?5limit?5reached@
CONST	SEGMENT
??_C@_0BI@DIBCAMOG@text?5draw?5limit?5reached@ DB 'text draw limit reache'
	DB	'd', 00H					; `string'
CONST	ENDS
;	COMDAT ??_C@_0BH@BNEHNMLH@bad?5arguments?5for?5call@
CONST	SEGMENT
??_C@_0BH@BNEHNMLH@bad?5arguments?5for?5call@ DB 'bad arguments for call', 00H ; `string'
CONST	ENDS
;	COMDAT ??_C@_0BC@EFNKOJNF@not?5ready?5to?5draw@
CONST	SEGMENT
??_C@_0BC@EFNKOJNF@not?5ready?5to?5draw@ DB 'not ready to draw', 00H ; `string'
CONST	ENDS
;	COMDAT ??_C@_0BB@CNAADGED@unsupported?5file@
CONST	SEGMENT
??_C@_0BB@CNAADGED@unsupported?5file@ DB 'unsupported file', 00H ; `string'
CONST	ENDS
;	COMDAT ??_C@_0N@JEIBBCAB@invalid?5file@
CONST	SEGMENT
??_C@_0N@JEIBBCAB@invalid?5file@ DB 'invalid file', 00H	; `string'
CONST	ENDS
;	COMDAT ??_C@_0N@DBGDKEE@missing?5file@
CONST	SEGMENT
??_C@_0N@DBGDKEE@missing?5file@ DB 'missing file', 00H	; `string'
CONST	ENDS
;	COMDAT ??_C@_0BE@HHDIFFCA@failed?5to?5read?5file@
CONST	SEGMENT
??_C@_0BE@HHDIFFCA@failed?5to?5read?5file@ DB 'failed to read file', 00H ; `string'
CONST	ENDS
;	COMDAT ??_C@_0BK@BCKPCAAA@failed?5to?5allocate?5memory@
CONST	SEGMENT
??_C@_0BK@BCKPCAAA@failed?5to?5allocate?5memory@ DB 'failed to allocate m'
	DB	'emory', 00H					; `string'
CONST	ENDS
;	COMDAT ??_C@_0BF@EMOHGGEH@unknown?5dwrite?5error@
CONST	SEGMENT
??_C@_0BF@EMOHGGEH@unknown?5dwrite?5error@ DB 'unknown dwrite error', 00H ; `string'
CONST	ENDS
;	COMDAT ??_C@_0BD@EECPMFML@unknown?5d3d9?5error@
CONST	SEGMENT
??_C@_0BD@EECPMFML@unknown?5d3d9?5error@ DB 'unknown d3d9 error', 00H ; `string'
CONST	ENDS
;	COMDAT ??_C@_0BC@GHGDHPHO@unknown?5gdi?5error@
CONST	SEGMENT
??_C@_0BC@GHGDHPHO@unknown?5gdi?5error@ DB 'unknown gdi error', 00H ; `string'
CONST	ENDS
;	COMDAT ??_C@_0O@BFJCFAAK@unknown?5error@
CONST	SEGMENT
??_C@_0O@BFJCFAAK@unknown?5error@ DB 'unknown error', 00H ; `string'
CONST	ENDS
;	COMDAT ??_C@_0P@EBPDKGHP@renderer?5is?5ok@
CONST	SEGMENT
??_C@_0P@EBPDKGHP@renderer?5is?5ok@ DB 'renderer is ok', 00H ; `string'
CONST	ENDS
;	COMDAT ??_C@_0BE@DGIHAGAE@really?5severe?5error@
CONST	SEGMENT
??_C@_0BE@DGIHAGAE@really?5severe?5error@ DB 'really severe error', 00H ; `string'
CONST	ENDS
;	COMDAT ??_C@_0BD@NLOLCDDC@corrupted?5png?5file@
CONST	SEGMENT
??_C@_0BD@NLOLCDDC@corrupted?5png?5file@ DB 'corrupted png file', 00H ; `string'
CONST	ENDS
;	COMDAT ??_C@_06IJIHIEPH@1?46?437@
CONST	SEGMENT
??_C@_06IJIHIEPH@1?46?437@ DB '1.6.37', 00H		; `string'
CONST	ENDS
; Function compile flags: /Ogtpy
;	COMDAT _getRenderErrorString
_TEXT	SEGMENT
_render$ = 8						; size = 4
_getRenderErrorString PROC				; COMDAT
; File C:\Program Files (x86)\Steam\steamapps\common\Bully Scholarship Edition\_derpy_script_loader\src\client\render.cpp
; Line 727
	push	esi
	push	edi
; Line 730
	mov	edi, DWORD PTR _render$[esp+4]
; Line 731
	mov	eax, DWORD PTR [edi+76]
	mov	esi, DWORD PTR [edi+72]
	test	eax, eax
	je	SHORT $LN2@getRenderE
; Line 732
	push	eax
	call	_free
	add	esp, 4
$LN2@getRenderE:
; Line 733
	push	256					; 00000100H
	call	_malloc
	add	esp, 4
	mov	DWORD PTR [edi+76], eax
; Line 734
	test	eax, eax
	jne	SHORT $LN3@getRenderE
; Line 735
	pop	edi
	mov	eax, OFFSET ??_C@_0BE@DGIHAGAE@really?5severe?5error@
; Line 787
	pop	esi
	ret	0
$LN3@getRenderE:
; Line 736
	test	esi, esi
	jne	SHORT $LN4@getRenderE
; Line 737
	push	OFFSET ??_C@_0P@EBPDKGHP@renderer?5is?5ok@
	push	eax
	call	_sprintf
; Line 786
	mov	eax, DWORD PTR [edi+76]
	add	esp, 8
	pop	edi
; Line 787
	pop	esi
	ret	0
$LN4@getRenderE:
; Line 738
	cmp	esi, 1
	jne	SHORT $LN6@getRenderE
; Line 739
	push	OFFSET ??_C@_0O@BFJCFAAK@unknown?5error@
	push	eax
	call	_sprintf
; Line 786
	mov	eax, DWORD PTR [edi+76]
	add	esp, 8
	pop	edi
; Line 787
	pop	esi
	ret	0
$LN6@getRenderE:
; Line 740
	cmp	esi, 2
	jne	SHORT $LN8@getRenderE
; Line 741
	push	OFFSET ??_C@_0BC@GHGDHPHO@unknown?5gdi?5error@
	push	eax
	call	_sprintf
; Line 786
	mov	eax, DWORD PTR [edi+76]
	add	esp, 8
	pop	edi
; Line 787
	pop	esi
	ret	0
$LN8@getRenderE:
; Line 742
	cmp	esi, 3
	jne	SHORT $LN10@getRenderE
; Line 743
	push	OFFSET ??_C@_0BD@EECPMFML@unknown?5d3d9?5error@
	push	eax
	call	_sprintf
; Line 786
	mov	eax, DWORD PTR [edi+76]
	add	esp, 8
	pop	edi
; Line 787
	pop	esi
	ret	0
$LN10@getRenderE:
; Line 744
	cmp	esi, 4
	jne	SHORT $LN12@getRenderE
; Line 745
	push	OFFSET ??_C@_0BF@EMOHGGEH@unknown?5dwrite?5error@
	push	eax
	call	_sprintf
; Line 786
	mov	eax, DWORD PTR [edi+76]
	add	esp, 8
	pop	edi
; Line 787
	pop	esi
	ret	0
$LN12@getRenderE:
; Line 746
	cmp	esi, 5
	jne	SHORT $LN14@getRenderE
; Line 747
	push	OFFSET ??_C@_0BK@BCKPCAAA@failed?5to?5allocate?5memory@
	push	eax
	call	_sprintf
; Line 786
	mov	eax, DWORD PTR [edi+76]
	add	esp, 8
	pop	edi
; Line 787
	pop	esi
	ret	0
$LN14@getRenderE:
; Line 748
	cmp	esi, 6
	jne	SHORT $LN16@getRenderE
; Line 749
	push	OFFSET ??_C@_0BE@HHDIFFCA@failed?5to?5read?5file@
	push	eax
	call	_sprintf
; Line 786
	mov	eax, DWORD PTR [edi+76]
	add	esp, 8
	pop	edi
; Line 787
	pop	esi
	ret	0
$LN16@getRenderE:
; Line 750
	cmp	esi, 7
	jne	SHORT $LN18@getRenderE
; Line 751
	push	OFFSET ??_C@_0N@DBGDKEE@missing?5file@
	push	eax
	call	_sprintf
; Line 786
	mov	eax, DWORD PTR [edi+76]
	add	esp, 8
	pop	edi
; Line 787
	pop	esi
	ret	0
$LN18@getRenderE:
; Line 752
	cmp	esi, 8
	jne	SHORT $LN20@getRenderE
; Line 753
	push	OFFSET ??_C@_0N@JEIBBCAB@invalid?5file@
	push	eax
	call	_sprintf
; Line 786
	mov	eax, DWORD PTR [edi+76]
	add	esp, 8
	pop	edi
; Line 787
	pop	esi
	ret	0
$LN20@getRenderE:
; Line 754
	cmp	esi, 9
	jne	SHORT $LN22@getRenderE
; Line 755
	push	OFFSET ??_C@_0BB@CNAADGED@unsupported?5file@
	push	eax
	call	_sprintf
; Line 786
	mov	eax, DWORD PTR [edi+76]
	add	esp, 8
	pop	edi
; Line 787
	pop	esi
	ret	0
$LN22@getRenderE:
; Line 756
	cmp	esi, 10					; 0000000aH
	jne	SHORT $LN24@getRenderE
; Line 757
	push	OFFSET ??_C@_0BC@EFNKOJNF@not?5ready?5to?5draw@
	push	eax
	call	_sprintf
; Line 786
	mov	eax, DWORD PTR [edi+76]
	add	esp, 8
	pop	edi
; Line 787
	pop	esi
	ret	0
$LN24@getRenderE:
; Line 758
	cmp	esi, 11					; 0000000bH
	jne	SHORT $LN26@getRenderE
; Line 759
	push	OFFSET ??_C@_0BH@BNEHNMLH@bad?5arguments?5for?5call@
	push	eax
	call	_sprintf
; Line 786
	mov	eax, DWORD PTR [edi+76]
	add	esp, 8
	pop	edi
; Line 787
	pop	esi
	ret	0
$LN26@getRenderE:
; Line 760
	cmp	esi, 12					; 0000000cH
	jne	SHORT $LN28@getRenderE
; Line 761
	push	OFFSET ??_C@_0BI@DIBCAMOG@text?5draw?5limit?5reached@
	push	eax
	call	_sprintf
; Line 786
	mov	eax, DWORD PTR [edi+76]
	add	esp, 8
	pop	edi
; Line 787
	pop	esi
	ret	0
$LN28@getRenderE:
; Line 762
	cmp	esi, 13					; 0000000dH
	jne	SHORT $LN30@getRenderE
; Line 763
	push	OFFSET ??_C@_0BO@KCKFEELI@text?5isn?8t?5big?5enough?5to?5draw@
	push	eax
	call	_sprintf
; Line 786
	mov	eax, DWORD PTR [edi+76]
	add	esp, 8
	pop	edi
; Line 787
	pop	esi
	ret	0
$LN30@getRenderE:
; Line 764
	cmp	esi, 14					; 0000000eH
	jne	SHORT $LN32@getRenderE
; Line 765
	push	OFFSET ??_C@_0CE@MDMHEHOM@dwrite?5error?3?5failed?5to?5get?5int@
	push	eax
	call	_sprintf
; Line 786
	mov	eax, DWORD PTR [edi+76]
	add	esp, 8
	pop	edi
; Line 787
	pop	esi
	ret	0
$LN32@getRenderE:
; Line 766
	cmp	esi, 15					; 0000000fH
	jne	SHORT $LN34@getRenderE
; Line 767
	push	OFFSET ??_C@_0CG@LEGGLHGO@dwrite?5error?3?5failed?5to?5create?5@
	push	eax
	call	_sprintf
; Line 786
	mov	eax, DWORD PTR [edi+76]
	add	esp, 8
	pop	edi
; Line 787
	pop	esi
	ret	0
$LN34@getRenderE:
; Line 768
	cmp	esi, 16					; 00000010H
	jne	SHORT $LN36@getRenderE
; Line 769
	push	OFFSET ??_C@_0CG@HNFMEAME@dwrite?5error?3?5failed?5to?5create?5@
	push	eax
	call	_sprintf
; Line 786
	mov	eax, DWORD PTR [edi+76]
	add	esp, 8
	pop	edi
; Line 787
	pop	esi
	ret	0
$LN36@getRenderE:
; Line 770
	cmp	esi, 17					; 00000011H
	jne	SHORT $LN38@getRenderE
; Line 771
	push	OFFSET ??_C@_0CG@CFNAIMMM@dwrite?5error?3?5failed?5to?5create?5@
	push	eax
	call	_sprintf
; Line 786
	mov	eax, DWORD PTR [edi+76]
	add	esp, 8
	pop	edi
; Line 787
	pop	esi
	ret	0
$LN38@getRenderE:
; Line 772
	cmp	esi, 18					; 00000012H
	jne	SHORT $LN40@getRenderE
; Line 773
	push	OFFSET ??_C@_0CH@HDJOMMEH@dwrite?5error?3?5failed?5to?5create?5@
	push	eax
	call	_sprintf
; Line 786
	mov	eax, DWORD PTR [edi+76]
	add	esp, 8
	pop	edi
; Line 787
	pop	esi
	ret	0
$LN40@getRenderE:
; Line 774
	cmp	esi, 19					; 00000013H
	jne	SHORT $LN42@getRenderE
; Line 775
	push	OFFSET ??_C@_0CG@FLKFKECP@dwrite?5error?3?5failed?5to?5query?5m@
	push	eax
	call	_sprintf
; Line 786
	mov	eax, DWORD PTR [edi+76]
	add	esp, 8
	pop	edi
; Line 787
	pop	esi
	ret	0
$LN42@getRenderE:
; Line 776
	cmp	esi, 20					; 00000014H
	jne	SHORT $LN44@getRenderE
; Line 777
	push	OFFSET ??_C@_0CC@CMEKACBM@dwrite?5error?3?5failed?5to?5draw?5te@
	push	eax
	call	_sprintf
; Line 786
	mov	eax, DWORD PTR [edi+76]
	add	esp, 8
	pop	edi
; Line 787
	pop	esi
	ret	0
$LN44@getRenderE:
; Line 778
	cmp	esi, 21					; 00000015H
	jne	SHORT $LN46@getRenderE
; Line 779
	push	OFFSET ??_C@_0BK@NNLBIDP@different?5texture?5formats@
	push	eax
	call	_sprintf
; Line 786
	mov	eax, DWORD PTR [edi+76]
	add	esp, 8
	pop	edi
; Line 787
	pop	esi
	ret	0
$LN46@getRenderE:
; Line 780
	cmp	esi, 22					; 00000016H
	jne	SHORT $LN48@getRenderE
; Line 781
	push	OFFSET ??_C@_0BJ@NHOKHELG@failed?5to?5create?5texture@
	push	eax
	call	_sprintf
; Line 786
	mov	eax, DWORD PTR [edi+76]
	add	esp, 8
	pop	edi
; Line 787
	pop	esi
	ret	0
$LN48@getRenderE:
; Line 782
	cmp	esi, 23					; 00000017H
	jne	SHORT $LN50@getRenderE
; Line 783
	push	OFFSET ??_C@_0BB@IDBDENEI@invalid?5viewport@
	push	eax
	call	_sprintf
; Line 786
	mov	eax, DWORD PTR [edi+76]
	add	esp, 8
	pop	edi
; Line 787
	pop	esi
	ret	0
$LN50@getRenderE:
; Line 785
	push	esi
	push	OFFSET ??_C@_0BH@JLEIFCGN@unknown?5error?5code?3?5?$CFd@
	push	eax
	call	_sprintf
; Line 786
	mov	eax, DWORD PTR [edi+76]
	add	esp, 12					; 0000000cH
	pop	edi
; Line 787
	pop	esi
	ret	0
_getRenderErrorString ENDP
_TEXT	ENDS
; Function compile flags: /Ogtpy
;	COMDAT _getRenderError
_TEXT	SEGMENT
_render$ = 8						; size = 4
_getRenderError PROC					; COMDAT
; File C:\Program Files (x86)\Steam\steamapps\common\Bully Scholarship Edition\_derpy_script_loader\src\client\render.cpp
; Line 725
	mov	eax, DWORD PTR _render$[esp-4]
	mov	eax, DWORD PTR [eax+72]
; Line 726
	ret	0
_getRenderError ENDP
_TEXT	ENDS
; Function compile flags: /Ogtpy
;	COMDAT _destroyRender
_TEXT	SEGMENT
_render$ = 8						; size = 4
_destroyRender PROC					; COMDAT
; File C:\Program Files (x86)\Steam\steamapps\common\Bully Scholarship Edition\_derpy_script_loader\src\client\render.cpp
; Line 708
	push	ebx
; Line 711
	mov	ebx, DWORD PTR _render$[esp]
	push	edi
	push	DWORD PTR [ebx+192]
	call	_destroyFontRenderer
; Line 244
	mov	edi, DWORD PTR [ebx+56]
; Line 711
	add	esp, 4
; Line 244
	test	edi, edi
	je	SHORT $LN6@destroyRen
	push	esi
	npad	4
$LL5@destroyRen:
; Line 237
	mov	eax, DWORD PTR [edi]
; Line 245
	mov	esi, DWORD PTR [edi+12]
; Line 237
	push	eax
	mov	ecx, DWORD PTR [eax]
	call	DWORD PTR [ecx+8]
; Line 238
	push	edi
	call	_free
	add	esp, 4
; Line 244
	mov	edi, esi
	test	esi, esi
	jne	SHORT $LL5@destroyRen
	pop	esi
$LN6@destroyRen:
; Line 718
	mov	eax, DWORD PTR [ebx+76]
; Line 248
	mov	DWORD PTR [ebx+56], 0
; Line 718
	test	eax, eax
	je	SHORT $LN2@destroyRen
; Line 719
	push	eax
	call	_free
	add	esp, 4
$LN2@destroyRen:
; Line 720
	push	ebx
	call	_free
	add	esp, 4
	pop	edi
	pop	ebx
; Line 721
	ret	0
_destroyRender ENDP
_TEXT	ENDS
; Function compile flags: /Ogtpy
;	COMDAT _createRender
_TEXT	SEGMENT
_rect$ = -28						; size = 24
__$ArrayPad$ = -4					; size = 4
_device$ = 8						; size = 4
_createRender PROC					; COMDAT
; File C:\Program Files (x86)\Steam\steamapps\common\Bully Scholarship Edition\_derpy_script_loader\src\client\render.cpp
; Line 661
	sub	esp, 28					; 0000001cH
	mov	eax, DWORD PTR ___security_cookie
	xor	eax, esp
	mov	DWORD PTR __$ArrayPad$[esp+28], eax
	push	esi
	push	edi
	mov	edi, DWORD PTR _device$[esp+32]
; Line 667
	push	196					; 000000c4H
	call	_malloc
	mov	esi, eax
	add	esp, 4
; Line 668
	test	esi, esi
	jne	SHORT $LN5@createRend
; Line 707
	pop	edi
	pop	esi
	mov	ecx, DWORD PTR __$ArrayPad$[esp+28]
	xor	ecx, esp
	call	@__security_check_cookie@4
	add	esp, 28					; 0000001cH
	ret	0
$LN5@createRend:
	push	ebx
; Line 670
	push	0
	push	edi
	call	_createFontRenderer
	mov	ebx, eax
	add	esp, 8
	mov	DWORD PTR [esi+192], ebx
; Line 671
	test	ebx, ebx
	jne	SHORT $LN6@createRend
; Line 672
	push	esi
	call	_free
	add	esp, 4
; Line 678
	xor	eax, eax
	pop	ebx
	pop	edi
; Line 707
	pop	esi
	mov	ecx, DWORD PTR __$ArrayPad$[esp+28]
	xor	ecx, esp
	call	@__security_check_cookie@4
	add	esp, 28					; 0000001cH
	ret	0
$LN6@createRend:
; Line 675
	mov	eax, DWORD PTR [edi]
	push	edi
	call	DWORD PTR [eax+12]
	test	eax, eax
	jne	$LN8@createRend
	mov	eax, DWORD PTR [edi]
	lea	ecx, DWORD PTR _rect$[esp+40]
	push	ecx
	push	edi
	call	DWORD PTR [eax+192]
	test	eax, eax
	jne	$LN8@createRend
; Line 229
	mov	eax, DWORD PTR _rect$[esp+48]
	test	eax, eax
	jle	$LN8@createRend
	mov	ecx, DWORD PTR _rect$[esp+52]
	test	ecx, ecx
	jle	SHORT $LN8@createRend
; Line 697
	mov	DWORD PTR [esi+88], 0
	mov	DWORD PTR [esi+92], 1065353216		; 3f800000H
	mov	DWORD PTR [esi+116], 0
	mov	DWORD PTR [esi+120], 1065353216		; 3f800000H
	mov	DWORD PTR [esi+144], 0
	mov	DWORD PTR [esi+148], 1065353216		; 3f800000H
	mov	DWORD PTR [esi+172], 0
	mov	DWORD PTR [esi+176], 1065353216		; 3f800000H
	pop	ebx
; Line 699
	mov	DWORD PTR [esi], edi
; Line 701
	mov	DWORD PTR [esi+60], eax
; Line 706
	mov	eax, esi
	pop	edi
	mov	DWORD PTR [esi+56], 0
	mov	DWORD PTR [esi+64], ecx
	mov	DWORD PTR [esi+68], 0
	mov	DWORD PTR [esi+72], 0
	mov	DWORD PTR [esi+76], 0
; Line 707
	pop	esi
	mov	ecx, DWORD PTR __$ArrayPad$[esp+28]
	xor	ecx, esp
	call	@__security_check_cookie@4
	add	esp, 28					; 0000001cH
	ret	0
$LN8@createRend:
; Line 676
	push	ebx
	call	_destroyFontRenderer
; Line 677
	push	esi
	call	_free
; Line 707
	mov	ecx, DWORD PTR __$ArrayPad$[esp+48]
	add	esp, 8
	xor	eax, eax
	pop	ebx
	pop	edi
	pop	esi
	xor	ecx, esp
	call	@__security_check_cookie@4
	add	esp, 28					; 0000001cH
	ret	0
_createRender ENDP
_TEXT	ENDS
; Function compile flags: /Ogtpy
;	COMDAT _getRenderResolution
_TEXT	SEGMENT
_render$ = 8						; size = 4
_width$ = 12						; size = 4
_height$ = 16						; size = 4
_getRenderResolution PROC				; COMDAT
; File C:\Program Files (x86)\Steam\steamapps\common\Bully Scholarship Edition\_derpy_script_loader\src\client\render.cpp
; Line 656
	mov	edx, DWORD PTR _render$[esp-4]
	mov	eax, DWORD PTR _width$[esp-4]
	mov	ecx, DWORD PTR [edx+60]
	mov	DWORD PTR [eax], ecx
; Line 657
	mov	eax, DWORD PTR _height$[esp-4]
	mov	ecx, DWORD PTR [edx+64]
	mov	DWORD PTR [eax], ecx
; Line 658
	ret	0
_getRenderResolution ENDP
_TEXT	ENDS
; Function compile flags: /Ogtpy
;	COMDAT _getRenderAspect
_TEXT	SEGMENT
tv134 = 8						; size = 4
_render$ = 8						; size = 4
_getRenderAspect PROC					; COMDAT
; File C:\Program Files (x86)\Steam\steamapps\common\Bully Scholarship Edition\_derpy_script_loader\src\client\render.cpp
; Line 653
	mov	eax, DWORD PTR _render$[esp-4]
	movd	xmm1, DWORD PTR [eax+60]
	movd	xmm0, DWORD PTR [eax+64]
	cvtdq2ps xmm1, xmm1
	cvtdq2ps xmm0, xmm0
	divss	xmm1, xmm0
	movss	DWORD PTR tv134[esp-4], xmm1
	fld	DWORD PTR tv134[esp-4]
; Line 654
	ret	0
_getRenderAspect ENDP
_TEXT	ENDS
; Function compile flags: /Ogtpy
;	COMDAT _isRenderActive
_TEXT	SEGMENT
_render$ = 8						; size = 4
_isRenderActive PROC					; COMDAT
; File C:\Program Files (x86)\Steam\steamapps\common\Bully Scholarship Edition\_derpy_script_loader\src\client\render.cpp
; Line 650
	mov	eax, DWORD PTR _render$[esp-4]
	mov	eax, DWORD PTR [eax+68]
; Line 651
	ret	0
_isRenderActive ENDP
_TEXT	ENDS
; Function compile flags: /Ogtpy
;	COMDAT _finishRenderDwriteCycle
_TEXT	SEGMENT
_render$ = 8						; size = 4
_finishRenderDwriteCycle PROC				; COMDAT
; File C:\Program Files (x86)\Steam\steamapps\common\Bully Scholarship Edition\_derpy_script_loader\src\client\render.cpp
; Line 647
	mov	eax, DWORD PTR _render$[esp-4]
	push	DWORD PTR [eax+192]
	call	_finishFontRendererCycle
	pop	ecx
; Line 648
	ret	0
_finishRenderDwriteCycle ENDP
_TEXT	ENDS
; Function compile flags: /Ogtpy
;	COMDAT _startRenderDwriteCycle
_TEXT	SEGMENT
_rect$ = -28						; size = 24
__$ArrayPad$ = -4					; size = 4
_render$ = 8						; size = 4
_startRenderDwriteCycle PROC				; COMDAT
; File C:\Program Files (x86)\Steam\steamapps\common\Bully Scholarship Edition\_derpy_script_loader\src\client\render.cpp
; Line 634
	sub	esp, 28					; 0000001cH
	mov	eax, DWORD PTR ___security_cookie
	xor	eax, esp
	mov	DWORD PTR __$ArrayPad$[esp+28], eax
	push	esi
	mov	esi, DWORD PTR _render$[esp+28]
; Line 637
	lea	edx, DWORD PTR _rect$[esp+32]
	push	edx
	mov	eax, DWORD PTR [esi]
	push	eax
	mov	ecx, DWORD PTR [eax]
	call	DWORD PTR [ecx+192]
	test	eax, eax
	je	SHORT $LN2@startRende
; Line 638
	mov	DWORD PTR [esi+72], 3
	xor	eax, eax
	pop	esi
; Line 645
	mov	ecx, DWORD PTR __$ArrayPad$[esp+28]
	xor	ecx, esp
	call	@__security_check_cookie@4
	add	esp, 28					; 0000001cH
	ret	0
$LN2@startRende:
; Line 229
	mov	edx, DWORD PTR _rect$[esp+40]
	mov	eax, DWORD PTR _rect$[esp+44]
	test	edx, edx
	jle	SHORT $LN7@startRende
	test	eax, eax
	jle	SHORT $LN7@startRende
; Line 231
	xor	ecx, ecx
	jmp	SHORT $LN5@startRende
$LN7@startRende:
; Line 230
	mov	ecx, 1
$LN5@startRende:
; Line 640
	test	ecx, ecx
	je	SHORT $LN3@startRende
; Line 641
	mov	DWORD PTR [esi+72], 23			; 00000017H
	xor	eax, eax
	pop	esi
; Line 645
	mov	ecx, DWORD PTR __$ArrayPad$[esp+28]
	xor	ecx, esp
	call	@__security_check_cookie@4
	add	esp, 28					; 0000001cH
	ret	0
$LN3@startRende:
; Line 643
	push	eax
	push	edx
	push	DWORD PTR [esi+192]
	call	_startFontRendererCycle
; Line 645
	mov	ecx, DWORD PTR __$ArrayPad$[esp+44]
	add	esp, 12					; 0000000cH
	mov	DWORD PTR [esi+72], 0
	mov	eax, 1
	pop	esi
	xor	ecx, esp
	call	@__security_check_cookie@4
	add	esp, 28					; 0000001cH
	ret	0
_startRenderDwriteCycle ENDP
_TEXT	ENDS
; Function compile flags: /Ogtpy
;	COMDAT _finishRender
_TEXT	SEGMENT
_render$ = 8						; size = 4
_finishRender PROC					; COMDAT
; File C:\Program Files (x86)\Steam\steamapps\common\Bully Scholarship Edition\_derpy_script_loader\src\client\render.cpp
; Line 617
	push	edi
; Line 621
	mov	edi, DWORD PTR _render$[esp]
	cmp	DWORD PTR [edi+68], 0
	je	SHORT $LN2@finishRend
; Line 625
	push	esi
	mov	esi, DWORD PTR [edi]
; Line 627
	push	DWORD PTR [edi+48]
	push	esi
	mov	eax, DWORD PTR [esi]
	call	DWORD PTR [eax+368]
; Line 628
	push	DWORD PTR [edi+52]
	mov	eax, DWORD PTR [esi]
	push	esi
	call	DWORD PTR [eax+428]
; Line 629
	push	DWORD PTR [edi+4]
	mov	eax, DWORD PTR [esi]
	push	esi
	call	DWORD PTR [eax+356]
; Line 631
	mov	DWORD PTR [edi+68], 0
	pop	esi
$LN2@finishRend:
; Line 633
	pop	edi
	ret	0
_finishRender ENDP
_TEXT	ENDS
; Function compile flags: /Ogtpy
;	COMDAT _startRender
_TEXT	SEGMENT
_rect$ = -28						; size = 24
__$ArrayPad$ = -4					; size = 4
_render$ = 8						; size = 4
_startRender PROC					; COMDAT
; File C:\Program Files (x86)\Steam\steamapps\common\Bully Scholarship Edition\_derpy_script_loader\src\client\render.cpp
; Line 567
	sub	esp, 28					; 0000001cH
	mov	eax, DWORD PTR ___security_cookie
	xor	eax, esp
	mov	DWORD PTR __$ArrayPad$[esp+28], eax
	push	ebx
	mov	ebx, DWORD PTR _render$[esp+28]
	push	edi
; Line 573
	cmp	DWORD PTR [ebx+68], 0
	jne	$LN3@startRende
	mov	edi, DWORD PTR [ebx]
	push	edi
	mov	eax, DWORD PTR [edi]
	call	DWORD PTR [eax+12]
	test	eax, eax
	jne	$LN3@startRende
; Line 575
	mov	eax, DWORD PTR [edi]
	lea	ecx, DWORD PTR _rect$[esp+36]
	push	ecx
	push	edi
	call	DWORD PTR [eax+192]
	test	eax, eax
	je	SHORT $LN4@startRende
; Line 576
	pop	edi
	mov	DWORD PTR [ebx+72], 3
; Line 616
	xor	eax, eax
	pop	ebx
	mov	ecx, DWORD PTR __$ArrayPad$[esp+28]
	xor	ecx, esp
	call	@__security_check_cookie@4
	add	esp, 28					; 0000001cH
	ret	0
$LN4@startRende:
; Line 229
	mov	edx, DWORD PTR _rect$[esp+44]
	mov	ecx, DWORD PTR _rect$[esp+48]
	test	edx, edx
	jle	SHORT $LN9@startRende
	test	ecx, ecx
	jle	SHORT $LN9@startRende
; Line 231
	xor	eax, eax
	jmp	SHORT $LN7@startRende
$LN9@startRende:
; Line 230
	mov	eax, 1
$LN7@startRende:
; Line 578
	test	eax, eax
	je	SHORT $LN5@startRende
; Line 579
	pop	edi
	mov	DWORD PTR [ebx+72], 23			; 00000017H
; Line 616
	xor	eax, eax
	pop	ebx
	mov	ecx, DWORD PTR __$ArrayPad$[esp+28]
	xor	ecx, esp
	call	@__security_check_cookie@4
	add	esp, 28					; 0000001cH
	ret	0
$LN5@startRende:
	push	esi
; Line 587
	lea	esi, DWORD PTR [ebx+4]
	mov	DWORD PTR [ebx+60], edx
; Line 588
	push	esi
	mov	DWORD PTR [ebx+64], ecx
	mov	DWORD PTR [ebx+68], 1
	mov	eax, DWORD PTR [edi]
	push	7
	push	edi
	call	DWORD PTR [eax+232]
; Line 589
	mov	eax, DWORD PTR [edi]
	add	esi, 4
	push	esi
	push	27					; 0000001bH
	push	edi
	call	DWORD PTR [eax+232]
; Line 590
	mov	eax, DWORD PTR [edi]
	add	esi, 4
	push	esi
	push	19					; 00000013H
	push	edi
	call	DWORD PTR [eax+232]
; Line 591
	mov	eax, DWORD PTR [edi]
	add	esi, 4
	push	esi
	push	20					; 00000014H
	push	edi
	call	DWORD PTR [eax+232]
; Line 592
	mov	eax, DWORD PTR [edi]
	add	esi, 4
	push	esi
	push	1
	push	0
	push	edi
	call	DWORD PTR [eax+272]
; Line 593
	mov	eax, DWORD PTR [edi]
	add	esi, 4
	push	esi
	push	2
	push	0
	push	edi
	call	DWORD PTR [eax+272]
; Line 594
	mov	eax, DWORD PTR [edi]
	add	esi, 4
	push	esi
	push	1
	push	0
	push	edi
	call	DWORD PTR [eax+264]
; Line 595
	mov	eax, DWORD PTR [edi]
	add	esi, 4
	push	esi
	push	4
	push	0
	push	edi
	call	DWORD PTR [eax+264]
; Line 596
	mov	eax, DWORD PTR [edi]
	add	esi, 4
	push	esi
	push	5
	push	0
	push	edi
	call	DWORD PTR [eax+264]
; Line 597
	mov	eax, DWORD PTR [edi]
	add	esi, 4
	push	esi
	push	6
	push	0
	push	edi
	call	DWORD PTR [eax+264]
; Line 598
	mov	ecx, DWORD PTR [edi]
	lea	eax, DWORD PTR [ebx+48]
	push	eax
	push	edi
	call	DWORD PTR [ecx+372]
; Line 599
	mov	ecx, DWORD PTR [edi]
	lea	eax, DWORD PTR [ebx+52]
	push	eax
	push	edi
	call	DWORD PTR [ecx+432]
; Line 600
	mov	ecx, DWORD PTR [edi]
	lea	eax, DWORD PTR [esi+4]
	push	eax
	push	edi
	call	DWORD PTR [ecx+360]
; Line 602
	mov	eax, DWORD PTR [edi]
	push	0
	push	7
	push	edi
	call	DWORD PTR [eax+228]
; Line 603
	mov	eax, DWORD PTR [edi]
	push	1
	push	27					; 0000001bH
	push	edi
	call	DWORD PTR [eax+228]
; Line 604
	mov	eax, DWORD PTR [edi]
	push	5
	push	19					; 00000013H
	push	edi
	call	DWORD PTR [eax+228]
; Line 605
	mov	eax, DWORD PTR [edi]
	push	6
	push	20					; 00000014H
	push	edi
	call	DWORD PTR [eax+228]
; Line 606
	mov	eax, DWORD PTR [edi]
	push	3
	push	1
	push	0
	push	edi
	call	DWORD PTR [eax+276]
; Line 607
	mov	eax, DWORD PTR [edi]
	push	3
	push	2
	push	0
	push	edi
	call	DWORD PTR [eax+276]
; Line 608
	mov	eax, DWORD PTR [edi]
	push	4
	push	1
	push	0
	push	edi
	call	DWORD PTR [eax+268]
; Line 609
	mov	eax, DWORD PTR [edi]
	push	4
	push	4
	push	0
	push	edi
	call	DWORD PTR [eax+268]
; Line 610
	mov	eax, DWORD PTR [edi]
	push	2
	push	5
	push	0
	push	edi
	call	DWORD PTR [eax+268]
; Line 611
	mov	eax, DWORD PTR [edi]
	push	0
	push	6
	push	0
	push	edi
	call	DWORD PTR [eax+268]
; Line 612
	mov	eax, DWORD PTR [edi]
	push	0
	push	edi
	call	DWORD PTR [eax+368]
; Line 613
	mov	eax, DWORD PTR [edi]
	push	0
	push	edi
	call	DWORD PTR [eax+428]
; Line 614
	mov	eax, DWORD PTR [edi]
	push	324					; 00000144H
	push	edi
	call	DWORD PTR [eax+356]
; Line 615
	pop	esi
	pop	edi
	mov	DWORD PTR [ebx+72], 0
	mov	eax, 1
; Line 616
	pop	ebx
	mov	ecx, DWORD PTR __$ArrayPad$[esp+28]
	xor	ecx, esp
	call	@__security_check_cookie@4
	add	esp, 28					; 0000001cH
	ret	0
$LN3@startRende:
	mov	ecx, DWORD PTR __$ArrayPad$[esp+36]
	xor	eax, eax
	pop	edi
	mov	DWORD PTR [ebx+72], 10			; 0000000aH
	pop	ebx
	xor	ecx, esp
	call	@__security_check_cookie@4
	add	esp, 28					; 0000001cH
	ret	0
_startRender ENDP
_TEXT	ENDS
; Function compile flags: /Ogtpy
;	COMDAT _getRenderStringCacheCount
_TEXT	SEGMENT
_render$ = 8						; size = 4
_created$ = 12						; size = 4
_getRenderStringCacheCount PROC				; COMDAT
; File C:\Program Files (x86)\Steam\steamapps\common\Bully Scholarship Edition\_derpy_script_loader\src\client\render.cpp
; Line 563
	mov	eax, DWORD PTR _render$[esp-4]
	push	DWORD PTR _created$[esp-4]
	push	DWORD PTR [eax+192]
	call	_getFontRendererCacheCount
	add	esp, 8
; Line 564
	ret	0
_getRenderStringCacheCount ENDP
_TEXT	ENDS
; Function compile flags: /Ogtpy
;	COMDAT _destroyRenderFont
_TEXT	SEGMENT
_render$ = 8						; size = 4
_font$ = 12						; size = 4
_destroyRenderFont PROC					; COMDAT
; File C:\Program Files (x86)\Steam\steamapps\common\Bully Scholarship Edition\_derpy_script_loader\src\client\render.cpp
; Line 560
	mov	eax, DWORD PTR _render$[esp-4]
	push	DWORD PTR _font$[esp-4]
	push	DWORD PTR [eax+192]
	call	_destroyFontRendererFont
	add	esp, 8
; Line 561
	ret	0
_destroyRenderFont ENDP
_TEXT	ENDS
; Function compile flags: /Ogtpy
;	COMDAT _createRenderFont
_TEXT	SEGMENT
_render$ = 8						; size = 4
_file$ = 12						; size = 4
_name$ = 16						; size = 4
_createRenderFont PROC					; COMDAT
; File C:\Program Files (x86)\Steam\steamapps\common\Bully Scholarship Edition\_derpy_script_loader\src\client\render.cpp
; Line 557
	mov	ecx, DWORD PTR _render$[esp-4]
	lea	eax, DWORD PTR [ecx+72]
	push	eax
	push	DWORD PTR _name$[esp]
	push	DWORD PTR _file$[esp+4]
	push	DWORD PTR [ecx+192]
	call	_createFontRendererFont
	add	esp, 16					; 00000010H
; Line 558
	ret	0
_createRenderFont ENDP
_TEXT	ENDS
; Function compile flags: /Ogtpy
;	COMDAT _drawRenderString
_TEXT	SEGMENT
_x1$1$ = -12						; size = 4
_height$ = -8						; size = 4
_width$ = -4						; size = 4
_render$ = 8						; size = 4
_font$ = 12						; size = 4
_x2$1$ = 16						; size = 4
_args$ = 16						; size = 4
_advance_x$ = 20					; size = 4
_advance_y$ = 24					; size = 4
_drawRenderString PROC					; COMDAT
; File C:\Program Files (x86)\Steam\steamapps\common\Bully Scholarship Edition\_derpy_script_loader\src\client\render.cpp
; Line 516
	sub	esp, 12					; 0000000cH
	xorps	xmm1, xmm1
	push	ebx
	push	ebp
	push	esi
; Line 523
	mov	esi, DWORD PTR _args$[esp+20]
	push	edi
; Line 524
	movss	xmm0, DWORD PTR [esi+20]
	mov	ebx, DWORD PTR [esi]
	ucomiss	xmm0, xmm1
	lahf
	test	ah, 68					; 00000044H
	jnp	$LN3@drawRender
	mov	eax, DWORD PTR [esi+4]
	cmp	BYTE PTR [eax], 0
	je	$LN3@drawRender
	test	bl, 32					; 00000020H
	je	SHORT $LN2@drawRender
	cmp	DWORD PTR [esi+8], 0
	je	$LN3@drawRender
$LN2@drawRender:
; Line 531
	mov	ebp, DWORD PTR _render$[esp+24]
	lea	eax, DWORD PTR _height$[esp+28]
	lea	edi, DWORD PTR [ebp+72]
	push	edi
	push	eax
	lea	eax, DWORD PTR _width$[esp+36]
	push	eax
	push	esi
	push	DWORD PTR _font$[esp+40]
	push	DWORD PTR [ebp+192]
	call	_drawFontRendererTexture
	mov	ecx, eax
	add	esp, 24					; 00000018H
; Line 532
	test	ecx, ecx
	jne	SHORT $LN6@drawRender
; Line 533
	mov	eax, DWORD PTR _advance_x$[esp+24]
	test	eax, eax
	je	SHORT $LN7@drawRender
; Line 534
	mov	DWORD PTR [eax], ecx
$LN7@drawRender:
; Line 535
	mov	eax, DWORD PTR _advance_y$[esp+24]
	test	eax, eax
	je	SHORT $LN8@drawRender
; Line 536
	mov	DWORD PTR [eax], 0
$LN8@drawRender:
; Line 541
	xor	eax, eax
	cmp	DWORD PTR [edi], 13			; 0000000dH
	pop	edi
; Line 554
	pop	esi
	pop	ebp
	sete	al
	pop	ebx
	add	esp, 12					; 0000000cH
	ret	0
$LN6@drawRender:
; Line 462
	movss	xmm2, DWORD PTR _width$[esp+28]
	xorps	xmm3, xmm3
; Line 463
	movss	xmm1, DWORD PTR _height$[esp+28]
	movaps	xmm5, xmm2
	movss	xmm4, DWORD PTR __real@3f800000
	movaps	xmm6, xmm1
	movss	DWORD PTR _x1$1$[esp+28], xmm3
	xorps	xmm7, xmm7
; Line 460
	movss	DWORD PTR _x2$1$[esp+24], xmm4
; Line 462
	subss	xmm5, DWORD PTR [esi+24]
; Line 463
	subss	xmm6, DWORD PTR [esi+28]
; Line 464
	test	ebx, 256				; 00000100H
	je	SHORT $LN15@drawRender
	comiss	xmm5, xmm3
	jbe	SHORT $LN15@drawRender
; Line 465
	movaps	xmm0, xmm5
	test	bl, 1
	je	SHORT $LN16@drawRender
; Line 466
	mulss	xmm0, DWORD PTR __real@3f000000
	divss	xmm0, xmm2
	movaps	xmm7, xmm0
	addss	xmm7, xmm3
	movss	DWORD PTR _x1$1$[esp+28], xmm7
	movaps	xmm7, xmm4
	subss	xmm7, xmm0
	movss	DWORD PTR _x2$1$[esp+24], xmm7
	xorps	xmm7, xmm7
	jmp	SHORT $LN19@drawRender
$LN16@drawRender:
; Line 467
	divss	xmm0, xmm2
	test	bl, 2
	je	SHORT $LN18@drawRender
; Line 468
	addss	xmm0, xmm3
	movss	DWORD PTR _x1$1$[esp+28], xmm0
	jmp	SHORT $LN19@drawRender
$LN18@drawRender:
; Line 470
	movaps	xmm3, xmm4
	subss	xmm3, xmm0
	movss	DWORD PTR _x2$1$[esp+24], xmm3
	xorps	xmm3, xmm3
$LN19@drawRender:
; Line 471
	subss	xmm2, xmm5
	movss	DWORD PTR _width$[esp+28], xmm2
$LN15@drawRender:
; Line 473
	test	ebx, 512				; 00000200H
	je	SHORT $LN20@drawRender
	comiss	xmm6, xmm3
	jbe	SHORT $LN20@drawRender
; Line 474
	test	ebx, 8192				; 00002000H
	je	SHORT $LN21@drawRender
; Line 475
	movaps	xmm0, xmm6
	mulss	xmm0, DWORD PTR __real@3f000000
	divss	xmm0, xmm1
	movaps	xmm7, xmm0
	addss	xmm7, xmm3
	jmp	SHORT $LN35@drawRender
$LN21@drawRender:
; Line 476
	test	ebx, 4096				; 00001000H
	je	SHORT $LN23@drawRender
; Line 477
	movaps	xmm7, xmm6
	divss	xmm7, xmm1
	addss	xmm7, xmm3
	jmp	SHORT $LN24@drawRender
$LN23@drawRender:
; Line 479
	movaps	xmm0, xmm6
	divss	xmm0, xmm1
$LN35@drawRender:
; Line 480
	subss	xmm4, xmm0
$LN24@drawRender:
	subss	xmm1, xmm6
	movss	DWORD PTR _height$[esp+28], xmm1
$LN20@drawRender:
; Line 544
	mov	eax, ebx
	not	eax
	test	eax, 16384				; 00004000H
	je	$LN10@drawRender
; Line 545
	movss	xmm6, DWORD PTR [esi+12]
	movss	xmm5, DWORD PTR [esi+16]
; Line 444
	test	bl, 1
	je	SHORT $LN27@drawRender
; Line 445
	movaps	xmm0, xmm2
	mulss	xmm0, DWORD PTR __real@3f000000
	subss	xmm6, xmm0
	jmp	SHORT $LN29@drawRender
$LN27@drawRender:
; Line 446
	test	bl, 2
	je	SHORT $LN29@drawRender
; Line 447
	subss	xmm6, xmm2
$LN29@drawRender:
; Line 448
	test	ebx, 4096				; 00001000H
	je	SHORT $LN30@drawRender
; Line 449
	subss	xmm5, xmm1
	jmp	SHORT $LN32@drawRender
$LN30@drawRender:
; Line 450
	test	ebx, 8192				; 00002000H
	je	SHORT $LN32@drawRender
; Line 451
	movaps	xmm0, xmm1
	mulss	xmm0, DWORD PTR __real@3f000000
	subss	xmm5, xmm0
$LN32@drawRender:
; Line 546
	ucomiss	xmm2, xmm3
	lahf
	test	ah, 68					; 00000044H
	jnp	SHORT $LN10@drawRender
	ucomiss	xmm1, xmm3
	lahf
	test	ah, 68					; 00000044H
	jnp	SHORT $LN10@drawRender
	movss	xmm0, DWORD PTR _x2$1$[esp+24]
	sub	esp, 16					; 00000010H
	movss	DWORD PTR [esp+12], xmm4
	movss	DWORD PTR [esp+8], xmm0
	movss	xmm0, DWORD PTR _x1$1$[esp+44]
	movss	DWORD PTR [esp+4], xmm7
	movss	DWORD PTR [esp], xmm0
	push	DWORD PTR [esi+36]
	movss	xmm0, DWORD PTR [esi+20]
	push	DWORD PTR [esi+32]
	sub	esp, 20					; 00000014H
	movss	DWORD PTR [esp+16], xmm0
	movss	DWORD PTR [esp+12], xmm1
	movss	DWORD PTR [esp+8], xmm2
	movss	DWORD PTR [esp+4], xmm5
	movss	DWORD PTR [esp], xmm6
	push	ecx
	push	ebp
	push	ebx
	call	?drawRenderStringTexture@@YAHKPAUrender_state@@PAUIDirect3DTexture9@@MMMMMKKMMMM@Z ; drawRenderStringTexture
	add	esp, 56					; 00000038H
	test	eax, eax
	jne	SHORT $LN34@drawRender
; Line 554
	pop	edi
	pop	esi
	pop	ebp
	pop	ebx
	add	esp, 12					; 0000000cH
	ret	0
$LN34@drawRender:
; Line 546
	movss	xmm1, DWORD PTR _height$[esp+28]
	movss	xmm2, DWORD PTR _width$[esp+28]
$LN10@drawRender:
; Line 549
	mov	eax, DWORD PTR _advance_x$[esp+24]
	test	eax, eax
	je	SHORT $LN11@drawRender
; Line 550
	movss	DWORD PTR [eax], xmm2
$LN11@drawRender:
; Line 551
	mov	eax, DWORD PTR _advance_y$[esp+24]
	test	eax, eax
	je	SHORT $LN5@drawRender
; Line 554
	pop	edi
	pop	esi
	pop	ebp
	movss	DWORD PTR [eax], xmm1
	mov	eax, 1
	pop	ebx
	add	esp, 12					; 0000000cH
	ret	0
$LN3@drawRender:
; Line 525
	mov	eax, DWORD PTR _advance_x$[esp+24]
	test	eax, eax
	je	SHORT $LN4@drawRender
; Line 526
	mov	DWORD PTR [eax], 0
$LN4@drawRender:
; Line 527
	mov	eax, DWORD PTR _advance_y$[esp+24]
	test	eax, eax
	je	SHORT $LN5@drawRender
; Line 528
	mov	DWORD PTR [eax], 0
$LN5@drawRender:
	pop	edi
; Line 554
	pop	esi
	pop	ebp
	mov	eax, 1
	pop	ebx
	add	esp, 12					; 0000000cH
	ret	0
_drawRenderString ENDP
_TEXT	ENDS
; Function compile flags: /Ogtpy
;	COMDAT ?drawRenderStringTexture@@YAHKPAUrender_state@@PAUIDirect3DTexture9@@MMMMMKKMMMM@Z
_TEXT	SEGMENT
tv544 = 8						; size = 4
_flags$ = 8						; size = 4
tv528 = 12						; size = 4
_outlinex$1$ = 12					; size = 4
_render$ = 12						; size = 4
_texture$ = 16						; size = 4
_x$ = 20						; size = 4
_y$ = 24						; size = 4
_w$ = 28						; size = 4
_h$ = 32						; size = 4
tv521 = 36						; size = 4
_size$ = 36						; size = 4
_argb$ = 40						; size = 4
tv537 = 44						; size = 4
_argb2$ = 44						; size = 4
_x1$ = 48						; size = 4
_y1$ = 52						; size = 4
_x2$ = 56						; size = 4
_y2$ = 60						; size = 4
?drawRenderStringTexture@@YAHKPAUrender_state@@PAUIDirect3DTexture9@@MMMMMKKMMMM@Z PROC ; drawRenderStringTexture, COMDAT
; File C:\Program Files (x86)\Steam\steamapps\common\Bully Scholarship Edition\_derpy_script_loader\src\client\render.cpp
; Line 483
	push	ebx
	push	esi
	push	edi
; Line 488
	mov	edi, DWORD PTR _render$[esp+8]
; Line 490
	mov	eax, DWORD PTR _argb$[esp+8]
	movss	xmm3, DWORD PTR _size$[esp+8]
	shr	eax, 24					; 00000018H
	movaps	xmm1, xmm3
	movd	xmm2, DWORD PTR [edi+60]
	movd	xmm0, DWORD PTR [edi+64]
	cvtdq2ps xmm0, xmm0
; Line 492
	mov	ebx, DWORD PTR _texture$[esp+8]
	cvtdq2ps xmm2, xmm2
	mulss	xmm3, DWORD PTR __real@3d89374c
	divss	xmm2, xmm0
	movd	xmm0, eax
	movaps	xmm4, xmm3
	cvtdq2pd xmm0, xmm0
	shr	eax, 31					; 0000001fH
	divss	xmm4, xmm2
	addsd	xmm0, QWORD PTR __xmm@41f00000000000000000000000000000[eax*8]
	mov	eax, DWORD PTR _argb2$[esp+8]
	mulss	xmm1, DWORD PTR __real@3dcccccd
	and	eax, 16777215				; 00ffffffH
	movss	DWORD PTR _size$[esp+8], xmm3
	cvtpd2ps xmm0, xmm0
	movss	DWORD PTR _outlinex$1$[esp+8], xmm4
	mulss	xmm0, DWORD PTR __real@3f000000
	cvttss2si esi, xmm0
	shl	esi, 24					; 00000018H
	or	esi, eax
	mov	eax, DWORD PTR _flags$[esp+8]
	test	al, 4
	je	$LN2@drawRender
	movss	xmm0, DWORD PTR _y2$[esp+8]
	sub	esp, 16					; 00000010H
	movss	DWORD PTR [esp+12], xmm0
	movss	xmm0, DWORD PTR _x2$[esp+24]
	movss	DWORD PTR [esp+8], xmm0
	movss	xmm0, DWORD PTR _y1$[esp+24]
	movss	DWORD PTR [esp+4], xmm0
	movss	xmm0, DWORD PTR _x1$[esp+24]
	movss	DWORD PTR [esp], xmm0
	movss	xmm0, DWORD PTR _h$[esp+24]
	push	esi
	sub	esp, 16					; 00000010H
	movss	DWORD PTR [esp+12], xmm0
	movss	xmm0, DWORD PTR _w$[esp+44]
	movss	DWORD PTR [esp+8], xmm0
	movaps	xmm0, xmm1
	divss	xmm1, xmm2
	addss	xmm0, DWORD PTR _y$[esp+44]
	addss	xmm1, DWORD PTR _x$[esp+44]
	movss	DWORD PTR [esp+4], xmm0
	movss	DWORD PTR [esp], xmm1
	push	ebx
	push	edi
	call	?drawTexture@@YAHPAUrender_state@@PAUIDirect3DTexture9@@MMMMKMMMM@Z ; drawTexture
	add	esp, 44					; 0000002cH
	test	eax, eax
	je	$LN14@drawRender
	movss	xmm3, DWORD PTR _size$[esp+8]
	movss	xmm4, DWORD PTR _outlinex$1$[esp+8]
	mov	eax, DWORD PTR _flags$[esp+8]
$LN2@drawRender:
; Line 494
	test	al, 8
	je	$LN11@drawRender
; Line 495
	movss	xmm0, DWORD PTR _y2$[esp+8]
	sub	esp, 16					; 00000010H
	movaps	xmm2, xmm3
	movaps	xmm1, xmm4
	addss	xmm2, DWORD PTR _y$[esp+24]
	addss	xmm1, DWORD PTR _x$[esp+24]
	movss	DWORD PTR [esp+12], xmm0
	movss	xmm0, DWORD PTR _x2$[esp+24]
	movss	DWORD PTR [esp+8], xmm0
	movss	xmm0, DWORD PTR _y1$[esp+24]
	movss	DWORD PTR [esp+4], xmm0
	movss	xmm0, DWORD PTR _x1$[esp+24]
	movss	DWORD PTR [esp], xmm0
	movss	xmm0, DWORD PTR _h$[esp+24]
	push	esi
	sub	esp, 16					; 00000010H
	movss	DWORD PTR tv537[esp+44], xmm2
	movss	DWORD PTR tv544[esp+44], xmm1
	movss	DWORD PTR [esp+12], xmm0
	movss	xmm0, DWORD PTR _w$[esp+44]
	movss	DWORD PTR [esp+8], xmm0
	movss	DWORD PTR [esp+4], xmm2
	movss	DWORD PTR [esp], xmm1
	push	ebx
	push	edi
	call	?drawTexture@@YAHPAUrender_state@@PAUIDirect3DTexture9@@MMMMKMMMM@Z ; drawTexture
	add	esp, 44					; 0000002cH
	test	eax, eax
	je	$LN14@drawRender
; Line 497
	movss	xmm0, DWORD PTR _y2$[esp+8]
	sub	esp, 16					; 00000010H
	movss	xmm1, DWORD PTR _x$[esp+24]
	subss	xmm1, DWORD PTR _outlinex$1$[esp+24]
	movss	DWORD PTR [esp+12], xmm0
	movss	xmm0, DWORD PTR _x2$[esp+24]
	movss	DWORD PTR [esp+8], xmm0
	movss	xmm0, DWORD PTR _y1$[esp+24]
	movss	DWORD PTR [esp+4], xmm0
	movss	xmm0, DWORD PTR _x1$[esp+24]
	movss	DWORD PTR [esp], xmm0
	movss	xmm0, DWORD PTR _h$[esp+24]
	push	esi
	sub	esp, 16					; 00000010H
	movss	DWORD PTR tv528[esp+44], xmm1
	movss	DWORD PTR [esp+12], xmm0
	movss	xmm0, DWORD PTR _w$[esp+44]
	movss	DWORD PTR [esp+8], xmm0
	movss	xmm0, DWORD PTR tv537[esp+44]
	movss	DWORD PTR [esp+4], xmm0
	movss	DWORD PTR [esp], xmm1
	push	ebx
	push	edi
	call	?drawTexture@@YAHPAUrender_state@@PAUIDirect3DTexture9@@MMMMKMMMM@Z ; drawTexture
	add	esp, 44					; 0000002cH
	test	eax, eax
	je	$LN14@drawRender
; Line 499
	movss	xmm0, DWORD PTR _y2$[esp+8]
	sub	esp, 16					; 00000010H
	movss	xmm1, DWORD PTR _y$[esp+24]
	subss	xmm1, DWORD PTR _size$[esp+24]
	movss	DWORD PTR [esp+12], xmm0
	movss	xmm0, DWORD PTR _x2$[esp+24]
	movss	DWORD PTR [esp+8], xmm0
	movss	xmm0, DWORD PTR _y1$[esp+24]
	movss	DWORD PTR [esp+4], xmm0
	movss	xmm0, DWORD PTR _x1$[esp+24]
	movss	DWORD PTR [esp], xmm0
	movss	xmm0, DWORD PTR _h$[esp+24]
	push	esi
	sub	esp, 16					; 00000010H
	movss	DWORD PTR tv521[esp+44], xmm1
	movss	DWORD PTR [esp+12], xmm0
	movss	xmm0, DWORD PTR _w$[esp+44]
	movss	DWORD PTR [esp+8], xmm0
	movss	xmm0, DWORD PTR tv528[esp+44]
	movss	DWORD PTR [esp+4], xmm1
	movss	DWORD PTR [esp], xmm0
	push	ebx
	push	edi
	call	?drawTexture@@YAHPAUrender_state@@PAUIDirect3DTexture9@@MMMMKMMMM@Z ; drawTexture
	add	esp, 44					; 0000002cH
	test	eax, eax
	je	$LN14@drawRender
; Line 501
	movss	xmm0, DWORD PTR _y2$[esp+8]
	sub	esp, 16					; 00000010H
	movss	DWORD PTR [esp+12], xmm0
	movss	xmm0, DWORD PTR _x2$[esp+24]
	movss	DWORD PTR [esp+8], xmm0
	movss	xmm0, DWORD PTR _y1$[esp+24]
	movss	DWORD PTR [esp+4], xmm0
	movss	xmm0, DWORD PTR _x1$[esp+24]
	movss	DWORD PTR [esp], xmm0
	movss	xmm0, DWORD PTR _h$[esp+24]
	push	esi
	sub	esp, 16					; 00000010H
	movss	DWORD PTR [esp+12], xmm0
	movss	xmm0, DWORD PTR _w$[esp+44]
	movss	DWORD PTR [esp+8], xmm0
	movss	xmm0, DWORD PTR tv521[esp+44]
	movss	DWORD PTR [esp+4], xmm0
	movss	xmm0, DWORD PTR tv544[esp+44]
	movss	DWORD PTR [esp], xmm0
	push	ebx
	push	edi
	call	?drawTexture@@YAHPAUrender_state@@PAUIDirect3DTexture9@@MMMMKMMMM@Z ; drawTexture
	add	esp, 44					; 0000002cH
	test	eax, eax
	je	$LN14@drawRender
; Line 503
	movss	xmm0, DWORD PTR _y2$[esp+8]
	sub	esp, 16					; 00000010H
	movss	DWORD PTR [esp+12], xmm0
	movss	xmm0, DWORD PTR _x2$[esp+24]
	movss	DWORD PTR [esp+8], xmm0
	movss	xmm0, DWORD PTR _y1$[esp+24]
	movss	DWORD PTR [esp+4], xmm0
	movss	xmm0, DWORD PTR _x1$[esp+24]
	movss	DWORD PTR [esp], xmm0
	movss	xmm0, DWORD PTR _h$[esp+24]
	push	esi
	sub	esp, 16					; 00000010H
	movss	DWORD PTR [esp+12], xmm0
	movss	xmm0, DWORD PTR _w$[esp+44]
	movss	DWORD PTR [esp+8], xmm0
	movss	xmm0, DWORD PTR _y$[esp+44]
	movss	DWORD PTR [esp+4], xmm0
	movss	xmm0, DWORD PTR tv544[esp+44]
	movss	DWORD PTR [esp], xmm0
	push	ebx
	push	edi
	call	?drawTexture@@YAHPAUrender_state@@PAUIDirect3DTexture9@@MMMMKMMMM@Z ; drawTexture
	add	esp, 44					; 0000002cH
	test	eax, eax
	je	$LN14@drawRender
; Line 505
	movss	xmm0, DWORD PTR _y2$[esp+8]
	sub	esp, 16					; 00000010H
	movss	DWORD PTR [esp+12], xmm0
	movss	xmm0, DWORD PTR _x2$[esp+24]
	movss	DWORD PTR [esp+8], xmm0
	movss	xmm0, DWORD PTR _y1$[esp+24]
	movss	DWORD PTR [esp+4], xmm0
	movss	xmm0, DWORD PTR _x1$[esp+24]
	movss	DWORD PTR [esp], xmm0
	movss	xmm0, DWORD PTR _h$[esp+24]
	push	esi
	sub	esp, 16					; 00000010H
	movss	DWORD PTR [esp+12], xmm0
	movss	xmm0, DWORD PTR _w$[esp+44]
	movss	DWORD PTR [esp+8], xmm0
	movss	xmm0, DWORD PTR tv537[esp+44]
	movss	DWORD PTR [esp+4], xmm0
	movss	xmm0, DWORD PTR _x$[esp+44]
	movss	DWORD PTR [esp], xmm0
	push	ebx
	push	edi
	call	?drawTexture@@YAHPAUrender_state@@PAUIDirect3DTexture9@@MMMMKMMMM@Z ; drawTexture
	add	esp, 44					; 0000002cH
	test	eax, eax
	je	$LN14@drawRender
; Line 507
	movss	xmm0, DWORD PTR _y2$[esp+8]
	sub	esp, 16					; 00000010H
	movss	DWORD PTR [esp+12], xmm0
	movss	xmm0, DWORD PTR _x2$[esp+24]
	movss	DWORD PTR [esp+8], xmm0
	movss	xmm0, DWORD PTR _y1$[esp+24]
	movss	DWORD PTR [esp+4], xmm0
	movss	xmm0, DWORD PTR _x1$[esp+24]
	movss	DWORD PTR [esp], xmm0
	movss	xmm0, DWORD PTR _h$[esp+24]
	push	esi
	sub	esp, 16					; 00000010H
	movss	DWORD PTR [esp+12], xmm0
	movss	xmm0, DWORD PTR _w$[esp+44]
	movss	DWORD PTR [esp+8], xmm0
	movss	xmm0, DWORD PTR _y$[esp+44]
	movss	DWORD PTR [esp+4], xmm0
	movss	xmm0, DWORD PTR tv528[esp+44]
	movss	DWORD PTR [esp], xmm0
	push	ebx
	push	edi
	call	?drawTexture@@YAHPAUrender_state@@PAUIDirect3DTexture9@@MMMMKMMMM@Z ; drawTexture
	add	esp, 44					; 0000002cH
	test	eax, eax
	je	$LN14@drawRender
; Line 509
	movss	xmm0, DWORD PTR _y2$[esp+8]
	sub	esp, 16					; 00000010H
	movss	DWORD PTR [esp+12], xmm0
	movss	xmm0, DWORD PTR _x2$[esp+24]
	movss	DWORD PTR [esp+8], xmm0
	movss	xmm0, DWORD PTR _y1$[esp+24]
	movss	DWORD PTR [esp+4], xmm0
	movss	xmm0, DWORD PTR _x1$[esp+24]
	movss	DWORD PTR [esp], xmm0
	movss	xmm0, DWORD PTR _h$[esp+24]
	push	esi
	sub	esp, 16					; 00000010H
	movss	DWORD PTR [esp+12], xmm0
	movss	xmm0, DWORD PTR _w$[esp+44]
	movss	DWORD PTR [esp+8], xmm0
	movss	xmm0, DWORD PTR tv521[esp+44]
	movss	DWORD PTR [esp+4], xmm0
	movss	xmm0, DWORD PTR _x$[esp+44]
	movss	DWORD PTR [esp], xmm0
	push	ebx
	push	edi
	call	?drawTexture@@YAHPAUrender_state@@PAUIDirect3DTexture9@@MMMMKMMMM@Z ; drawTexture
	add	esp, 44					; 0000002cH
	test	eax, eax
	je	SHORT $LN14@drawRender
$LN11@drawRender:
; Line 512
	movss	xmm0, DWORD PTR _y2$[esp+8]
	sub	esp, 16					; 00000010H
	movss	DWORD PTR [esp+12], xmm0
	movss	xmm0, DWORD PTR _x2$[esp+24]
	movss	DWORD PTR [esp+8], xmm0
	movss	xmm0, DWORD PTR _y1$[esp+24]
	movss	DWORD PTR [esp+4], xmm0
	movss	xmm0, DWORD PTR _x1$[esp+24]
	movss	DWORD PTR [esp], xmm0
	push	DWORD PTR _argb$[esp+24]
	movss	xmm0, DWORD PTR _h$[esp+28]
	sub	esp, 16					; 00000010H
	movss	DWORD PTR [esp+12], xmm0
	movss	xmm0, DWORD PTR _w$[esp+44]
	movss	DWORD PTR [esp+8], xmm0
	movss	xmm0, DWORD PTR _y$[esp+44]
	movss	DWORD PTR [esp+4], xmm0
	movss	xmm0, DWORD PTR _x$[esp+44]
	movss	DWORD PTR [esp], xmm0
	push	ebx
	push	edi
	call	?drawTexture@@YAHPAUrender_state@@PAUIDirect3DTexture9@@MMMMKMMMM@Z ; drawTexture
	add	esp, 44					; 0000002cH
	test	eax, eax
	jne	SHORT $LN12@drawRender
$LN14@drawRender:
	pop	edi
; Line 515
	pop	esi
	xor	eax, eax
	pop	ebx
	ret	0
$LN12@drawRender:
	pop	edi
	pop	esi
	mov	eax, 1
	pop	ebx
	ret	0
?drawRenderStringTexture@@YAHKPAUrender_state@@PAUIDirect3DTexture9@@MMMMMKKMMMM@Z ENDP ; drawRenderStringTexture
_TEXT	ENDS
; Function compile flags: /Ogtpy
;	COMDAT ?getRenderStringClipping@@YAXKPAUrender_text_draw@@PAM11111@Z
_TEXT	SEGMENT
_flags$ = 8						; size = 4
_args$ = 12						; size = 4
_width$ = 16						; size = 4
_height$ = 20						; size = 4
_x1$ = 24						; size = 4
_y1$ = 28						; size = 4
_x2$ = 32						; size = 4
_y2$ = 36						; size = 4
?getRenderStringClipping@@YAXKPAUrender_text_draw@@PAM11111@Z PROC ; getRenderStringClipping, COMDAT
; File C:\Program Files (x86)\Steam\steamapps\common\Bully Scholarship Edition\_derpy_script_loader\src\client\render.cpp
; Line 459
	mov	edx, DWORD PTR _y1$[esp-4]
	xorps	xmm5, xmm5
; Line 462
	mov	eax, DWORD PTR _args$[esp-4]
; Line 463
	mov	ecx, DWORD PTR _height$[esp-4]
; Line 464
	movss	xmm6, DWORD PTR __real@3f000000
	push	ebx
	mov	ebx, DWORD PTR _x2$[esp]
	push	ebp
	mov	ebp, DWORD PTR _width$[esp+4]
	push	esi
	mov	esi, DWORD PTR _y2$[esp+8]
	push	edi
	mov	edi, DWORD PTR _x1$[esp+12]
	mov	DWORD PTR [edi], 0
	mov	DWORD PTR [edx], 0
	mov	DWORD PTR [ebx], 1065353216		; 3f800000H
	mov	DWORD PTR [esi], 1065353216		; 3f800000H
	movss	xmm4, DWORD PTR [ebp]
	movss	xmm2, DWORD PTR [ecx]
	movaps	xmm3, xmm4
	subss	xmm3, DWORD PTR [eax+24]
	subss	xmm2, DWORD PTR [eax+28]
	mov	eax, DWORD PTR _flags$[esp+12]
	test	eax, 256				; 00000100H
	je	SHORT $LN2@getRenderS
	comiss	xmm3, xmm5
	jbe	SHORT $LN2@getRenderS
; Line 465
	movaps	xmm1, xmm3
	test	al, 1
	je	$LN3@getRenderS
; Line 466
	mulss	xmm1, xmm6
	movaps	xmm0, xmm1
	divss	xmm0, xmm4
	addss	xmm0, DWORD PTR [edi]
	movss	DWORD PTR [edi], xmm0
	divss	xmm1, DWORD PTR [ebp]
$LN5@getRenderS:
; Line 471
	movss	xmm0, DWORD PTR [ebx]
	subss	xmm0, xmm1
	movss	DWORD PTR [ebx], xmm0
$LN6@getRenderS:
	movss	xmm0, DWORD PTR [ebp]
	subss	xmm0, xmm3
	movss	DWORD PTR [ebp], xmm0
$LN2@getRenderS:
; Line 473
	test	eax, 512				; 00000200H
	je	SHORT $LN7@getRenderS
	comiss	xmm2, xmm5
	jbe	SHORT $LN7@getRenderS
; Line 474
	movss	xmm3, DWORD PTR [ecx]
	movaps	xmm1, xmm2
	test	eax, 8192				; 00002000H
	je	SHORT $LN8@getRenderS
; Line 475
	mulss	xmm1, xmm6
	movaps	xmm0, xmm1
	divss	xmm0, xmm3
	addss	xmm0, DWORD PTR [edx]
	movss	DWORD PTR [edx], xmm0
	divss	xmm1, DWORD PTR [ecx]
$LN10@getRenderS:
; Line 480
	movss	xmm0, DWORD PTR [esi]
	subss	xmm0, xmm1
	movss	DWORD PTR [esi], xmm0
	movss	xmm0, DWORD PTR [ecx]
	subss	xmm0, xmm2
	movss	DWORD PTR [ecx], xmm0
$LN7@getRenderS:
; Line 482
	pop	edi
	pop	esi
	pop	ebp
	pop	ebx
	ret	0
$LN3@getRenderS:
; Line 467
	divss	xmm1, xmm4
	test	al, 2
	je	SHORT $LN5@getRenderS
; Line 468
	movss	xmm0, DWORD PTR [edi]
	addss	xmm0, xmm1
	movss	DWORD PTR [edi], xmm0
	jmp	SHORT $LN6@getRenderS
$LN8@getRenderS:
; Line 476
	divss	xmm1, xmm3
	test	eax, 4096				; 00001000H
	je	SHORT $LN10@getRenderS
; Line 477
	movss	xmm0, DWORD PTR [edx]
	addss	xmm0, xmm1
	pop	edi
; Line 482
	pop	esi
	pop	ebp
	pop	ebx
	movss	DWORD PTR [edx], xmm0
	movss	xmm0, DWORD PTR [ecx]
	subss	xmm0, xmm2
	movss	DWORD PTR [ecx], xmm0
	ret	0
?getRenderStringClipping@@YAXKPAUrender_text_draw@@PAM11111@Z ENDP ; getRenderStringClipping
_TEXT	ENDS
; Function compile flags: /Ogtpy
;	COMDAT ?getRenderStringPos@@YAXKMMMMPAM0@Z
_TEXT	SEGMENT
_flags$ = 8						; size = 4
_x$ = 12						; size = 4
_y$ = 16						; size = 4
_w$ = 20						; size = 4
_h$ = 24						; size = 4
_rx$ = 28						; size = 4
_ry$ = 32						; size = 4
?getRenderStringPos@@YAXKMMMMPAM0@Z PROC		; getRenderStringPos, COMDAT
; File C:\Program Files (x86)\Steam\steamapps\common\Bully Scholarship Edition\_derpy_script_loader\src\client\render.cpp
; Line 444
	mov	eax, DWORD PTR _flags$[esp-4]
	movss	xmm1, DWORD PTR __real@3f000000
	movss	xmm2, DWORD PTR _x$[esp-4]
	test	al, 1
	je	SHORT $LN2@getRenderS
; Line 445
	movss	xmm0, DWORD PTR _w$[esp-4]
	mulss	xmm0, xmm1
	subss	xmm2, xmm0
	jmp	SHORT $LN4@getRenderS
$LN2@getRenderS:
; Line 446
	test	al, 2
	je	SHORT $LN4@getRenderS
; Line 447
	subss	xmm2, DWORD PTR _w$[esp-4]
$LN4@getRenderS:
; Line 448
	test	eax, 4096				; 00001000H
	je	SHORT $LN5@getRenderS
; Line 452
	mov	eax, DWORD PTR _rx$[esp-4]
	movss	xmm1, DWORD PTR _y$[esp-4]
	subss	xmm1, DWORD PTR _h$[esp-4]
	movss	DWORD PTR [eax], xmm2
; Line 453
	mov	eax, DWORD PTR _ry$[esp-4]
	movss	DWORD PTR [eax], xmm1
; Line 454
	ret	0
$LN5@getRenderS:
; Line 450
	test	eax, 8192				; 00002000H
	je	SHORT $LN10@getRenderS
; Line 451
	movss	xmm0, DWORD PTR _h$[esp-4]
; Line 452
	mov	eax, DWORD PTR _rx$[esp-4]
	mulss	xmm0, xmm1
	movss	xmm1, DWORD PTR _y$[esp-4]
	movss	DWORD PTR [eax], xmm2
; Line 453
	mov	eax, DWORD PTR _ry$[esp-4]
	subss	xmm1, xmm0
	movss	DWORD PTR [eax], xmm1
; Line 454
	ret	0
$LN10@getRenderS:
; Line 452
	mov	eax, DWORD PTR _rx$[esp-4]
	movss	xmm1, DWORD PTR _y$[esp-4]
	movss	DWORD PTR [eax], xmm2
; Line 453
	mov	eax, DWORD PTR _ry$[esp-4]
	movss	DWORD PTR [eax], xmm1
; Line 454
	ret	0
?getRenderStringPos@@YAXKMMMMPAM0@Z ENDP		; getRenderStringPos
_TEXT	ENDS
; Function compile flags: /Ogtpy
;	COMDAT _clearRenderDisplay
_TEXT	SEGMENT
_render$ = 8						; size = 4
_clearRenderDisplay PROC				; COMDAT
; File C:\Program Files (x86)\Steam\steamapps\common\Bully Scholarship Edition\_derpy_script_loader\src\client\render.cpp
; Line 436
	push	esi
; Line 437
	mov	esi, DWORD PTR _render$[esp]
	push	0
	mov	ecx, DWORD PTR [esi]
	push	ecx
	mov	DWORD PTR [esp], 0
	push	-16777216				; ff000000H
	mov	eax, DWORD PTR [ecx]
	push	1
	push	0
	push	0
	push	ecx
	call	DWORD PTR [eax+172]
	test	eax, eax
	je	SHORT $LN2@clearRende
; Line 438
	mov	DWORD PTR [esi+72], 3
	xor	eax, eax
	pop	esi
; Line 440
	ret	0
$LN2@clearRende:
; Line 439
	mov	DWORD PTR [esi+72], 0
	mov	eax, 1
	pop	esi
; Line 440
	ret	0
_clearRenderDisplay ENDP
_TEXT	ENDS
; Function compile flags: /Ogtpy
;	COMDAT _drawRenderTextureUV2
_TEXT	SEGMENT
_render$ = 8						; size = 4
_texture$ = 12						; size = 4
_x$ = 16						; size = 4
_y$ = 20						; size = 4
_w$ = 24						; size = 4
_h$ = 28						; size = 4
_argb$ = 32						; size = 4
_x1$ = 36						; size = 4
_y1$ = 40						; size = 4
_x2$ = 44						; size = 4
_y2$ = 48						; size = 4
_spin$ = 52						; size = 4
_drawRenderTextureUV2 PROC				; COMDAT
; File C:\Program Files (x86)\Steam\steamapps\common\Bully Scholarship Edition\_derpy_script_loader\src\client\render.cpp
; Line 432
	movss	xmm1, DWORD PTR _w$[esp-4]
	xorps	xmm0, xmm0
	ucomiss	xmm1, xmm0
	lahf
	test	ah, 68					; 00000044H
	jnp	$LN2@drawRender
	movss	xmm2, DWORD PTR _h$[esp-4]
	ucomiss	xmm2, xmm0
	lahf
	test	ah, 68					; 00000044H
	jnp	SHORT $LN2@drawRender
; Line 433
	movss	xmm0, DWORD PTR _spin$[esp-4]
	sub	esp, 20					; 00000014H
	mov	eax, DWORD PTR _texture$[esp+16]
	movss	DWORD PTR [esp+16], xmm0
	movss	xmm0, DWORD PTR _y2$[esp+16]
	movss	DWORD PTR [esp+12], xmm0
	movss	xmm0, DWORD PTR _x2$[esp+16]
	movss	DWORD PTR [esp+8], xmm0
	movss	xmm0, DWORD PTR _y1$[esp+16]
	movss	DWORD PTR [esp+4], xmm0
	movss	xmm0, DWORD PTR _x1$[esp+16]
	movss	DWORD PTR [esp], xmm0
	push	DWORD PTR _argb$[esp+16]
	movss	xmm0, DWORD PTR _y$[esp+20]
	sub	esp, 16					; 00000010H
	movss	DWORD PTR [esp+12], xmm2
	movss	DWORD PTR [esp+8], xmm1
	movss	DWORD PTR [esp+4], xmm0
	movss	xmm0, DWORD PTR _x$[esp+36]
	movss	DWORD PTR [esp], xmm0
	push	DWORD PTR [eax]
	push	DWORD PTR _render$[esp+40]
	call	?drawTexture2@@YAHPAUrender_state@@PAUIDirect3DTexture9@@MMMMKMMMMM@Z ; drawTexture2
	add	esp, 48					; 00000030H
; Line 435
	ret	0
$LN2@drawRender:
; Line 434
	mov	eax, DWORD PTR _render$[esp-4]
	mov	DWORD PTR [eax+72], 0
	mov	eax, 1
; Line 435
	ret	0
_drawRenderTextureUV2 ENDP
_TEXT	ENDS
; Function compile flags: /Ogtpy
;	COMDAT _drawRenderTextureUV
_TEXT	SEGMENT
_render$ = 8						; size = 4
_texture$ = 12						; size = 4
_x$ = 16						; size = 4
_y$ = 20						; size = 4
_w$ = 24						; size = 4
_h$ = 28						; size = 4
_argb$ = 32						; size = 4
_x1$ = 36						; size = 4
_y1$ = 40						; size = 4
_x2$ = 44						; size = 4
_y2$ = 48						; size = 4
_drawRenderTextureUV PROC				; COMDAT
; File C:\Program Files (x86)\Steam\steamapps\common\Bully Scholarship Edition\_derpy_script_loader\src\client\render.cpp
; Line 427
	movss	xmm1, DWORD PTR _w$[esp-4]
	xorps	xmm0, xmm0
	ucomiss	xmm1, xmm0
	lahf
	test	ah, 68					; 00000044H
	jnp	SHORT $LN2@drawRender
	movss	xmm2, DWORD PTR _h$[esp-4]
	ucomiss	xmm2, xmm0
	lahf
	test	ah, 68					; 00000044H
	jnp	SHORT $LN2@drawRender
; Line 428
	movss	xmm0, DWORD PTR _y2$[esp-4]
	sub	esp, 16					; 00000010H
	mov	eax, DWORD PTR _texture$[esp+12]
	movss	DWORD PTR [esp+12], xmm0
	movss	xmm0, DWORD PTR _x2$[esp+12]
	movss	DWORD PTR [esp+8], xmm0
	movss	xmm0, DWORD PTR _y1$[esp+12]
	movss	DWORD PTR [esp+4], xmm0
	movss	xmm0, DWORD PTR _x1$[esp+12]
	movss	DWORD PTR [esp], xmm0
	push	DWORD PTR _argb$[esp+12]
	movss	xmm0, DWORD PTR _y$[esp+16]
	sub	esp, 16					; 00000010H
	movss	DWORD PTR [esp+12], xmm2
	movss	DWORD PTR [esp+8], xmm1
	movss	DWORD PTR [esp+4], xmm0
	movss	xmm0, DWORD PTR _x$[esp+32]
	movss	DWORD PTR [esp], xmm0
	push	DWORD PTR [eax]
	push	DWORD PTR _render$[esp+36]
	call	?drawTexture@@YAHPAUrender_state@@PAUIDirect3DTexture9@@MMMMKMMMM@Z ; drawTexture
	add	esp, 44					; 0000002cH
; Line 430
	ret	0
$LN2@drawRender:
; Line 429
	mov	eax, DWORD PTR _render$[esp-4]
	mov	DWORD PTR [eax+72], 0
	mov	eax, 1
; Line 430
	ret	0
_drawRenderTextureUV ENDP
_TEXT	ENDS
; Function compile flags: /Ogtpy
;	COMDAT _drawRenderRectangle
_TEXT	SEGMENT
_render$ = 8						; size = 4
_x$ = 12						; size = 4
_y$ = 16						; size = 4
_w$ = 20						; size = 4
_h$ = 24						; size = 4
_argb$ = 28						; size = 4
_drawRenderRectangle PROC				; COMDAT
; File C:\Program Files (x86)\Steam\steamapps\common\Bully Scholarship Edition\_derpy_script_loader\src\client\render.cpp
; Line 408
	movss	xmm2, DWORD PTR _w$[esp-4]
	xorps	xmm0, xmm0
	ucomiss	xmm2, xmm0
	lahf
	test	ah, 68					; 00000044H
	jnp	$LN6@drawRender
	movss	xmm6, DWORD PTR _h$[esp-4]
	ucomiss	xmm6, xmm0
	lahf
	test	ah, 68					; 00000044H
	jnp	$LN6@drawRender
; Line 411
	movss	xmm5, DWORD PTR _x$[esp-4]
; Line 412
	movss	xmm0, DWORD PTR _y$[esp-4]
	addss	xmm5, xmm2
; Line 420
	mov	eax, DWORD PTR _argb$[esp-4]
	addss	xmm0, xmm6
	push	esi
	push	edi
	mov	edi, DWORD PTR _render$[esp+4]
	lea	esi, DWORD PTR [edi+80]
; Line 421
	push	0
	push	0
	movd	xmm3, DWORD PTR [edi+60]
	movd	xmm4, DWORD PTR [edi+64]
	cvtdq2ps xmm3, xmm3
	cvtdq2ps xmm4, xmm4
	mulss	xmm5, xmm3
	mulss	xmm3, DWORD PTR _x$[esp+12]
	mulss	xmm0, xmm4
	mulss	xmm4, DWORD PTR _y$[esp+12]
	movss	DWORD PTR [esi], xmm5
	movss	DWORD PTR [esi+4], xmm0
	movss	DWORD PTR [esi+28], xmm3
	movss	DWORD PTR [esi+32], xmm0
	movss	DWORD PTR [esi+56], xmm3
	movss	DWORD PTR [esi+60], xmm4
	movss	DWORD PTR [esi+84], xmm5
	movss	DWORD PTR [esi+88], xmm4
	mov	DWORD PTR [esi+16], eax
	mov	DWORD PTR [esi+44], eax
	mov	DWORD PTR [esi+72], eax
	mov	DWORD PTR [esi+100], eax
	mov	eax, DWORD PTR [edi]
	push	eax
	mov	ecx, DWORD PTR [eax]
	call	DWORD PTR [ecx+260]
; Line 422
	mov	ecx, DWORD PTR [edi]
	push	28					; 0000001cH
	push	esi
	push	102					; 00000066H
	mov	eax, DWORD PTR [ecx]
	push	OFFSET ?g_quadindices@@3QBHB
	push	2
	push	4
	push	0
	push	4
	push	ecx
	call	DWORD PTR [eax+336]
	test	eax, eax
	je	SHORT $LN7@drawRender
; Line 423
	mov	DWORD PTR [edi+72], 3
	xor	eax, eax
	pop	edi
	pop	esi
; Line 425
	ret	0
$LN7@drawRender:
; Line 424
	mov	DWORD PTR [edi+72], 0
	mov	eax, 1
	pop	edi
	pop	esi
; Line 425
	ret	0
$LN6@drawRender:
; Line 409
	mov	eax, DWORD PTR _render$[esp-4]
	mov	DWORD PTR [eax+72], 0
	mov	eax, 1
; Line 425
	ret	0
_drawRenderRectangle ENDP
_TEXT	ENDS
; Function compile flags: /Ogtpy
;	COMDAT ?drawTexture2@@YAHPAUrender_state@@PAUIDirect3DTexture9@@MMMMKMMMMM@Z
_TEXT	SEGMENT
_x$1$ = -24						; size = 4
_y$1$ = -20						; size = 4
tv709 = -16						; size = 8
tv749 = -8						; size = 8
tv746 = -8						; size = 8
tv738 = -8						; size = 8
tv710 = -8						; size = 8
_render$ = 8						; size = 4
_texture$ = 12						; size = 4
_x$ = 16						; size = 4
_y$ = 20						; size = 4
_w$ = 24						; size = 4
_h$ = 28						; size = 4
_argb$ = 32						; size = 4
_x1$ = 36						; size = 4
_y1$ = 40						; size = 4
_x2$ = 44						; size = 4
_y2$ = 48						; size = 4
_spin$ = 52						; size = 4
?drawTexture2@@YAHPAUrender_state@@PAUIDirect3DTexture9@@MMMMKMMMMM@Z PROC ; drawTexture2, COMDAT
; File C:\Program Files (x86)\Steam\steamapps\common\Bully Scholarship Edition\_derpy_script_loader\src\client\render.cpp
; Line 363
	push	ebp
	mov	ebp, esp
	and	esp, -8					; fffffff8H
	sub	esp, 24					; 00000018H
	push	esi
; Line 369
	mov	esi, DWORD PTR _render$[ebp]
; Line 378
	movss	xmm6, DWORD PTR __xmm@80000000800000008000000080000000
	movss	xmm3, DWORD PTR _x2$[ebp]
	movss	xmm2, DWORD PTR _y2$[ebp]
	movd	xmm5, DWORD PTR [esi+60]
	movd	xmm4, DWORD PTR [esi+64]
	cvtdq2ps xmm5, xmm5
	push	edi
	lea	edi, DWORD PTR [esi+80]
	lea	esi, DWORD PTR [edi+4]
	cvtdq2ps xmm4, xmm4
	movaps	xmm0, xmm5
	movss	DWORD PTR [edi+20], xmm3
	mulss	xmm0, DWORD PTR _x$[ebp]
	mulss	xmm5, DWORD PTR __real@3f000000
	movss	DWORD PTR _x$1$[esp+32], xmm0
	movaps	xmm0, xmm4
	mulss	xmm4, DWORD PTR __real@3f000000
	mulss	xmm0, DWORD PTR _y$[ebp]
	mulss	xmm5, DWORD PTR _w$[ebp]
	mulss	xmm4, DWORD PTR _h$[ebp]
	movss	DWORD PTR _y$1$[esp+32], xmm0
	movaps	xmm1, xmm5
; Line 380
	movss	xmm0, DWORD PTR _x1$[ebp]
	xorps	xmm1, xmm6
	movss	DWORD PTR [edi+32], xmm4
	movss	DWORD PTR [edi+48], xmm0
; Line 384
	movss	DWORD PTR [edi+76], xmm0
; Line 385
	movss	xmm0, DWORD PTR _y1$[ebp]
	movss	DWORD PTR [esi], xmm4
	xorps	xmm4, xmm6
	movss	DWORD PTR [edi], xmm5
	movss	DWORD PTR [edi+24], xmm2
	movss	DWORD PTR [edi+28], xmm1
	movss	DWORD PTR [edi+52], xmm2
	movss	DWORD PTR [edi+56], xmm1
	movss	DWORD PTR [edi+60], xmm4
	movss	DWORD PTR [edi+80], xmm0
; Line 386
	movss	DWORD PTR [edi+84], xmm5
; Line 387
	movss	DWORD PTR [edi+88], xmm4
; Line 388
	movss	DWORD PTR [edi+104], xmm3
; Line 389
	movss	DWORD PTR [edi+108], xmm0
	mov	edi, 4
$LL4@drawTextur:
; Line 393
	movss	xmm0, DWORD PTR [esi-4]
	xorps	xmm0, xmm6
	cvtss2sd xmm0, xmm0
	movsd	QWORD PTR tv749[esp+32], xmm0
	movss	xmm0, DWORD PTR [esi]
	fld	QWORD PTR tv749[esp+32]
	cvtps2pd xmm0, xmm0
	movsd	QWORD PTR tv746[esp+32], xmm0
	fld	QWORD PTR tv746[esp+32]
	call	__CIatan2
	movss	xmm0, DWORD PTR _spin$[ebp]
	cvtps2pd xmm0, xmm0
	fstp	QWORD PTR tv738[esp+32]
	movsd	xmm1, QWORD PTR tv738[esp+32]
	addsd	xmm1, xmm0
	cvtpd2ps xmm0, xmm1
	movss	xmm1, DWORD PTR [esi]
; Line 394
	cvtps2pd xmm0, xmm0
	mulss	xmm1, xmm1
	movsd	QWORD PTR tv709[esp+32], xmm0
	movss	xmm0, DWORD PTR [esi-4]
	mulss	xmm0, xmm0
	addss	xmm0, xmm1
	cvtps2pd xmm0, xmm0
	call	__libm_sse2_sqrt_precise
	cvtsd2ss xmm0, xmm0
	cvtss2sd xmm0, xmm0
	movsd	QWORD PTR tv710[esp+32], xmm0
	movsd	xmm0, QWORD PTR tv709[esp+32]
	call	__libm_sse2_sin_precise
	movss	xmm2, DWORD PTR _x$1$[esp+32]
	mulsd	xmm0, QWORD PTR tv710[esp+32]
	cvtps2pd xmm1, xmm2
	subsd	xmm1, xmm0
; Line 395
	movsd	xmm0, QWORD PTR tv709[esp+32]
	cvtpd2ps xmm1, xmm1
	movss	DWORD PTR [esi-4], xmm1
	call	__libm_sse2_cos_precise
	movss	xmm1, DWORD PTR _y$1$[esp+32]
	mulsd	xmm0, QWORD PTR tv710[esp+32]
; Line 396
	mov	eax, DWORD PTR _argb$[ebp]
	movss	xmm6, DWORD PTR __xmm@80000000800000008000000080000000
	cvtps2pd xmm1, xmm1
	mov	DWORD PTR [esi+12], eax
	addsd	xmm0, xmm1
	cvtsd2ss xmm0, xmm0
	movss	DWORD PTR [esi], xmm0
	add	esi, 28					; 0000001cH
	sub	edi, 1
	jne	$LL4@drawTextur
; Line 398
	mov	esi, DWORD PTR _render$[ebp]
	push	DWORD PTR _texture$[ebp]
	push	0
	mov	ecx, DWORD PTR [esi]
	push	ecx
	mov	eax, DWORD PTR [ecx]
	call	DWORD PTR [eax+260]
	lea	edi, DWORD PTR [esi+80]
	test	eax, eax
	jne	SHORT $LN12@drawTextur
; Line 400
	mov	eax, DWORD PTR [esi]
	push	28					; 0000001cH
	push	edi
	push	102					; 00000066H
	mov	ecx, DWORD PTR [eax]
	push	OFFSET ?g_quadindices@@3QBHB
	push	2
	push	4
	push	0
	push	4
	push	eax
	call	DWORD PTR [ecx+336]
	test	eax, eax
	jne	SHORT $LN12@drawTextur
; Line 402
	mov	DWORD PTR [esi+72], eax
	mov	eax, 1
; Line 403
	pop	edi
	pop	esi
	mov	esp, ebp
	pop	ebp
	ret	0
$LN12@drawTextur:
	pop	edi
	mov	DWORD PTR [esi+72], 3
	xor	eax, eax
	pop	esi
	mov	esp, ebp
	pop	ebp
	ret	0
?drawTexture2@@YAHPAUrender_state@@PAUIDirect3DTexture9@@MMMMKMMMMM@Z ENDP ; drawTexture2
_TEXT	ENDS
; Function compile flags: /Ogtpy
;	COMDAT ?drawTexture@@YAHPAUrender_state@@PAUIDirect3DTexture9@@MMMMKMMMM@Z
_TEXT	SEGMENT
_render$ = 8						; size = 4
_texture$ = 12						; size = 4
_x$ = 16						; size = 4
_y$ = 20						; size = 4
_w$ = 24						; size = 4
_h$ = 28						; size = 4
_argb$ = 32						; size = 4
_x1$ = 36						; size = 4
_y1$ = 40						; size = 4
_x2$ = 44						; size = 4
_y2$ = 48						; size = 4
?drawTexture@@YAHPAUrender_state@@PAUIDirect3DTexture9@@MMMMKMMMM@Z PROC ; drawTexture, COMDAT
; File C:\Program Files (x86)\Steam\steamapps\common\Bully Scholarship Edition\_derpy_script_loader\src\client\render.cpp
; Line 340
	movss	xmm0, DWORD PTR _y$[esp-4]
	addss	xmm0, DWORD PTR _h$[esp-4]
	movss	xmm7, DWORD PTR _x$[esp-4]
	addss	xmm7, DWORD PTR _w$[esp-4]
; Line 341
	movss	xmm4, DWORD PTR _x2$[esp-4]
; Line 342
	movss	xmm1, DWORD PTR _y2$[esp-4]
; Line 356
	mov	eax, DWORD PTR _argb$[esp-4]
	push	esi
	mov	esi, DWORD PTR _render$[esp]
	push	edi
; Line 357
	push	DWORD PTR _texture$[esp+4]
	lea	edi, DWORD PTR [esi+80]
	movss	DWORD PTR [edi+20], xmm4
	movd	xmm6, DWORD PTR [esi+64]
	movd	xmm5, DWORD PTR [esi+60]
	cvtdq2ps xmm6, xmm6
	push	0
	cvtdq2ps xmm5, xmm5
	mulss	xmm0, xmm6
	mulss	xmm6, DWORD PTR _y$[esp+12]
	movss	DWORD PTR [edi+4], xmm0
	movss	DWORD PTR [edi+32], xmm0
	movss	xmm0, DWORD PTR _x1$[esp+12]
	movss	DWORD PTR [edi+48], xmm0
	movss	DWORD PTR [edi+76], xmm0
	movss	xmm0, DWORD PTR _y1$[esp+12]
	mulss	xmm7, xmm5
	mulss	xmm5, DWORD PTR _x$[esp+12]
	movss	DWORD PTR [edi], xmm7
	movss	DWORD PTR [edi+24], xmm1
	movss	DWORD PTR [edi+28], xmm5
	movss	DWORD PTR [edi+52], xmm1
	movss	DWORD PTR [edi+56], xmm5
	movss	DWORD PTR [edi+60], xmm6
	movss	DWORD PTR [edi+80], xmm0
	movss	DWORD PTR [edi+84], xmm7
	movss	DWORD PTR [edi+88], xmm6
	movss	DWORD PTR [edi+104], xmm4
	movss	DWORD PTR [edi+108], xmm0
	mov	DWORD PTR [edi+16], eax
	mov	DWORD PTR [edi+44], eax
	mov	DWORD PTR [edi+72], eax
	mov	DWORD PTR [edi+100], eax
	mov	ecx, DWORD PTR [esi]
	push	ecx
	mov	eax, DWORD PTR [ecx]
	call	DWORD PTR [eax+260]
	test	eax, eax
	jne	SHORT $LN16@drawTextur
; Line 359
	mov	eax, DWORD PTR [esi]
	push	28					; 0000001cH
	push	edi
	push	102					; 00000066H
	mov	ecx, DWORD PTR [eax]
	push	OFFSET ?g_quadindices@@3QBHB
	push	2
	push	4
	push	0
	push	4
	push	eax
	call	DWORD PTR [ecx+336]
	test	eax, eax
	jne	SHORT $LN16@drawTextur
; Line 361
	mov	DWORD PTR [esi+72], eax
	mov	eax, 1
	pop	edi
; Line 362
	pop	esi
	ret	0
$LN16@drawTextur:
	pop	edi
; Line 360
	mov	DWORD PTR [esi+72], 3
	xor	eax, eax
; Line 362
	pop	esi
	ret	0
?drawTexture@@YAHPAUrender_state@@PAUIDirect3DTexture9@@MMMMKMMMM@Z ENDP ; drawTexture
_TEXT	ENDS
; Function compile flags: /Ogtpy
;	COMDAT _fillRenderTextureBackBuffer
_TEXT	SEGMENT
_surface$ = -76						; size = 4
_copy$ = -72						; size = 4
_desc$ = -68						; size = 32
_desc2$ = -36						; size = 32
__$ArrayPad$ = -4					; size = 4
_render$ = 8						; size = 4
_texture$ = 12						; size = 4
_fillRenderTextureBackBuffer PROC			; COMDAT
; File C:\Program Files (x86)\Steam\steamapps\common\Bully Scholarship Edition\_derpy_script_loader\src\client\render.cpp
; Line 308
	sub	esp, 76					; 0000004cH
	mov	eax, DWORD PTR ___security_cookie
	xor	eax, esp
	mov	DWORD PTR __$ArrayPad$[esp+76], eax
	push	esi
	mov	esi, DWORD PTR _render$[esp+76]
; Line 312
	lea	edx, DWORD PTR _surface$[esp+80]
	push	edi
	mov	edi, DWORD PTR _texture$[esp+80]
	push	edx
	mov	eax, DWORD PTR [esi]
	push	0
	push	0
	push	0
	mov	ecx, DWORD PTR [eax]
	push	eax
	call	DWORD PTR [ecx+72]
	test	eax, eax
	jne	SHORT $LN9@fillRender
; Line 314
	mov	eax, DWORD PTR _surface$[esp+84]
	lea	edx, DWORD PTR _desc$[esp+84]
	push	edx
	push	eax
	mov	ecx, DWORD PTR [eax]
	call	DWORD PTR [ecx+48]
	test	eax, eax
	jne	SHORT $LN4@fillRender
	mov	eax, DWORD PTR [edi]
	lea	edx, DWORD PTR _copy$[esp+84]
	push	edx
	push	0
	push	eax
	mov	ecx, DWORD PTR [eax]
	call	DWORD PTR [ecx+72]
	test	eax, eax
	jne	SHORT $LN4@fillRender
; Line 318
	mov	eax, DWORD PTR _copy$[esp+84]
	lea	edx, DWORD PTR _desc2$[esp+84]
	push	edx
	push	eax
	mov	ecx, DWORD PTR [eax]
	call	DWORD PTR [ecx+48]
	test	eax, eax
	jne	SHORT $LN6@fillRender
	mov	eax, DWORD PTR _desc$[esp+84]
	cmp	eax, DWORD PTR _desc2$[esp+84]
	jne	SHORT $LN6@fillRender
; Line 323
	mov	ecx, DWORD PTR [esi]
	push	0
	push	0
	push	DWORD PTR _copy$[esp+92]
	mov	eax, DWORD PTR [ecx]
	push	0
	push	DWORD PTR _surface$[esp+100]
	push	ecx
	call	DWORD PTR [eax+136]
	test	eax, eax
	mov	eax, DWORD PTR _copy$[esp+84]
	push	eax
	mov	ecx, DWORD PTR [eax]
	je	SHORT $LN7@fillRender
; Line 324
	call	DWORD PTR [ecx+8]
$LN4@fillRender:
; Line 331
	mov	eax, DWORD PTR _surface$[esp+84]
	push	eax
	mov	ecx, DWORD PTR [eax]
	call	DWORD PTR [ecx+8]
$LN9@fillRender:
	pop	edi
	mov	DWORD PTR [esi+72], 3
	xor	eax, eax
	pop	esi
	mov	ecx, DWORD PTR __$ArrayPad$[esp+76]
	xor	ecx, esp
	call	@__security_check_cookie@4
	add	esp, 76					; 0000004cH
	ret	0
$LN7@fillRender:
; Line 328
	call	DWORD PTR [ecx+8]
; Line 329
	mov	eax, DWORD PTR _surface$[esp+84]
	push	eax
	mov	ecx, DWORD PTR [eax]
	call	DWORD PTR [ecx+8]
	pop	edi
; Line 330
	mov	DWORD PTR [esi+72], 0
	mov	eax, 1
; Line 331
	pop	esi
	mov	ecx, DWORD PTR __$ArrayPad$[esp+76]
	xor	ecx, esp
	call	@__security_check_cookie@4
	add	esp, 76					; 0000004cH
	ret	0
$LN6@fillRender:
; Line 319
	mov	eax, DWORD PTR _copy$[esp+84]
	push	eax
	mov	ecx, DWORD PTR [eax]
	call	DWORD PTR [ecx+8]
; Line 320
	mov	eax, DWORD PTR _surface$[esp+84]
	push	eax
	mov	ecx, DWORD PTR [eax]
	call	DWORD PTR [ecx+8]
; Line 331
	mov	ecx, DWORD PTR __$ArrayPad$[esp+84]
	xor	eax, eax
	pop	edi
	mov	DWORD PTR [esi+72], 21			; 00000015H
	pop	esi
	xor	ecx, esp
	call	@__security_check_cookie@4
	add	esp, 76					; 0000004cH
	ret	0
_fillRenderTextureBackBuffer ENDP
_TEXT	ENDS
; Function compile flags: /Ogtpy
;	COMDAT _createRenderTextureTarget
_TEXT	SEGMENT
_render$ = 8						; size = 4
_width$ = 12						; size = 4
_height$ = 16						; size = 4
_createRenderTextureTarget PROC				; COMDAT
; File C:\Program Files (x86)\Steam\steamapps\common\Bully Scholarship Edition\_derpy_script_loader\src\client\render.cpp
; Line 291
	push	esi
	push	edi
; Line 294
	push	16					; 00000010H
	call	_malloc
	mov	edi, DWORD PTR _render$[esp+8]
	mov	esi, eax
	add	esp, 4
; Line 295
	test	esi, esi
	jne	SHORT $LN2@createRend
; Line 296
	mov	DWORD PTR [edi+72], 5
	pop	edi
; Line 307
	pop	esi
	ret	0
$LN2@createRend:
; Line 297
	mov	eax, DWORD PTR [edi]
	push	ebx
	mov	ebx, DWORD PTR _height$[esp+8]
	push	ebp
	mov	ecx, DWORD PTR [eax]
	mov	ebp, DWORD PTR _width$[esp+12]
	push	0
	push	esi
	push	0
	push	21					; 00000015H
	push	1
	push	1
	push	ebx
	push	ebp
	push	eax
	call	DWORD PTR [ecx+92]
	test	eax, eax
	je	SHORT $LN3@createRend
; Line 298
	push	esi
	call	_free
	add	esp, 4
; Line 299
	mov	DWORD PTR [edi+72], 22			; 00000016H
	xor	eax, eax
	pop	ebp
	pop	ebx
	pop	edi
; Line 307
	pop	esi
	ret	0
$LN3@createRend:
; Line 303
	mov	eax, DWORD PTR [edi+56]
	mov	DWORD PTR [esi+4], ebp
	pop	ebp
	mov	DWORD PTR [esi+8], ebx
	pop	ebx
; Line 304
	mov	DWORD PTR [edi+56], esi
	mov	DWORD PTR [esi+12], eax
; Line 306
	mov	eax, esi
	mov	DWORD PTR [edi+72], 0
	pop	edi
; Line 307
	pop	esi
	ret	0
_createRenderTextureTarget ENDP
_TEXT	ENDS
; Function compile flags: /Ogtpy
;	COMDAT _getRenderTextureResolution
_TEXT	SEGMENT
_render$ = 8						; size = 4
_texture$ = 12						; size = 4
_width$ = 16						; size = 4
_height$ = 20						; size = 4
_getRenderTextureResolution PROC			; COMDAT
; File C:\Program Files (x86)\Steam\steamapps\common\Bully Scholarship Edition\_derpy_script_loader\src\client\render.cpp
; Line 286
	mov	edx, DWORD PTR _texture$[esp-4]
	mov	eax, DWORD PTR _width$[esp-4]
	mov	ecx, DWORD PTR [edx+4]
	mov	DWORD PTR [eax], ecx
; Line 287
	mov	eax, DWORD PTR _height$[esp-4]
	mov	ecx, DWORD PTR [edx+8]
	mov	DWORD PTR [eax], ecx
; Line 288
	ret	0
_getRenderTextureResolution ENDP
_TEXT	ENDS
; Function compile flags: /Ogtpy
;	COMDAT _getRenderTextureAspect
_TEXT	SEGMENT
_render$ = 8						; size = 4
tv82 = 12						; size = 4
_texture$ = 12						; size = 4
_getRenderTextureAspect PROC				; COMDAT
; File C:\Program Files (x86)\Steam\steamapps\common\Bully Scholarship Edition\_derpy_script_loader\src\client\render.cpp
; Line 283
	mov	ecx, DWORD PTR _texture$[esp-4]
	xorps	xmm0, xmm0
	mov	eax, DWORD PTR [ecx+4]
	cvtsi2sd xmm0, eax
	shr	eax, 31					; 0000001fH
	addsd	xmm0, QWORD PTR __xmm@41f00000000000000000000000000000[eax*8]
	mov	eax, DWORD PTR [ecx+8]
	cvtpd2ps xmm1, xmm0
	xorps	xmm0, xmm0
	cvtsi2sd xmm0, eax
	shr	eax, 31					; 0000001fH
	addsd	xmm0, QWORD PTR __xmm@41f00000000000000000000000000000[eax*8]
	cvtpd2ps xmm0, xmm0
	divss	xmm1, xmm0
	movss	DWORD PTR tv82[esp-4], xmm1
	fld	DWORD PTR tv82[esp-4]
; Line 284
	ret	0
_getRenderTextureAspect ENDP
_TEXT	ENDS
; Function compile flags: /Ogtpy
;	COMDAT _destroyRenderTexture
_TEXT	SEGMENT
_render$ = 8						; size = 4
_texture$ = 12						; size = 4
_destroyRenderTexture PROC				; COMDAT
; File C:\Program Files (x86)\Steam\steamapps\common\Bully Scholarship Edition\_derpy_script_loader\src\client\render.cpp
; Line 268
	mov	ecx, DWORD PTR _render$[esp-4]
	push	esi
; Line 269
	mov	esi, DWORD PTR _texture$[esp]
	mov	eax, DWORD PTR [ecx+56]
	cmp	eax, esi
	jne	SHORT $LN10@destroyRen
; Line 270
	mov	eax, DWORD PTR [esi+12]
	mov	DWORD PTR [ecx+56], eax
; Line 237
	mov	eax, DWORD PTR [esi]
	push	eax
	mov	ecx, DWORD PTR [eax]
	call	DWORD PTR [ecx+8]
; Line 238
	push	esi
	call	_free
	add	esp, 4
	pop	esi
; Line 281
	ret	0
$LN10@destroyRen:
; Line 272
	lea	ecx, DWORD PTR [eax+12]
	mov	eax, DWORD PTR [ecx]
	test	eax, eax
	je	SHORT $LN3@destroyRen
$LL2@destroyRen:
; Line 273
	cmp	eax, esi
	je	SHORT $LN11@destroyRen
; Line 272
	lea	ecx, DWORD PTR [eax+12]
	mov	eax, DWORD PTR [ecx]
	test	eax, eax
	jne	SHORT $LL2@destroyRen
; Line 237
	mov	eax, DWORD PTR [esi]
	push	eax
	mov	ecx, DWORD PTR [eax]
	call	DWORD PTR [ecx+8]
; Line 238
	push	esi
	call	_free
	add	esp, 4
	pop	esi
; Line 281
	ret	0
$LN11@destroyRen:
; Line 274
	mov	eax, DWORD PTR [esi+12]
	mov	DWORD PTR [ecx], eax
$LN3@destroyRen:
; Line 237
	mov	eax, DWORD PTR [esi]
	push	eax
	mov	ecx, DWORD PTR [eax]
	call	DWORD PTR [ecx+8]
; Line 238
	push	esi
	call	_free
	add	esp, 4
	pop	esi
; Line 281
	ret	0
_destroyRenderTexture ENDP
_TEXT	ENDS
; Function compile flags: /Ogtpy
;	COMDAT _createRenderTextureEx
_TEXT	SEGMENT
_render$ = 8						; size = 4
_source$ = 12						; size = 4
_file$ = 16						; size = 4
_createRenderTextureEx PROC				; COMDAT
; File C:\Program Files (x86)\Steam\steamapps\common\Bully Scholarship Edition\_derpy_script_loader\src\client\render.cpp
; Line 250
	push	esi
	push	edi
; Line 253
	push	16					; 00000010H
	call	_malloc
	mov	edi, DWORD PTR _render$[esp+8]
	mov	esi, eax
	add	esp, 4
; Line 254
	test	esi, esi
	jne	SHORT $LN2@createRend
; Line 255
	mov	DWORD PTR [edi+72], 5
	pop	edi
; Line 264
	pop	esi
	ret	0
$LN2@createRend:
; Line 256
	push	esi
	lea	eax, DWORD PTR [esi+8]
	push	eax
	lea	eax, DWORD PTR [esi+4]
	push	eax
	push	DWORD PTR _file$[esp+16]
	push	DWORD PTR _source$[esp+20]
	push	DWORD PTR [edi]
	call	?createTextureFromFile@@YAHPAUIDirect3DDevice9@@PAU_iobuf@@PAUdsl_file@@PAI3PAPAUIDirect3DTexture9@@@Z ; createTextureFromFile
	add	esp, 24					; 00000018H
	mov	DWORD PTR [edi+72], eax
	test	eax, eax
	je	SHORT $LN3@createRend
; Line 257
	push	esi
	call	_free
	add	esp, 4
; Line 258
	xor	eax, eax
	pop	edi
; Line 264
	pop	esi
	ret	0
$LN3@createRend:
; Line 260
	mov	eax, DWORD PTR [edi+56]
; Line 261
	mov	DWORD PTR [edi+56], esi
	mov	DWORD PTR [esi+12], eax
; Line 263
	mov	eax, esi
	mov	DWORD PTR [edi+72], 0
	pop	edi
; Line 264
	pop	esi
	ret	0
_createRenderTextureEx ENDP
_TEXT	ENDS
; Function compile flags: /Ogtpy
;	COMDAT ?destroyAllRenderTextures@@YAXPAUrender_state@@@Z
_TEXT	SEGMENT
_render$ = 8						; size = 4
?destroyAllRenderTextures@@YAXPAUrender_state@@@Z PROC	; destroyAllRenderTextures, COMDAT
; File C:\Program Files (x86)\Steam\steamapps\common\Bully Scholarship Edition\_derpy_script_loader\src\client\render.cpp
; Line 240
	push	ebx
; Line 243
	mov	ebx, DWORD PTR _render$[esp]
	push	esi
; Line 244
	mov	esi, DWORD PTR [ebx+56]
	test	esi, esi
	je	SHORT $LN11@destroyAll
	push	edi
	npad	2
$LL2@destroyAll:
; Line 237
	mov	eax, DWORD PTR [esi]
; Line 245
	mov	edi, DWORD PTR [esi+12]
; Line 237
	push	eax
	mov	ecx, DWORD PTR [eax]
	call	DWORD PTR [ecx+8]
; Line 238
	push	esi
	call	_free
	add	esp, 4
; Line 244
	mov	esi, edi
	test	edi, edi
	jne	SHORT $LL2@destroyAll
; Line 248
	pop	edi
$LN11@destroyAll:
	pop	esi
; Line 249
	mov	DWORD PTR [ebx+56], 0
	pop	ebx
	ret	0
?destroyAllRenderTextures@@YAXPAUrender_state@@@Z ENDP	; destroyAllRenderTextures
_TEXT	ENDS
; Function compile flags: /Ogtpy
;	COMDAT ?freeRenderTexture@@YAXPAUrender_texture@@@Z
_TEXT	SEGMENT
_texture$ = 8						; size = 4
?freeRenderTexture@@YAXPAUrender_texture@@@Z PROC	; freeRenderTexture, COMDAT
; File C:\Program Files (x86)\Steam\steamapps\common\Bully Scholarship Edition\_derpy_script_loader\src\client\render.cpp
; Line 236
	push	esi
; Line 237
	mov	esi, DWORD PTR _texture$[esp]
	mov	eax, DWORD PTR [esi]
	push	eax
	mov	ecx, DWORD PTR [eax]
	call	DWORD PTR [ecx+8]
; Line 238
	push	esi
	call	_free
	add	esp, 4
	pop	esi
; Line 239
	ret	0
?freeRenderTexture@@YAXPAUrender_texture@@@Z ENDP	; freeRenderTexture
_TEXT	ENDS
; Function compile flags: /Ogtpy
;	COMDAT ?assertViewport@@YAHHH@Z
_TEXT	SEGMENT
_w$ = 8							; size = 4
_h$ = 12						; size = 4
?assertViewport@@YAHHH@Z PROC				; assertViewport, COMDAT
; File C:\Program Files (x86)\Steam\steamapps\common\Bully Scholarship Edition\_derpy_script_loader\src\client\render.cpp
; Line 229
	cmp	DWORD PTR _w$[esp-4], 0
	jle	SHORT $LN3@assertView
	cmp	DWORD PTR _h$[esp-4], 0
	jle	SHORT $LN3@assertView
; Line 231
	xor	eax, eax
; Line 232
	ret	0
$LN3@assertView:
; Line 230
	mov	eax, 1
; Line 232
	ret	0
?assertViewport@@YAHHH@Z ENDP				; assertViewport
_TEXT	ENDS
; Function compile flags: /Ogtpy
;	COMDAT ?createTextureFromFile@@YAHPAUIDirect3DDevice9@@PAU_iobuf@@PAUdsl_file@@PAI3PAPAUIDirect3DTexture9@@@Z
_TEXT	SEGMENT
_info$ = -32						; size = 4
_png$ = -28						; size = 4
_texture$ = -24						; size = 4
_height$ = -20						; size = 4
_png$1 = -16						; size = 4
_width$ = -12						; size = 4
_rect$ = -8						; size = 8
_device$ = 8						; size = 4
_file$ = 12						; size = 4
_dfile$ = 16						; size = 4
_rwidth$ = 20						; size = 4
_rheight$ = 24						; size = 4
_rtexture$ = 28						; size = 4
?createTextureFromFile@@YAHPAUIDirect3DDevice9@@PAU_iobuf@@PAUdsl_file@@PAI3PAPAUIDirect3DTexture9@@@Z PROC ; createTextureFromFile, COMDAT
; File C:\Program Files (x86)\Steam\steamapps\common\Bully Scholarship Edition\_derpy_script_loader\src\client\render.cpp
; Line 178
	sub	esp, 32					; 00000020H
; Line 77
	push	0
	push	0
	push	0
	push	OFFSET ??_C@_06IJIHIEPH@1?46?437@
	call	_png_create_read_struct
	add	esp, 16					; 00000010H
	mov	DWORD PTR _png$1[esp+32], eax
; Line 78
	test	eax, eax
	je	SHORT $LN15@createText
; Line 80
	push	eax
	call	_png_create_info_struct
	mov	ecx, eax
	add	esp, 4
; Line 81
	test	ecx, ecx
	jne	SHORT $LN13@createText
; Line 82
	push	eax
	push	eax
	lea	eax, DWORD PTR _png$1[esp+40]
	push	eax
	call	_png_destroy_read_struct
	add	esp, 12					; 0000000cH
$LN15@createText:
; Line 188
	mov	eax, 1
; Line 224
	add	esp, 32					; 00000020H
	ret	0
$LN13@createText:
; Line 85
	mov	eax, DWORD PTR _png$1[esp+32]
; Line 86
	mov	DWORD PTR _info$[esp+32], ecx
; Line 189
	mov	ecx, DWORD PTR _file$[esp+28]
; Line 85
	mov	DWORD PTR _png$[esp+32], eax
; Line 189
	test	ecx, ecx
	je	SHORT $LN9@createText
	push	ecx
	push	eax
	call	?checkTextureFile@@YAHPAUpng_struct_def@@PAU_iobuf@@@Z ; checkTextureFile
	jmp	SHORT $LN16@createText
$LN9@createText:
	push	DWORD PTR _dfile$[esp+28]
	push	eax
	call	?checkTextureFile2@@YAHPAUpng_struct_def@@PAUdsl_file@@@Z ; checkTextureFile2
$LN16@createText:
	add	esp, 8
	neg	eax
	sbb	eax, eax
	inc	eax
	test	eax, eax
	je	SHORT $LN3@createText
; Line 190
	push	0
	lea	eax, DWORD PTR _info$[esp+36]
	push	eax
	lea	eax, DWORD PTR _png$[esp+40]
	push	eax
	call	_png_destroy_read_struct
	add	esp, 12					; 0000000cH
; Line 191
	mov	eax, 8
; Line 224
	add	esp, 32					; 00000020H
	ret	0
$LN3@createText:
; Line 195
	lea	eax, DWORD PTR _height$[esp+32]
	push	eax
	lea	eax, DWORD PTR _width$[esp+36]
	push	eax
	push	DWORD PTR _info$[esp+40]
	push	DWORD PTR _png$[esp+44]
	call	?readTextureInfo@@YA?AW4_D3DFORMAT@@PAUpng_struct_def@@PAUpng_info_def@@PAI2@Z ; readTextureInfo
	mov	edx, eax
	add	esp, 16					; 00000010H
; Line 196
	test	edx, edx
	jne	SHORT $LN4@createText
; Line 197
	push	eax
	lea	eax, DWORD PTR _info$[esp+36]
	push	eax
	lea	eax, DWORD PTR _png$[esp+40]
	push	eax
	call	_png_destroy_read_struct
	add	esp, 12					; 0000000cH
; Line 198
	mov	eax, 9
; Line 224
	add	esp, 32					; 00000020H
	ret	0
$LN4@createText:
; Line 200
	mov	eax, DWORD PTR _device$[esp+28]
	push	esi
	push	0
	lea	esi, DWORD PTR _texture$[esp+40]
	mov	ecx, DWORD PTR [eax]
	push	esi
	push	1
	push	edx
	push	0
	push	1
	push	DWORD PTR _height$[esp+60]
	push	DWORD PTR _width$[esp+64]
	push	eax
	call	DWORD PTR [ecx+92]
	pop	esi
	push	0
	test	eax, eax
	je	SHORT $LN5@createText
; Line 201
	lea	eax, DWORD PTR _info$[esp+36]
	push	eax
	lea	eax, DWORD PTR _png$[esp+40]
	push	eax
	call	_png_destroy_read_struct
	add	esp, 12					; 0000000cH
; Line 202
	mov	eax, 22					; 00000016H
; Line 224
	add	esp, 32					; 00000020H
	ret	0
$LN5@createText:
; Line 206
	mov	eax, DWORD PTR _texture$[esp+36]
	lea	edx, DWORD PTR _rect$[esp+36]
	push	0
	push	edx
	push	0
	mov	ecx, DWORD PTR [eax]
	push	eax
	call	DWORD PTR [ecx+76]
	test	eax, eax
	je	SHORT $LN6@createText
; Line 207
	mov	eax, DWORD PTR _texture$[esp+32]
	push	eax
	mov	ecx, DWORD PTR [eax]
	call	DWORD PTR [ecx+8]
; Line 208
	push	0
	lea	eax, DWORD PTR _info$[esp+36]
	push	eax
	lea	eax, DWORD PTR _png$[esp+40]
	push	eax
	call	_png_destroy_read_struct
	add	esp, 12					; 0000000cH
; Line 209
	mov	eax, 3
; Line 224
	add	esp, 32					; 00000020H
	ret	0
$LN6@createText:
; Line 211
	push	DWORD PTR _rect$[esp+36]
	push	DWORD PTR _height$[esp+36]
	push	DWORD PTR _info$[esp+40]
	push	DWORD PTR _png$[esp+44]
	call	?readTextureImage@@YAHPAUpng_struct_def@@PAUpng_info_def@@IPAE@Z ; readTextureImage
	add	esp, 16					; 00000010H
	test	eax, eax
	mov	eax, DWORD PTR _texture$[esp+32]
	mov	ecx, DWORD PTR [eax]
	jne	SHORT $LN7@createText
; Line 212
	push	eax
	call	DWORD PTR [ecx+8]
; Line 213
	push	0
	lea	eax, DWORD PTR _info$[esp+36]
	push	eax
	lea	eax, DWORD PTR _png$[esp+40]
	push	eax
	call	_png_destroy_read_struct
	add	esp, 12					; 0000000cH
; Line 214
	mov	eax, 6
; Line 224
	add	esp, 32					; 00000020H
	ret	0
$LN7@createText:
; Line 216
	push	0
	push	eax
	call	DWORD PTR [ecx+80]
; Line 219
	push	0
	lea	eax, DWORD PTR _info$[esp+36]
	push	eax
	lea	eax, DWORD PTR _png$[esp+40]
	push	eax
	call	_png_destroy_read_struct
; Line 220
	mov	ecx, DWORD PTR _rwidth$[esp+40]
	add	esp, 12					; 0000000cH
	mov	eax, DWORD PTR _width$[esp+32]
	mov	DWORD PTR [ecx], eax
; Line 221
	mov	ecx, DWORD PTR _rheight$[esp+28]
	mov	eax, DWORD PTR _height$[esp+32]
	mov	DWORD PTR [ecx], eax
; Line 222
	mov	ecx, DWORD PTR _rtexture$[esp+28]
	mov	eax, DWORD PTR _texture$[esp+32]
	mov	DWORD PTR [ecx], eax
; Line 223
	xor	eax, eax
; Line 224
	add	esp, 32					; 00000020H
	ret	0
?createTextureFromFile@@YAHPAUIDirect3DDevice9@@PAU_iobuf@@PAUdsl_file@@PAI3PAPAUIDirect3DTexture9@@@Z ENDP ; createTextureFromFile
_TEXT	ENDS
; Function compile flags: /Ogtpy
;	COMDAT ?readTextureImage@@YAHPAUpng_struct_def@@PAUpng_info_def@@IPAE@Z
_TEXT	SEGMENT
tv572 = -32						; size = 16
_bytes$1$ = -12						; size = 4
tv583 = -8						; size = 4
_rows$ = -4						; size = 4
_png$ = 8						; size = 4
_info$ = 12						; size = 4
_height$ = 16						; size = 4
_bits$ = 20						; size = 4
?readTextureImage@@YAHPAUpng_struct_def@@PAUpng_info_def@@IPAE@Z PROC ; readTextureImage, COMDAT
; File C:\Program Files (x86)\Steam\steamapps\common\Bully Scholarship Edition\_derpy_script_loader\src\client\render.cpp
; Line 154
	push	ebx
	mov	ebx, esp
	sub	esp, 8
	and	esp, -16				; fffffff0H
	add	esp, 4
	push	ebp
	mov	ebp, DWORD PTR [ebx+4]
	mov	DWORD PTR [esp+4], ebp
	mov	ebp, esp
	sub	esp, 40					; 00000028H
	push	esi
	push	edi
; Line 160
	push	64					; 00000040H
	push	OFFSET _longjmp
	push	DWORD PTR _png$[ebx]
	mov	DWORD PTR _rows$[ebp], 0
	call	_png_set_longjmp_fn
	push	0
	push	eax
	call	__setjmp3
	add	esp, 20					; 00000014H
	test	eax, eax
	je	SHORT $LN5@readTextur
; Line 161
	mov	eax, DWORD PTR _rows$[ebp]
	test	eax, eax
	je	SHORT $LN20@readTextur
; Line 162
	push	eax
	call	_free
	add	esp, 4
; Line 170
	xor	eax, eax
; Line 177
	pop	edi
	pop	esi
	mov	esp, ebp
	pop	ebp
	mov	esp, ebx
	pop	ebx
	ret	0
$LN5@readTextur:
; Line 165
	mov	esi, DWORD PTR _png$[ebx]
	push	esi
	call	_png_set_interlace_handling
; Line 166
	mov	edi, DWORD PTR _info$[ebx]
	push	edi
	push	esi
	call	_png_read_update_info
; Line 167
	push	edi
	push	esi
	call	_png_get_rowbytes
; Line 168
	mov	edi, DWORD PTR _height$[ebx]
	mov	DWORD PTR _bytes$1$[ebp], eax
; Line 171
	movd	xmm0, eax
	lea	ecx, DWORD PTR [edi*4]
	pshufd	xmm0, xmm0, 0
	push	ecx
	movaps	XMMWORD PTR tv572[ebp], xmm0
	call	_malloc
	mov	esi, eax
	add	esp, 24					; 00000018H
	mov	DWORD PTR _rows$[ebp], esi
	test	esi, esi
	jne	SHORT $LN7@readTextur
$LN20@readTextur:
; Line 170
	xor	eax, eax
; Line 177
	pop	edi
	pop	esi
	mov	esp, ebp
	pop	ebp
	mov	esp, ebx
	pop	ebx
	ret	0
$LN7@readTextur:
; Line 171
	xor	eax, eax
	test	edi, edi
	je	$LN12@readTextur
	cmp	edi, 16					; 00000010H
	jb	$LN12@readTextur
	cmp	DWORD PTR ___isa_available, 2
	jl	$LN12@readTextur
	movd	xmm0, DWORD PTR _bits$[ebx]
	lea	edx, DWORD PTR [esi+32]
	movaps	xmm1, XMMWORD PTR __xmm@00000003000000020000000100000000
	mov	ecx, edi
	movaps	xmm3, XMMWORD PTR tv572[ebp]
	and	ecx, -16				; fffffff0H
	pshufd	xmm2, xmm0, 0
	mov	edi, ecx
	npad	5
$LL4@readTextur:
; Line 172
	movd	xmm0, eax
	lea	ecx, DWORD PTR [eax+4]
	pshufd	xmm0, xmm0, 0
	lea	edx, DWORD PTR [edx+64]
	paddd	xmm0, xmm1
	pmulld	xmm0, xmm3
	paddd	xmm0, xmm2
	movups	XMMWORD PTR [edx-96], xmm0
	movd	xmm0, ecx
	lea	ecx, DWORD PTR [eax+8]
	pshufd	xmm0, xmm0, 0
	paddd	xmm0, xmm1
	pmulld	xmm0, xmm3
	paddd	xmm0, xmm2
	movups	XMMWORD PTR [edx-80], xmm0
	movd	xmm0, ecx
	lea	ecx, DWORD PTR [eax+12]
	pshufd	xmm0, xmm0, 0
	add	eax, 16					; 00000010H
	paddd	xmm0, xmm1
	pmulld	xmm0, xmm3
	paddd	xmm0, xmm2
	movups	XMMWORD PTR [edx-64], xmm0
	movd	xmm0, ecx
	pshufd	xmm0, xmm0, 0
	paddd	xmm0, xmm1
	pmulld	xmm0, xmm3
	paddd	xmm0, xmm2
	movups	XMMWORD PTR [edx-48], xmm0
	cmp	eax, edi
	jb	SHORT $LL4@readTextur
	mov	edi, DWORD PTR _height$[ebx]
$LN12@readTextur:
; Line 171
	cmp	eax, edi
	jae	SHORT $LN3@readTextur
	mov	edx, DWORD PTR _bytes$1$[ebp]
	mov	ecx, eax
	imul	ecx, edx
	add	ecx, DWORD PTR _bits$[ebx]
	npad	3
$LL11@readTextur:
; Line 172
	mov	DWORD PTR [esi+eax*4], ecx
	inc	eax
	add	ecx, edx
	cmp	eax, edi
	jb	SHORT $LL11@readTextur
$LN3@readTextur:
; Line 173
	mov	edi, DWORD PTR _png$[ebx]
	push	esi
	push	edi
	call	_png_read_image
; Line 174
	push	DWORD PTR _info$[ebx]
	push	edi
	call	_png_read_end
; Line 175
	push	esi
	call	_free
	add	esp, 20					; 00000014H
; Line 176
	mov	eax, 1
; Line 177
	pop	edi
	pop	esi
	mov	esp, ebp
	pop	ebp
	mov	esp, ebx
	pop	ebx
	ret	0
?readTextureImage@@YAHPAUpng_struct_def@@PAUpng_info_def@@IPAE@Z ENDP ; readTextureImage
_TEXT	ENDS
; Function compile flags: /Ogtpy
;	COMDAT ?readTextureInfo@@YA?AW4_D3DFORMAT@@PAUpng_struct_def@@PAUpng_info_def@@PAI2@Z
_TEXT	SEGMENT
_interlace_method$ = -20				; size = 4
_compression_method$ = -16				; size = 4
_filter_method$ = -12					; size = 4
_color_type$ = -8					; size = 4
_bit_depth$ = -4					; size = 4
_png$ = 8						; size = 4
_info$ = 12						; size = 4
_width$ = 16						; size = 4
_height$ = 20						; size = 4
?readTextureInfo@@YA?AW4_D3DFORMAT@@PAUpng_struct_def@@PAUpng_info_def@@PAI2@Z PROC ; readTextureInfo, COMDAT
; File C:\Program Files (x86)\Steam\steamapps\common\Bully Scholarship Edition\_derpy_script_loader\src\client\render.cpp
; Line 115
	push	ebp
	mov	ebp, esp
	sub	esp, 20					; 00000014H
	push	esi
	push	edi
; Line 122
	push	64					; 00000040H
	push	OFFSET _longjmp
	push	DWORD PTR _png$[ebp]
	call	_png_set_longjmp_fn
	push	0
	push	eax
	call	__setjmp3
	add	esp, 20					; 00000014H
	test	eax, eax
	jne	$LN15@readTextur
; Line 124
	mov	esi, DWORD PTR _info$[ebp]
	mov	edi, DWORD PTR _png$[ebp]
	push	esi
	push	edi
	call	_png_read_info
; Line 125
	lea	eax, DWORD PTR _filter_method$[ebp]
	push	eax
	lea	eax, DWORD PTR _compression_method$[ebp]
	push	eax
	lea	eax, DWORD PTR _interlace_method$[ebp]
	push	eax
	lea	eax, DWORD PTR _color_type$[ebp]
	push	eax
	lea	eax, DWORD PTR _bit_depth$[ebp]
	push	eax
	push	DWORD PTR _height$[ebp]
	push	DWORD PTR _width$[ebp]
	push	esi
	push	edi
	call	_png_get_IHDR
; Line 126
	push	16					; 00000010H
	push	esi
	push	edi
	call	_png_get_valid
	add	esp, 56					; 00000038H
	test	eax, eax
	je	SHORT $LN3@readTextur
; Line 127
	push	edi
	call	_png_set_tRNS_to_alpha
	add	esp, 4
$LN3@readTextur:
; Line 128
	mov	eax, DWORD PTR _bit_depth$[ebp]
	cmp	eax, 8
	jge	SHORT $LN4@readTextur
; Line 129
	push	edi
	call	_png_set_packing
	jmp	SHORT $LN17@readTextur
$LN4@readTextur:
; Line 130
	cmp	eax, 16					; 00000010H
	jne	SHORT $LN6@readTextur
; Line 131
	push	edi
	call	_png_set_strip_16
$LN17@readTextur:
; Line 132
	add	esp, 4
$LN6@readTextur:
	mov	eax, DWORD PTR _color_type$[ebp]
	test	eax, eax
	jne	SHORT $LN7@readTextur
; Line 133
	push	edi
	call	_png_set_gray_to_rgb
; Line 134
	push	1
	push	255					; 000000ffH
	push	edi
	call	_png_set_add_alpha
	add	esp, 16					; 00000010H
; Line 135
	mov	eax, 21					; 00000015H
; Line 153
	pop	edi
	pop	esi
	mov	esp, ebp
	pop	ebp
	ret	0
$LN7@readTextur:
; Line 136
	cmp	eax, 4
	jne	SHORT $LN9@readTextur
; Line 137
	push	edi
	call	_png_set_gray_to_rgb
	add	esp, 4
; Line 138
	mov	eax, 21					; 00000015H
; Line 153
	pop	edi
	pop	esi
	mov	esp, ebp
	pop	ebp
	ret	0
$LN9@readTextur:
; Line 139
	cmp	eax, 3
	jne	SHORT $LN11@readTextur
; Line 140
	push	edi
	call	_png_set_palette_to_rgb
; Line 141
	push	edi
	call	_png_set_bgr
; Line 142
	push	1
	push	255					; 000000ffH
	push	edi
	call	_png_set_add_alpha
	add	esp, 20					; 00000014H
; Line 143
	mov	eax, 21					; 00000015H
; Line 153
	pop	edi
	pop	esi
	mov	esp, ebp
	pop	ebp
	ret	0
$LN11@readTextur:
; Line 144
	cmp	eax, 2
	jne	SHORT $LN13@readTextur
; Line 145
	push	1
	push	255					; 000000ffH
	push	edi
	call	_png_set_add_alpha
; Line 146
	push	edi
	call	_png_set_bgr
	add	esp, 16					; 00000010H
; Line 147
	mov	eax, 21					; 00000015H
; Line 153
	pop	edi
	pop	esi
	mov	esp, ebp
	pop	ebp
	ret	0
$LN13@readTextur:
; Line 148
	cmp	eax, 6
	jne	SHORT $LN15@readTextur
; Line 149
	push	edi
	call	_png_set_bgr
	add	esp, 4
; Line 150
	mov	eax, 21					; 00000015H
; Line 153
	pop	edi
	pop	esi
	mov	esp, ebp
	pop	ebp
	ret	0
$LN15@readTextur:
	pop	edi
	xor	eax, eax
	pop	esi
	mov	esp, ebp
	pop	ebp
	ret	0
?readTextureInfo@@YA?AW4_D3DFORMAT@@PAUpng_struct_def@@PAUpng_info_def@@PAI2@Z ENDP ; readTextureInfo
_TEXT	ENDS
; Function compile flags: /Ogtpy
;	COMDAT ?checkTextureFile2@@YAHPAUpng_struct_def@@PAUdsl_file@@@Z
_TEXT	SEGMENT
_png$GSCopy$ = -20					; size = 4
_file$GSCopy$ = -16					; size = 4
_sig$ = -12						; size = 8
__$ArrayPad$ = -4					; size = 4
_png$ = 8						; size = 4
_file$ = 12						; size = 4
?checkTextureFile2@@YAHPAUpng_struct_def@@PAUdsl_file@@@Z PROC ; checkTextureFile2, COMDAT
; File C:\Program Files (x86)\Steam\steamapps\common\Bully Scholarship Edition\_derpy_script_loader\src\client\render.cpp
; Line 104
	push	ebp
	mov	ebp, esp
	sub	esp, 20					; 00000014H
	mov	eax, DWORD PTR ___security_cookie
	xor	eax, ebp
	mov	DWORD PTR __$ArrayPad$[ebp], eax
	mov	ecx, DWORD PTR _png$[ebp]
	mov	eax, DWORD PTR _file$[ebp]
	push	esi
; Line 107
	push	64					; 00000040H
	push	OFFSET _longjmp
	push	ecx
	mov	DWORD PTR _png$GSCopy$[ebp], ecx
	mov	DWORD PTR _file$GSCopy$[ebp], eax
	call	_png_set_longjmp_fn
	push	0
	push	eax
	call	__setjmp3
	add	esp, 20					; 00000014H
	test	eax, eax
	jne	SHORT $LN4@checkTextu
; Line 109
	mov	esi, DWORD PTR _file$GSCopy$[ebp]
	lea	eax, DWORD PTR _sig$[ebp]
	push	8
	push	eax
	push	esi
	call	_readDslFile
	add	esp, 12					; 0000000cH
	cmp	eax, 8
	jne	SHORT $LN4@checkTextu
	push	eax
	lea	eax, DWORD PTR _sig$[ebp]
	push	0
	push	eax
	call	_png_sig_cmp
	add	esp, 12					; 0000000cH
	test	eax, eax
	jne	SHORT $LN4@checkTextu
; Line 111
	push	OFFSET ?readTextureFile@@YAXPAUpng_struct_def@@PADI@Z ; readTextureFile
	push	esi
	mov	esi, DWORD PTR _png$GSCopy$[ebp]
	push	esi
	call	_png_set_read_fn
; Line 112
	push	8
	push	esi
	call	_png_set_sig_bytes
	add	esp, 20					; 00000014H
; Line 113
	mov	eax, 1
; Line 114
	pop	esi
	mov	ecx, DWORD PTR __$ArrayPad$[ebp]
	xor	ecx, ebp
	call	@__security_check_cookie@4
	mov	esp, ebp
	pop	ebp
	ret	0
$LN4@checkTextu:
	mov	ecx, DWORD PTR __$ArrayPad$[ebp]
	xor	eax, eax
	xor	ecx, ebp
	pop	esi
	call	@__security_check_cookie@4
	mov	esp, ebp
	pop	ebp
	ret	0
?checkTextureFile2@@YAHPAUpng_struct_def@@PAUdsl_file@@@Z ENDP ; checkTextureFile2
_TEXT	ENDS
; Function compile flags: /Ogtpy
;	COMDAT ?readTextureFile@@YAXPAUpng_struct_def@@PADI@Z
_TEXT	SEGMENT
_png$ = 8						; size = 4
_buffer$ = 12						; size = 4
_bytes$ = 16						; size = 4
?readTextureFile@@YAXPAUpng_struct_def@@PADI@Z PROC	; readTextureFile, COMDAT
; File C:\Program Files (x86)\Steam\steamapps\common\Bully Scholarship Edition\_derpy_script_loader\src\client\render.cpp
; Line 101
	push	DWORD PTR _bytes$[esp-4]
	push	DWORD PTR _buffer$[esp]
	push	DWORD PTR _png$[esp+4]
	call	_png_get_io_ptr
	add	esp, 4
	push	eax
	call	_readDslFile
	add	esp, 12					; 0000000cH
	cmp	eax, DWORD PTR _bytes$[esp-4]
	jne	SHORT $LN6@readTextur
; Line 103
	ret	0
$LN6@readTextur:
; Line 102
	push	OFFSET ??_C@_0BD@NLOLCDDC@corrupted?5png?5file@
	push	DWORD PTR _png$[esp]
	call	_png_error
$LN4@readTextur:
	int	3
?readTextureFile@@YAXPAUpng_struct_def@@PADI@Z ENDP	; readTextureFile
_TEXT	ENDS
; Function compile flags: /Ogtpy
;	COMDAT ?checkTextureFile@@YAHPAUpng_struct_def@@PAU_iobuf@@@Z
_TEXT	SEGMENT
_png$GSCopy$ = -20					; size = 4
_file$GSCopy$ = -16					; size = 4
_sig$ = -12						; size = 8
__$ArrayPad$ = -4					; size = 4
_png$ = 8						; size = 4
_file$ = 12						; size = 4
?checkTextureFile@@YAHPAUpng_struct_def@@PAU_iobuf@@@Z PROC ; checkTextureFile, COMDAT
; File C:\Program Files (x86)\Steam\steamapps\common\Bully Scholarship Edition\_derpy_script_loader\src\client\render.cpp
; Line 89
	push	ebp
	mov	ebp, esp
	sub	esp, 20					; 00000014H
	mov	eax, DWORD PTR ___security_cookie
	xor	eax, ebp
	mov	DWORD PTR __$ArrayPad$[ebp], eax
	mov	ecx, DWORD PTR _png$[ebp]
	mov	eax, DWORD PTR _file$[ebp]
	push	esi
; Line 92
	push	64					; 00000040H
	push	OFFSET _longjmp
	push	ecx
	mov	DWORD PTR _png$GSCopy$[ebp], ecx
	mov	DWORD PTR _file$GSCopy$[ebp], eax
	call	_png_set_longjmp_fn
	push	0
	push	eax
	call	__setjmp3
	add	esp, 20					; 00000014H
	test	eax, eax
	jne	SHORT $LN4@checkTextu
; Line 94
	mov	esi, DWORD PTR _file$GSCopy$[ebp]
	lea	eax, DWORD PTR _sig$[ebp]
	push	esi
	push	1
	push	8
	push	eax
	call	_fread
	add	esp, 16					; 00000010H
	test	eax, eax
	je	SHORT $LN4@checkTextu
	push	8
	lea	eax, DWORD PTR _sig$[ebp]
	push	0
	push	eax
	call	_png_sig_cmp
	add	esp, 12					; 0000000cH
	test	eax, eax
	jne	SHORT $LN4@checkTextu
; Line 96
	push	esi
	mov	esi, DWORD PTR _png$GSCopy$[ebp]
	push	esi
	call	_png_init_io
; Line 97
	push	8
	push	esi
	call	_png_set_sig_bytes
	add	esp, 16					; 00000010H
; Line 98
	mov	eax, 1
; Line 99
	pop	esi
	mov	ecx, DWORD PTR __$ArrayPad$[ebp]
	xor	ecx, ebp
	call	@__security_check_cookie@4
	mov	esp, ebp
	pop	ebp
	ret	0
$LN4@checkTextu:
	mov	ecx, DWORD PTR __$ArrayPad$[ebp]
	xor	eax, eax
	xor	ecx, ebp
	pop	esi
	call	@__security_check_cookie@4
	mov	esp, ebp
	pop	ebp
	ret	0
?checkTextureFile@@YAHPAUpng_struct_def@@PAU_iobuf@@@Z ENDP ; checkTextureFile
_TEXT	ENDS
; Function compile flags: /Ogtpy
;	COMDAT ?setupTextureReader@@YAHPAPAUpng_struct_def@@PAPAUpng_info_def@@@Z
_TEXT	SEGMENT
_png$ = -4						; size = 4
_ppng$ = 8						; size = 4
_pinfo$ = 12						; size = 4
?setupTextureReader@@YAHPAPAUpng_struct_def@@PAPAUpng_info_def@@@Z PROC ; setupTextureReader, COMDAT
; File C:\Program Files (x86)\Steam\steamapps\common\Bully Scholarship Edition\_derpy_script_loader\src\client\render.cpp
; Line 73
	push	ecx
; Line 77
	push	0
	push	0
	push	0
	push	OFFSET ??_C@_06IJIHIEPH@1?46?437@
	call	_png_create_read_struct
	add	esp, 16					; 00000010H
	mov	DWORD PTR _png$[esp+4], eax
; Line 78
	test	eax, eax
	je	SHORT $LN5@setupTextu
; Line 80
	push	eax
	call	_png_create_info_struct
	mov	edx, eax
	add	esp, 4
; Line 81
	test	edx, edx
	jne	SHORT $LN3@setupTextu
; Line 82
	push	eax
	push	eax
	lea	eax, DWORD PTR _png$[esp+12]
	push	eax
	call	_png_destroy_read_struct
	add	esp, 12					; 0000000cH
$LN5@setupTextu:
; Line 88
	xor	eax, eax
	pop	ecx
	ret	0
$LN3@setupTextu:
; Line 85
	mov	ecx, DWORD PTR _ppng$[esp]
	mov	eax, DWORD PTR _png$[esp+4]
	mov	DWORD PTR [ecx], eax
; Line 86
	mov	eax, DWORD PTR _pinfo$[esp]
	mov	DWORD PTR [eax], edx
; Line 87
	mov	eax, 1
; Line 88
	pop	ecx
	ret	0
?setupTextureReader@@YAHPAPAUpng_struct_def@@PAPAUpng_info_def@@@Z ENDP ; setupTextureReader
_TEXT	ENDS
; Function compile flags: /Ogtpy
;	COMDAT _sprintf
_TEXT	SEGMENT
__Buffer$ = 8						; size = 4
__Format$ = 12						; size = 4
_sprintf PROC						; COMDAT
; File C:\Program Files (x86)\Windows Kits\10\include\10.0.18362.0\ucrt\stdio.h
; Line 1390
	lea	eax, DWORD PTR __Format$[esp]
	push	eax
	push	0
	push	DWORD PTR __Format$[esp+4]
	push	-1
	push	DWORD PTR __Buffer$[esp+12]
	call	___local_stdio_printf_options
	mov	ecx, DWORD PTR [eax]
	push	DWORD PTR [eax+4]
	or	ecx, 1
	push	ecx
	call	___stdio_common_vsprintf
; Line 1394
	or	ecx, -1
	add	esp, 28					; 0000001cH
	test	eax, eax
	cmovs	eax, ecx
; Line 1793
	ret	0
_sprintf ENDP
_TEXT	ENDS
; Function compile flags: /Ogtpy
;	COMDAT __vsprintf_l
_TEXT	SEGMENT
__Buffer$ = 8						; size = 4
__Format$ = 12						; size = 4
__Locale$ = 16						; size = 4
__ArgList$ = 20						; size = 4
__vsprintf_l PROC					; COMDAT
; File C:\Program Files (x86)\Windows Kits\10\include\10.0.18362.0\ucrt\stdio.h
; Line 1390
	push	DWORD PTR __ArgList$[esp-4]
	push	DWORD PTR __Locale$[esp]
	push	DWORD PTR __Format$[esp+4]
	push	-1
	push	DWORD PTR __Buffer$[esp+12]
	call	___local_stdio_printf_options
	mov	ecx, DWORD PTR [eax]
	push	DWORD PTR [eax+4]
	or	ecx, 1
	push	ecx
	call	___stdio_common_vsprintf
; Line 1394
	or	ecx, -1
	add	esp, 28					; 0000001cH
	test	eax, eax
	cmovs	eax, ecx
; Line 1464
	ret	0
__vsprintf_l ENDP
_TEXT	ENDS
; Function compile flags: /Ogtpy
;	COMDAT __vsnprintf_l
_TEXT	SEGMENT
__Buffer$ = 8						; size = 4
__BufferCount$ = 12					; size = 4
__Format$ = 16						; size = 4
__Locale$ = 20						; size = 4
__ArgList$ = 24						; size = 4
__vsnprintf_l PROC					; COMDAT
; File C:\Program Files (x86)\Windows Kits\10\include\10.0.18362.0\ucrt\stdio.h
; Line 1390
	push	DWORD PTR __ArgList$[esp-4]
	push	DWORD PTR __Locale$[esp]
	push	DWORD PTR __Format$[esp+4]
	push	DWORD PTR __BufferCount$[esp+8]
	push	DWORD PTR __Buffer$[esp+12]
	call	___local_stdio_printf_options
	mov	ecx, DWORD PTR [eax]
	push	DWORD PTR [eax+4]
	or	ecx, 1
	push	ecx
	call	___stdio_common_vsprintf
; Line 1394
	or	ecx, -1
	add	esp, 28					; 0000001cH
	test	eax, eax
	cmovs	eax, ecx
; Line 1395
	ret	0
__vsnprintf_l ENDP
_TEXT	ENDS
; Function compile flags: /Ogtpy
;	COMDAT ___local_stdio_printf_options
_TEXT	SEGMENT
___local_stdio_printf_options PROC			; COMDAT
; File C:\Program Files (x86)\Windows Kits\10\include\10.0.18362.0\ucrt\corecrt_stdio_config.h
; Line 88
	mov	eax, OFFSET ?_OptionsStorage@?1??__local_stdio_printf_options@@9@4_KA ; `__local_stdio_printf_options'::`2'::_OptionsStorage
; Line 89
	ret	0
___local_stdio_printf_options ENDP
_TEXT	ENDS
END
